	.text
	.file	"1j1lkjzogu2hjbsp"
	.section	".text._ZN101_$LT$std..panic..AssertUnwindSafe$LT$F$GT$$u20$as$u20$core..ops..function..FnOnce$LT$$LP$$RP$$GT$$GT$9call_once17h85505b249faa5f45E","ax",@progbits
	.p2align	4, 0x90
	.type	_ZN101_$LT$std..panic..AssertUnwindSafe$LT$F$GT$$u20$as$u20$core..ops..function..FnOnce$LT$$LP$$RP$$GT$$GT$9call_once17h85505b249faa5f45E,@function
_ZN101_$LT$std..panic..AssertUnwindSafe$LT$F$GT$$u20$as$u20$core..ops..function..FnOnce$LT$$LP$$RP$$GT$$GT$9call_once17h85505b249faa5f45E:
.Lfunc_begin0:
	.file	1 "/rustc/e1884a8e3c3e813aada8254edfa120e85bf5ffca/library/std/src/panic.rs"
	.loc	1 321 0
	.cfi_startproc
	subq	$40, %rsp
	.cfi_def_cfa_offset 48
	movq	%rdi, 24(%rsp)
	movq	%rsi, 32(%rsp)
.Ltmp0:
	.loc	1 322 9 prologue_end
	callq	_ZN3std6thread7Builder15spawn_unchecked28_$u7b$$u7b$closure$u7d$$u7d$28_$u7b$$u7b$closure$u7d$$u7d$17he47b10ae0769d26bE
	.loc	1 323 6
	addq	$40, %rsp
	.cfi_def_cfa_offset 8
	retq
.Ltmp1:
.Lfunc_end0:
	.size	_ZN101_$LT$std..panic..AssertUnwindSafe$LT$F$GT$$u20$as$u20$core..ops..function..FnOnce$LT$$LP$$RP$$GT$$GT$9call_once17h85505b249faa5f45E, .Lfunc_end0-_ZN101_$LT$std..panic..AssertUnwindSafe$LT$F$GT$$u20$as$u20$core..ops..function..FnOnce$LT$$LP$$RP$$GT$$GT$9call_once17h85505b249faa5f45E
	.cfi_endproc

	.section	".text._ZN101_$LT$std..panic..AssertUnwindSafe$LT$F$GT$$u20$as$u20$core..ops..function..FnOnce$LT$$LP$$RP$$GT$$GT$9call_once17he603020bdeb61082E","ax",@progbits
	.p2align	4, 0x90
	.type	_ZN101_$LT$std..panic..AssertUnwindSafe$LT$F$GT$$u20$as$u20$core..ops..function..FnOnce$LT$$LP$$RP$$GT$$GT$9call_once17he603020bdeb61082E,@function
_ZN101_$LT$std..panic..AssertUnwindSafe$LT$F$GT$$u20$as$u20$core..ops..function..FnOnce$LT$$LP$$RP$$GT$$GT$9call_once17he603020bdeb61082E:
.Lfunc_begin1:
	.loc	1 321 0
	.cfi_startproc
	subq	$40, %rsp
	.cfi_def_cfa_offset 48
	movq	%rdi, 24(%rsp)
	movq	%rsi, 32(%rsp)
.Ltmp2:
	.loc	1 322 9 prologue_end
	callq	_ZN3std6thread7Builder15spawn_unchecked28_$u7b$$u7b$closure$u7d$$u7d$28_$u7b$$u7b$closure$u7d$$u7d$17hff9a6facaa0652b9E
	.loc	1 323 6
	addq	$40, %rsp
	.cfi_def_cfa_offset 8
	retq
.Ltmp3:
.Lfunc_end1:
	.size	_ZN101_$LT$std..panic..AssertUnwindSafe$LT$F$GT$$u20$as$u20$core..ops..function..FnOnce$LT$$LP$$RP$$GT$$GT$9call_once17he603020bdeb61082E, .Lfunc_end1-_ZN101_$LT$std..panic..AssertUnwindSafe$LT$F$GT$$u20$as$u20$core..ops..function..FnOnce$LT$$LP$$RP$$GT$$GT$9call_once17he603020bdeb61082E
	.cfi_endproc

	.section	".text._ZN119_$LT$core..ptr..non_null..NonNull$LT$T$GT$$u20$as$u20$core..convert..From$LT$core..ptr..unique..Unique$LT$T$GT$$GT$$GT$4from17h1dec1c62f83e5a64E","ax",@progbits
	.p2align	4, 0x90
	.type	_ZN119_$LT$core..ptr..non_null..NonNull$LT$T$GT$$u20$as$u20$core..convert..From$LT$core..ptr..unique..Unique$LT$T$GT$$GT$$GT$4from17h1dec1c62f83e5a64E,@function
_ZN119_$LT$core..ptr..non_null..NonNull$LT$T$GT$$u20$as$u20$core..convert..From$LT$core..ptr..unique..Unique$LT$T$GT$$GT$$GT$4from17h1dec1c62f83e5a64E:
.Lfunc_begin2:
	.file	2 "/rustc/e1884a8e3c3e813aada8254edfa120e85bf5ffca/library/core/src/ptr/non_null.rs"
	.loc	2 562 0
	.cfi_startproc
	subq	$24, %rsp
	.cfi_def_cfa_offset 32
	movq	%rdi, 16(%rsp)
.Ltmp4:
	.loc	2 565 41 prologue_end
	callq	_ZN4core3ptr6unique15Unique$LT$T$GT$6as_ptr17h22e05ec35842233fE
	movq	%rax, 8(%rsp)
	.loc	2 0 41 is_stmt 0
	movq	8(%rsp), %rdi
	.loc	2 565 18
	callq	_ZN4core3ptr8non_null16NonNull$LT$T$GT$13new_unchecked17hbe0716788325a631E
	movq	%rax, (%rsp)
	.loc	2 0 18
	movq	(%rsp), %rax
	.loc	2 566 6 is_stmt 1
	addq	$24, %rsp
	.cfi_def_cfa_offset 8
	retq
.Ltmp5:
.Lfunc_end2:
	.size	_ZN119_$LT$core..ptr..non_null..NonNull$LT$T$GT$$u20$as$u20$core..convert..From$LT$core..ptr..unique..Unique$LT$T$GT$$GT$$GT$4from17h1dec1c62f83e5a64E, .Lfunc_end2-_ZN119_$LT$core..ptr..non_null..NonNull$LT$T$GT$$u20$as$u20$core..convert..From$LT$core..ptr..unique..Unique$LT$T$GT$$GT$$GT$4from17h1dec1c62f83e5a64E
	.cfi_endproc

	.section	.text._ZN3std10sys_common9backtrace28__rust_begin_short_backtrace17h07a9344685f06275E,"ax",@progbits
	.p2align	4, 0x90
	.type	_ZN3std10sys_common9backtrace28__rust_begin_short_backtrace17h07a9344685f06275E,@function
_ZN3std10sys_common9backtrace28__rust_begin_short_backtrace17h07a9344685f06275E:
.Lfunc_begin3:
	.file	3 "/rustc/e1884a8e3c3e813aada8254edfa120e85bf5ffca/library/std/src/sys_common/backtrace.rs"
	.loc	3 121 0
	.cfi_startproc
	.cfi_personality 155, DW.ref.rust_eh_personality
	.cfi_lsda 27, .Lexception0
	subq	$56, %rsp
	.cfi_def_cfa_offset 64
	movq	%rdi, 24(%rsp)
	movq	%rsi, 32(%rsp)
.Ltmp9:
	.loc	3 125 18 prologue_end
	callq	_ZN3ars4main28_$u7b$$u7b$closure$u7d$$u7d$17hc251aeb9510c2e07E
.Ltmp6:
.Ltmp10:
	.loc	3 128 5
	callq	_ZN4core4hint9black_box17hf80f8a9ab9725900E
.Ltmp7:
	jmp	.LBB3_2
.Ltmp11:
.LBB3_2:
	.loc	3 131 2
	addq	$56, %rsp
	.cfi_def_cfa_offset 8
	retq
.LBB3_3:
	.cfi_def_cfa_offset 64
	.loc	3 131 1 is_stmt 0
	jmp	.LBB3_4
.LBB3_4:
	.loc	3 121 1 is_stmt 1
	movq	40(%rsp), %rdi
	callq	_Unwind_Resume@PLT
	ud2
.Ltmp12:
.LBB3_5:
.Ltmp8:
	.loc	3 0 1 is_stmt 0
	movq	%rax, 40(%rsp)
	movl	%edx, 48(%rsp)
	jmp	.LBB3_3
.Lfunc_end3:
	.size	_ZN3std10sys_common9backtrace28__rust_begin_short_backtrace17h07a9344685f06275E, .Lfunc_end3-_ZN3std10sys_common9backtrace28__rust_begin_short_backtrace17h07a9344685f06275E
	.cfi_endproc
	.section	.gcc_except_table,"a",@progbits
	.p2align	2
GCC_except_table3:
.Lexception0:
	.byte	255
	.byte	255
	.byte	1
	.uleb128 .Lcst_end0-.Lcst_begin0
.Lcst_begin0:
	.uleb128 .Lfunc_begin3-.Lfunc_begin3
	.uleb128 .Ltmp6-.Lfunc_begin3
	.byte	0
	.byte	0
	.uleb128 .Ltmp6-.Lfunc_begin3
	.uleb128 .Ltmp7-.Ltmp6
	.uleb128 .Ltmp8-.Lfunc_begin3
	.byte	0
	.uleb128 .Ltmp7-.Lfunc_begin3
	.uleb128 .Lfunc_end3-.Ltmp7
	.byte	0
	.byte	0
.Lcst_end0:
	.p2align	2

	.section	.text._ZN3std10sys_common9backtrace28__rust_begin_short_backtrace17ha1257487d1ae4ddfE,"ax",@progbits
	.p2align	4, 0x90
	.type	_ZN3std10sys_common9backtrace28__rust_begin_short_backtrace17ha1257487d1ae4ddfE,@function
_ZN3std10sys_common9backtrace28__rust_begin_short_backtrace17ha1257487d1ae4ddfE:
.Lfunc_begin4:
	.loc	3 121 0 is_stmt 1
	.cfi_startproc
	.cfi_personality 155, DW.ref.rust_eh_personality
	.cfi_lsda 27, .Lexception1
	subq	$56, %rsp
	.cfi_def_cfa_offset 64
	movq	%rdi, 32(%rsp)
.Ltmp16:
	.loc	3 125 18 prologue_end
	callq	_ZN4core3ops8function6FnOnce9call_once17h889aaf6d1de3dbd2E
.Ltmp13:
.Ltmp17:
	.loc	3 128 5
	callq	_ZN4core4hint9black_box17hf80f8a9ab9725900E
.Ltmp14:
	jmp	.LBB4_2
.Ltmp18:
.LBB4_2:
	.loc	3 131 2
	addq	$56, %rsp
	.cfi_def_cfa_offset 8
	retq
.LBB4_3:
	.cfi_def_cfa_offset 64
	.loc	3 131 1 is_stmt 0
	jmp	.LBB4_4
.LBB4_4:
	.loc	3 121 1 is_stmt 1
	movq	40(%rsp), %rdi
	callq	_Unwind_Resume@PLT
	ud2
.Ltmp19:
.LBB4_5:
.Ltmp15:
	.loc	3 0 1 is_stmt 0
	movq	%rax, 40(%rsp)
	movl	%edx, 48(%rsp)
	jmp	.LBB4_3
.Lfunc_end4:
	.size	_ZN3std10sys_common9backtrace28__rust_begin_short_backtrace17ha1257487d1ae4ddfE, .Lfunc_end4-_ZN3std10sys_common9backtrace28__rust_begin_short_backtrace17ha1257487d1ae4ddfE
	.cfi_endproc
	.section	.gcc_except_table,"a",@progbits
	.p2align	2
GCC_except_table4:
.Lexception1:
	.byte	255
	.byte	255
	.byte	1
	.uleb128 .Lcst_end1-.Lcst_begin1
.Lcst_begin1:
	.uleb128 .Lfunc_begin4-.Lfunc_begin4
	.uleb128 .Ltmp13-.Lfunc_begin4
	.byte	0
	.byte	0
	.uleb128 .Ltmp13-.Lfunc_begin4
	.uleb128 .Ltmp14-.Ltmp13
	.uleb128 .Ltmp15-.Lfunc_begin4
	.byte	0
	.uleb128 .Ltmp14-.Lfunc_begin4
	.uleb128 .Lfunc_end4-.Ltmp14
	.byte	0
	.byte	0
.Lcst_end1:
	.p2align	2

	.section	.text._ZN3std10sys_common9backtrace28__rust_begin_short_backtrace17he65691f7ad0a62abE,"ax",@progbits
	.p2align	4, 0x90
	.type	_ZN3std10sys_common9backtrace28__rust_begin_short_backtrace17he65691f7ad0a62abE,@function
_ZN3std10sys_common9backtrace28__rust_begin_short_backtrace17he65691f7ad0a62abE:
.Lfunc_begin5:
	.loc	3 121 0 is_stmt 1
	.cfi_startproc
	.cfi_personality 155, DW.ref.rust_eh_personality
	.cfi_lsda 27, .Lexception2
	subq	$56, %rsp
	.cfi_def_cfa_offset 64
	movq	%rdi, 24(%rsp)
	movq	%rsi, 32(%rsp)
.Ltmp23:
	.loc	3 125 18 prologue_end
	callq	_ZN3ars4main28_$u7b$$u7b$closure$u7d$$u7d$17h515f888e0f8a1ff3E
.Ltmp20:
.Ltmp24:
	.loc	3 128 5
	callq	_ZN4core4hint9black_box17hf80f8a9ab9725900E
.Ltmp21:
	jmp	.LBB5_2
.Ltmp25:
.LBB5_2:
	.loc	3 131 2
	addq	$56, %rsp
	.cfi_def_cfa_offset 8
	retq
.LBB5_3:
	.cfi_def_cfa_offset 64
	.loc	3 131 1 is_stmt 0
	jmp	.LBB5_4
.LBB5_4:
	.loc	3 121 1 is_stmt 1
	movq	40(%rsp), %rdi
	callq	_Unwind_Resume@PLT
	ud2
.Ltmp26:
.LBB5_5:
.Ltmp22:
	.loc	3 0 1 is_stmt 0
	movq	%rax, 40(%rsp)
	movl	%edx, 48(%rsp)
	jmp	.LBB5_3
.Lfunc_end5:
	.size	_ZN3std10sys_common9backtrace28__rust_begin_short_backtrace17he65691f7ad0a62abE, .Lfunc_end5-_ZN3std10sys_common9backtrace28__rust_begin_short_backtrace17he65691f7ad0a62abE
	.cfi_endproc
	.section	.gcc_except_table,"a",@progbits
	.p2align	2
GCC_except_table5:
.Lexception2:
	.byte	255
	.byte	255
	.byte	1
	.uleb128 .Lcst_end2-.Lcst_begin2
.Lcst_begin2:
	.uleb128 .Lfunc_begin5-.Lfunc_begin5
	.uleb128 .Ltmp20-.Lfunc_begin5
	.byte	0
	.byte	0
	.uleb128 .Ltmp20-.Lfunc_begin5
	.uleb128 .Ltmp21-.Ltmp20
	.uleb128 .Ltmp22-.Lfunc_begin5
	.byte	0
	.uleb128 .Ltmp21-.Lfunc_begin5
	.uleb128 .Lfunc_end5-.Ltmp21
	.byte	0
	.byte	0
.Lcst_end2:
	.p2align	2

	.section	.text._ZN3std2rt10lang_start17hb6cb5a8133d4798fE,"ax",@progbits
	.hidden	_ZN3std2rt10lang_start17hb6cb5a8133d4798fE
	.globl	_ZN3std2rt10lang_start17hb6cb5a8133d4798fE
	.p2align	4, 0x90
	.type	_ZN3std2rt10lang_start17hb6cb5a8133d4798fE,@function
_ZN3std2rt10lang_start17hb6cb5a8133d4798fE:
.Lfunc_begin6:
	.file	4 "/rustc/e1884a8e3c3e813aada8254edfa120e85bf5ffca/library/std/src/rt.rs"
	.loc	4 60 0 is_stmt 1
	.cfi_startproc
	subq	$56, %rsp
	.cfi_def_cfa_offset 64
	leaq	.L__unnamed_1(%rip), %rax
	movq	%rdi, 32(%rsp)
	movq	%rsi, 40(%rsp)
	movq	%rdx, 48(%rsp)
.Ltmp27:
	.loc	4 66 10 prologue_end
	movq	%rdi, 24(%rsp)
	.loc	4 66 9 is_stmt 0
	leaq	24(%rsp), %rcx
	.loc	4 65 5 is_stmt 1
	movq	%rcx, %rdi
	movq	%rsi, 16(%rsp)
	movq	%rax, %rsi
	movq	16(%rsp), %rax
	movq	%rdx, 8(%rsp)
	movq	%rax, %rdx
	movq	8(%rsp), %rcx
	callq	*_ZN3std2rt19lang_start_internal17ha53ab63f88fee728E@GOTPCREL(%rip)
	movq	%rax, (%rsp)
	.loc	4 0 5 is_stmt 0
	movq	(%rsp), %rax
	.loc	4 70 2 is_stmt 1
	addq	$56, %rsp
	.cfi_def_cfa_offset 8
	retq
.Ltmp28:
.Lfunc_end6:
	.size	_ZN3std2rt10lang_start17hb6cb5a8133d4798fE, .Lfunc_end6-_ZN3std2rt10lang_start17hb6cb5a8133d4798fE
	.cfi_endproc

	.section	".text._ZN3std2rt10lang_start28_$u7b$$u7b$closure$u7d$$u7d$17h7e246624bf518cbdE","ax",@progbits
	.p2align	4, 0x90
	.type	_ZN3std2rt10lang_start28_$u7b$$u7b$closure$u7d$$u7d$17h7e246624bf518cbdE,@function
_ZN3std2rt10lang_start28_$u7b$$u7b$closure$u7d$$u7d$17h7e246624bf518cbdE:
.Lfunc_begin7:
	.loc	4 66 0
	.cfi_startproc
	subq	$24, %rsp
	.cfi_def_cfa_offset 32
	movq	%rdi, 16(%rsp)
.Ltmp29:
	.loc	4 66 77 prologue_end
	movq	(%rdi), %rdi
	.loc	4 66 18 is_stmt 0
	callq	_ZN3std10sys_common9backtrace28__rust_begin_short_backtrace17ha1257487d1ae4ddfE
	callq	_ZN54_$LT$$LP$$RP$$u20$as$u20$std..process..Termination$GT$6report17hb95539644c804601E
	movl	%eax, 12(%rsp)
	.loc	4 0 18
	movl	12(%rsp), %eax
	.loc	4 66 91
	addq	$24, %rsp
	.cfi_def_cfa_offset 8
	retq
.Ltmp30:
.Lfunc_end7:
	.size	_ZN3std2rt10lang_start28_$u7b$$u7b$closure$u7d$$u7d$17h7e246624bf518cbdE, .Lfunc_end7-_ZN3std2rt10lang_start28_$u7b$$u7b$closure$u7d$$u7d$17h7e246624bf518cbdE
	.cfi_endproc

	.section	.text._ZN3std3sys4unix7process14process_common8ExitCode6as_i3217hc818466c0c41b579E,"ax",@progbits
	.p2align	4, 0x90
	.type	_ZN3std3sys4unix7process14process_common8ExitCode6as_i3217hc818466c0c41b579E,@function
_ZN3std3sys4unix7process14process_common8ExitCode6as_i3217hc818466c0c41b579E:
.Lfunc_begin8:
	.file	5 "/rustc/e1884a8e3c3e813aada8254edfa120e85bf5ffca/library/std/src/sys/unix/process/process_common.rs"
	.loc	5 429 0 is_stmt 1
	.cfi_startproc
	pushq	%rax
	.cfi_def_cfa_offset 16
	movq	%rdi, (%rsp)
.Ltmp31:
	.loc	5 430 9 prologue_end
	movzbl	(%rdi), %eax
	.loc	5 431 6
	popq	%rcx
	.cfi_def_cfa_offset 8
	retq
.Ltmp32:
.Lfunc_end8:
	.size	_ZN3std3sys4unix7process14process_common8ExitCode6as_i3217hc818466c0c41b579E, .Lfunc_end8-_ZN3std3sys4unix7process14process_common8ExitCode6as_i3217hc818466c0c41b579E
	.cfi_endproc

	.section	.text._ZN3std5panic12catch_unwind17h7f5deec13d1cb518E,"ax",@progbits
	.p2align	4, 0x90
	.type	_ZN3std5panic12catch_unwind17h7f5deec13d1cb518E,@function
_ZN3std5panic12catch_unwind17h7f5deec13d1cb518E:
.Lfunc_begin9:
	.loc	1 395 0
	.cfi_startproc
	subq	$40, %rsp
	.cfi_def_cfa_offset 48
	movq	%rdi, 24(%rsp)
	movq	%rsi, 32(%rsp)
.Ltmp33:
	.loc	1 396 14 prologue_end
	callq	_ZN3std9panicking3try17h62f763d0a8f04afcE
	movq	%rax, 16(%rsp)
	movq	%rdx, 8(%rsp)
	.loc	1 0 14 is_stmt 0
	movq	16(%rsp), %rax
	movq	8(%rsp), %rdx
	.loc	1 397 2 is_stmt 1
	addq	$40, %rsp
	.cfi_def_cfa_offset 8
	retq
.Ltmp34:
.Lfunc_end9:
	.size	_ZN3std5panic12catch_unwind17h7f5deec13d1cb518E, .Lfunc_end9-_ZN3std5panic12catch_unwind17h7f5deec13d1cb518E
	.cfi_endproc

	.section	.text._ZN3std5panic12catch_unwind17hf05448ecceea234aE,"ax",@progbits
	.p2align	4, 0x90
	.type	_ZN3std5panic12catch_unwind17hf05448ecceea234aE,@function
_ZN3std5panic12catch_unwind17hf05448ecceea234aE:
.Lfunc_begin10:
	.loc	1 395 0
	.cfi_startproc
	subq	$40, %rsp
	.cfi_def_cfa_offset 48
	movq	%rdi, 24(%rsp)
	movq	%rsi, 32(%rsp)
.Ltmp35:
	.loc	1 396 14 prologue_end
	callq	_ZN3std9panicking3try17h8d408f4c44f5a858E
	movq	%rax, 16(%rsp)
	movq	%rdx, 8(%rsp)
	.loc	1 0 14 is_stmt 0
	movq	16(%rsp), %rax
	movq	8(%rsp), %rdx
	.loc	1 397 2 is_stmt 1
	addq	$40, %rsp
	.cfi_def_cfa_offset 8
	retq
.Ltmp36:
.Lfunc_end10:
	.size	_ZN3std5panic12catch_unwind17hf05448ecceea234aE, .Lfunc_end10-_ZN3std5panic12catch_unwind17hf05448ecceea234aE
	.cfi_endproc

	.section	".text._ZN3std6thread18JoinInner$LT$T$GT$4join17h8724fe699d876192E","ax",@progbits
	.p2align	4, 0x90
	.type	_ZN3std6thread18JoinInner$LT$T$GT$4join17h8724fe699d876192E,@function
_ZN3std6thread18JoinInner$LT$T$GT$4join17h8724fe699d876192E:
.Lfunc_begin11:
	.file	6 "/rustc/e1884a8e3c3e813aada8254edfa120e85bf5ffca/library/std/src/thread/mod.rs"
	.loc	6 1243 0
	.cfi_startproc
	subq	$104, %rsp
	.cfi_def_cfa_offset 112
	movq	%rdi, 96(%rsp)
.Ltmp37:
	.loc	6 1244 9 prologue_end
	movq	%rdi, %rax
	movq	%rdi, 64(%rsp)
	movq	%rax, %rdi
	callq	_ZN4core6option15Option$LT$T$GT$4take17h17fa78e190703c78E
	movq	%rax, 56(%rsp)
	movq	%rdx, 48(%rsp)
	.loc	6 0 9 is_stmt 0
	leaq	.L__unnamed_5(%rip), %rax
	movq	56(%rsp), %rdi
	movq	48(%rsp), %rsi
	.loc	6 1244 9
	movq	%rax, %rdx
	callq	_ZN4core6option15Option$LT$T$GT$6unwrap17he0803a4d6e957c1cE
	movq	%rax, 40(%rsp)
	.loc	6 0 9
	movq	40(%rsp), %rdi
	.loc	6 1244 9
	callq	*_ZN3std3sys4unix6thread6Thread4join17h4a14516b87ef8a32E@GOTPCREL(%rip)
	.loc	6 0 9
	movq	64(%rsp), %rax
	.loc	6 1245 20 is_stmt 1
	addq	$24, %rax
	movq	%rax, %rdi
	callq	_ZN69_$LT$alloc..sync..Arc$LT$T$GT$$u20$as$u20$core..ops..deref..Deref$GT$5deref17h5051a4280b5b290eE
	movq	%rax, 32(%rsp)
	.loc	6 0 20 is_stmt 0
	movq	32(%rsp), %rdi
	.loc	6 1245 20
	callq	_ZN4core4cell19UnsafeCell$LT$T$GT$3get17h1cebdd43157a95e5E
	movq	%rax, 24(%rsp)
	.loc	6 1245 18
	leaq	72(%rsp), %rdi
	movq	24(%rsp), %rsi
	callq	_ZN4core6option15Option$LT$T$GT$4take17hb107d63ac3e9671eE
	.loc	6 0 18
	leaq	.L__unnamed_6(%rip), %rax
	.loc	6 1245 18
	leaq	72(%rsp), %rdi
	movq	%rax, %rsi
	callq	_ZN4core6option15Option$LT$T$GT$6unwrap17hb1c08f9ca37aa580E
	movq	%rax, 16(%rsp)
	movq	%rdx, 8(%rsp)
	.loc	6 0 18
	movq	16(%rsp), %rax
	movq	8(%rsp), %rdx
	.loc	6 1246 6 is_stmt 1
	addq	$104, %rsp
	.cfi_def_cfa_offset 8
	retq
.Ltmp38:
.Lfunc_end11:
	.size	_ZN3std6thread18JoinInner$LT$T$GT$4join17h8724fe699d876192E, .Lfunc_end11-_ZN3std6thread18JoinInner$LT$T$GT$4join17h8724fe699d876192E
	.cfi_endproc

	.section	".text._ZN3std6thread19JoinHandle$LT$T$GT$4join17h94786932d8ae21e9E","ax",@progbits
	.p2align	4, 0x90
	.type	_ZN3std6thread19JoinHandle$LT$T$GT$4join17h94786932d8ae21e9E,@function
_ZN3std6thread19JoinHandle$LT$T$GT$4join17h94786932d8ae21e9E:
.Lfunc_begin12:
	.loc	6 1372 0
	.cfi_startproc
	.cfi_personality 155, DW.ref.rust_eh_personality
	.cfi_lsda 27, .Lexception3
	subq	$40, %rsp
	.cfi_def_cfa_offset 48
.Ltmp39:
	movq	%rdi, 16(%rsp)
.Ltmp42:
	.loc	6 1373 9 prologue_end
	callq	_ZN3std6thread18JoinInner$LT$T$GT$4join17h8724fe699d876192E
.Ltmp40:
	movq	%rdx, 8(%rsp)
	movq	%rax, (%rsp)
	jmp	.LBB12_1
.Ltmp43:
.LBB12_1:
	.loc	6 0 9 is_stmt 0
	movq	16(%rsp), %rdi
	.loc	6 1374 5 is_stmt 1
	callq	_ZN4core3ptr13drop_in_place17h4f0cd4e75d1499c3E
.Ltmp44:
	.loc	6 0 5 is_stmt 0
	movq	(%rsp), %rax
	movq	8(%rsp), %rdx
	.loc	6 1374 6
	addq	$40, %rsp
	.cfi_def_cfa_offset 8
	retq
.Ltmp45:
.LBB12_3:
	.cfi_def_cfa_offset 48
	.loc	6 0 6
	movq	16(%rsp), %rdi
	.loc	6 1374 5
	callq	_ZN4core3ptr13drop_in_place17h4f0cd4e75d1499c3E
.Ltmp46:
	.loc	6 1372 5 is_stmt 1
	movq	24(%rsp), %rdi
	callq	_Unwind_Resume@PLT
	ud2
.Ltmp47:
.LBB12_5:
.Ltmp41:
	.loc	6 0 5 is_stmt 0
	movq	%rax, 24(%rsp)
	movl	%edx, 32(%rsp)
	jmp	.LBB12_3
.Lfunc_end12:
	.size	_ZN3std6thread19JoinHandle$LT$T$GT$4join17h94786932d8ae21e9E, .Lfunc_end12-_ZN3std6thread19JoinHandle$LT$T$GT$4join17h94786932d8ae21e9E
	.cfi_endproc
	.section	.gcc_except_table,"a",@progbits
	.p2align	2
GCC_except_table12:
.Lexception3:
	.byte	255
	.byte	255
	.byte	1
	.uleb128 .Lcst_end3-.Lcst_begin3
.Lcst_begin3:
	.uleb128 .Ltmp39-.Lfunc_begin12
	.uleb128 .Ltmp40-.Ltmp39
	.uleb128 .Ltmp41-.Lfunc_begin12
	.byte	0
	.uleb128 .Ltmp40-.Lfunc_begin12
	.uleb128 .Lfunc_end12-.Ltmp40
	.byte	0
	.byte	0
.Lcst_end3:
	.p2align	2

	.section	.text._ZN3std6thread5spawn17h2ced29840d6e66d6E,"ax",@progbits
	.p2align	4, 0x90
	.type	_ZN3std6thread5spawn17h2ced29840d6e66d6E,@function
_ZN3std6thread5spawn17h2ced29840d6e66d6E:
.Lfunc_begin13:
	.loc	6 614 0 is_stmt 1
	.cfi_startproc
	.cfi_personality 155, DW.ref.rust_eh_personality
	.cfi_lsda 27, .Lexception4
	subq	$136, %rsp
	.cfi_def_cfa_offset 144
	movq	%rdi, %rax
	movq	%rsi, 16(%rsp)
	movq	%rdx, 24(%rsp)
.Ltmp55:
	.loc	6 620 5 prologue_end
	movb	$0, 119(%rsp)
	movb	$1, 119(%rsp)
.Ltmp48:
	movq	_ZN3std6thread7Builder3new17h6194af5542382cb4E@GOTPCREL(%rip), %rcx
	leaq	72(%rsp), %rdx
	movq	%rdi, 8(%rsp)
	movq	%rdx, %rdi
	movq	%rax, (%rsp)
	callq	*%rcx
.Ltmp49:
	jmp	.LBB13_1
.LBB13_1:
	.loc	6 620 26 is_stmt 0
	movb	$0, 119(%rsp)
	movq	16(%rsp), %rdx
	movq	24(%rsp), %rcx
.Ltmp50:
	leaq	32(%rsp), %rdi
	leaq	72(%rsp), %rsi
	.loc	6 620 5
	callq	_ZN3std6thread7Builder5spawn17he345922035c9ad99E
.Ltmp51:
	jmp	.LBB13_2
.LBB13_2:
.Ltmp52:
	leaq	.L__unnamed_7(%rip), %rdx
	leaq	.L__unnamed_8(%rip), %r8
	leaq	32(%rsp), %rsi
	movl	$22, %ecx
	movq	8(%rsp), %rdi
	callq	_ZN4core6result19Result$LT$T$C$E$GT$6expect17h06939a9e7e92d764E
.Ltmp53:
	jmp	.LBB13_3
.LBB13_3:
	.loc	6 0 5
	movq	(%rsp), %rax
	.loc	6 621 2 is_stmt 1
	addq	$136, %rsp
	.cfi_def_cfa_offset 8
	retq
.LBB13_4:
	.cfi_def_cfa_offset 144
	.loc	6 614 1
	movq	120(%rsp), %rdi
	callq	_Unwind_Resume@PLT
	ud2
.LBB13_5:
	.loc	6 621 1
	leaq	16(%rsp), %rdi
	callq	_ZN4core3ptr13drop_in_place17heb6952f285b33229E
	jmp	.LBB13_4
.LBB13_6:
	testb	$1, 119(%rsp)
	jne	.LBB13_5
	jmp	.LBB13_4
.Ltmp56:
.LBB13_7:
.Ltmp54:
	.loc	6 0 1 is_stmt 0
	movq	%rax, 120(%rsp)
	movl	%edx, 128(%rsp)
	jmp	.LBB13_6
.Lfunc_end13:
	.size	_ZN3std6thread5spawn17h2ced29840d6e66d6E, .Lfunc_end13-_ZN3std6thread5spawn17h2ced29840d6e66d6E
	.cfi_endproc
	.section	.gcc_except_table,"a",@progbits
	.p2align	2
GCC_except_table13:
.Lexception4:
	.byte	255
	.byte	255
	.byte	1
	.uleb128 .Lcst_end4-.Lcst_begin4
.Lcst_begin4:
	.uleb128 .Ltmp48-.Lfunc_begin13
	.uleb128 .Ltmp53-.Ltmp48
	.uleb128 .Ltmp54-.Lfunc_begin13
	.byte	0
	.uleb128 .Ltmp53-.Lfunc_begin13
	.uleb128 .Lfunc_end13-.Ltmp53
	.byte	0
	.byte	0
.Lcst_end4:
	.p2align	2

	.section	.text._ZN3std6thread5spawn17haad5523bbc5fb793E,"ax",@progbits
	.p2align	4, 0x90
	.type	_ZN3std6thread5spawn17haad5523bbc5fb793E,@function
_ZN3std6thread5spawn17haad5523bbc5fb793E:
.Lfunc_begin14:
	.loc	6 614 0 is_stmt 1
	.cfi_startproc
	.cfi_personality 155, DW.ref.rust_eh_personality
	.cfi_lsda 27, .Lexception5
	subq	$136, %rsp
	.cfi_def_cfa_offset 144
	movq	%rdi, %rax
	movq	%rsi, 16(%rsp)
	movq	%rdx, 24(%rsp)
.Ltmp64:
	.loc	6 620 5 prologue_end
	movb	$0, 119(%rsp)
	movb	$1, 119(%rsp)
.Ltmp57:
	movq	_ZN3std6thread7Builder3new17h6194af5542382cb4E@GOTPCREL(%rip), %rcx
	leaq	72(%rsp), %rdx
	movq	%rdi, 8(%rsp)
	movq	%rdx, %rdi
	movq	%rax, (%rsp)
	callq	*%rcx
.Ltmp58:
	jmp	.LBB14_1
.LBB14_1:
	.loc	6 620 26 is_stmt 0
	movb	$0, 119(%rsp)
	movq	16(%rsp), %rdx
	movq	24(%rsp), %rcx
.Ltmp59:
	leaq	32(%rsp), %rdi
	leaq	72(%rsp), %rsi
	.loc	6 620 5
	callq	_ZN3std6thread7Builder5spawn17h47dfcae6b3c60229E
.Ltmp60:
	jmp	.LBB14_2
.LBB14_2:
.Ltmp61:
	leaq	.L__unnamed_7(%rip), %rdx
	leaq	.L__unnamed_8(%rip), %r8
	leaq	32(%rsp), %rsi
	movl	$22, %ecx
	movq	8(%rsp), %rdi
	callq	_ZN4core6result19Result$LT$T$C$E$GT$6expect17h06939a9e7e92d764E
.Ltmp62:
	jmp	.LBB14_3
.LBB14_3:
	.loc	6 0 5
	movq	(%rsp), %rax
	.loc	6 621 2 is_stmt 1
	addq	$136, %rsp
	.cfi_def_cfa_offset 8
	retq
.LBB14_4:
	.cfi_def_cfa_offset 144
	.loc	6 614 1
	movq	120(%rsp), %rdi
	callq	_Unwind_Resume@PLT
	ud2
.LBB14_5:
	.loc	6 621 1
	leaq	16(%rsp), %rdi
	callq	_ZN4core3ptr13drop_in_place17hc8d62a2512080bd4E
	jmp	.LBB14_4
.LBB14_6:
	testb	$1, 119(%rsp)
	jne	.LBB14_5
	jmp	.LBB14_4
.Ltmp65:
.LBB14_7:
.Ltmp63:
	.loc	6 0 1 is_stmt 0
	movq	%rax, 120(%rsp)
	movl	%edx, 128(%rsp)
	jmp	.LBB14_6
.Lfunc_end14:
	.size	_ZN3std6thread5spawn17haad5523bbc5fb793E, .Lfunc_end14-_ZN3std6thread5spawn17haad5523bbc5fb793E
	.cfi_endproc
	.section	.gcc_except_table,"a",@progbits
	.p2align	2
GCC_except_table14:
.Lexception5:
	.byte	255
	.byte	255
	.byte	1
	.uleb128 .Lcst_end5-.Lcst_begin5
.Lcst_begin5:
	.uleb128 .Ltmp57-.Lfunc_begin14
	.uleb128 .Ltmp62-.Ltmp57
	.uleb128 .Ltmp63-.Lfunc_begin14
	.byte	0
	.uleb128 .Ltmp62-.Lfunc_begin14
	.uleb128 .Lfunc_end14-.Ltmp62
	.byte	0
	.byte	0
.Lcst_end5:
	.p2align	2

	.section	.text._ZN3std6thread7Builder15spawn_unchecked17hcbb816fdd4178615E,"ax",@progbits
	.p2align	4, 0x90
	.type	_ZN3std6thread7Builder15spawn_unchecked17hcbb816fdd4178615E,@function
_ZN3std6thread7Builder15spawn_unchecked17hcbb816fdd4178615E:
.Lfunc_begin15:
	.loc	6 443 0 is_stmt 1
	.cfi_startproc
	.cfi_personality 155, DW.ref.rust_eh_personality
	.cfi_lsda 27, .Lexception6
	subq	$728, %rsp
	.cfi_def_cfa_offset 736
	movq	%rdi, %rax
	movq	%rdx, 112(%rsp)
	movq	%rcx, 120(%rsp)
.Ltmp103:
	.loc	6 449 23 prologue_end
	movb	$0, 643(%rsp)
	movb	$0, 646(%rsp)
	movb	$0, 647(%rsp)
	movb	$0, 642(%rsp)
	movb	$0, 644(%rsp)
	movb	$0, 645(%rsp)
	movb	$1, 647(%rsp)
	movb	$1, 646(%rsp)
	movq	16(%rsi), %rcx
	movq	%rcx, 144(%rsp)
	movups	(%rsi), %xmm0
	movaps	%xmm0, 128(%rsp)
	.loc	6 449 29 is_stmt 0
	movq	24(%rsi), %rcx
	movq	32(%rsi), %rdx
	movq	%rcx, 648(%rsp)
	movq	%rdx, 656(%rsp)
.Ltmp66:
	movq	%rdi, 104(%rsp)
.Ltmp104:
	.loc	6 451 26 is_stmt 1
	movq	%rcx, %rdi
	movq	%rdx, %rsi
.Ltmp105:
	.loc	6 0 26 is_stmt 0
	movq	%rax, 96(%rsp)
	.loc	6 451 26
	callq	_ZN4core6option15Option$LT$T$GT$14unwrap_or_else17h62da26ca85fb0299E
.Ltmp67:
	movq	%rax, 88(%rsp)
	jmp	.LBB15_1
.Ltmp106:
.LBB15_1:
	.loc	6 0 26
	movq	88(%rsp), %rax
	.loc	6 451 26
	movq	%rax, 680(%rsp)
.Ltmp107:
	.loc	6 453 37 is_stmt 1
	movb	$0, 646(%rsp)
	movq	144(%rsp), %rcx
	movq	%rcx, 176(%rsp)
	movaps	128(%rsp), %xmm0
	movaps	%xmm0, 160(%rsp)
.Ltmp68:
	.loc	6 453 25 is_stmt 0
	movq	_ZN3std6thread6Thread3new17h789830631d5c1098E@GOTPCREL(%rip), %rcx
	leaq	160(%rsp), %rdi
	callq	*%rcx
.Ltmp69:
	movq	%rax, 80(%rsp)
	jmp	.LBB15_2
.Ltmp108:
.LBB15_2:
	.loc	6 0 25
	movq	80(%rsp), %rax
	.loc	6 453 25
	movq	%rax, 152(%rsp)
.Ltmp71:
	leaq	152(%rsp), %rdi
.Ltmp109:
	.loc	6 454 28 is_stmt 1
	callq	_ZN58_$LT$std..thread..Thread$u20$as$u20$core..clone..Clone$GT$5clone17h6afaff217b264acaE
.Ltmp72:
	movq	%rax, 72(%rsp)
	jmp	.LBB15_3
.Ltmp110:
.LBB15_3:
	.loc	6 0 28 is_stmt 0
	movq	72(%rsp), %rax
	.loc	6 454 28
	movq	%rax, 184(%rsp)
	.loc	6 454 44
	movb	$1, 645(%rsp)
.Ltmp111:
	.loc	6 456 86 is_stmt 1
	movq	$0, 224(%rsp)
.Ltmp74:
	leaq	200(%rsp), %rdi
	leaq	224(%rsp), %rsi
	.loc	6 456 70 is_stmt 0
	callq	_ZN4core4cell19UnsafeCell$LT$T$GT$3new17hc632cd5af2c35dcbE
.Ltmp75:
	jmp	.LBB15_4
.Ltmp112:
.LBB15_4:
.Ltmp76:
	.loc	6 0 70
	leaq	200(%rsp), %rdi
	.loc	6 456 61
	callq	_ZN5alloc4sync12Arc$LT$T$GT$3new17h69ea42374d830e87E
.Ltmp77:
	movq	%rax, 64(%rsp)
	jmp	.LBB15_5
.Ltmp113:
.LBB15_5:
	.loc	6 0 61
	movq	64(%rsp), %rax
	.loc	6 456 61
	movq	%rax, 192(%rsp)
.Ltmp79:
	leaq	192(%rsp), %rdi
.Ltmp114:
	.loc	6 457 28 is_stmt 1
	callq	_ZN64_$LT$alloc..sync..Arc$LT$T$GT$$u20$as$u20$core..clone..Clone$GT$5clone17h014b6f3bc9a0d536E
.Ltmp80:
	movq	%rax, 56(%rsp)
	jmp	.LBB15_6
.Ltmp115:
.LBB15_6:
	.loc	6 0 28 is_stmt 0
	movq	56(%rsp), %rax
	.loc	6 457 28
	movq	%rax, 248(%rsp)
	.loc	6 457 44
	movb	$1, 644(%rsp)
.Ltmp82:
.Ltmp116:
	.loc	6 459 32 is_stmt 1
	movq	_ZN3std2io5stdio8clone_io17hd8180b7fe8d78870E@GOTPCREL(%rip), %rcx
	leaq	288(%rsp), %rdi
	callq	*%rcx
.Ltmp83:
	jmp	.LBB15_7
.Ltmp117:
.LBB15_7:
	.loc	6 459 14 is_stmt 0
	movb	$1, 643(%rsp)
	movq	288(%rsp), %rax
	movq	296(%rsp), %rcx
	movq	%rax, 256(%rsp)
	movq	%rcx, 264(%rsp)
	.loc	6 459 22
	movb	$1, 642(%rsp)
	movq	304(%rsp), %rax
	movq	312(%rsp), %rcx
	movq	%rax, 272(%rsp)
	movq	%rcx, 280(%rsp)
.Ltmp118:
	.loc	6 461 20 is_stmt 1
	movb	$0, 645(%rsp)
	movb	$0, 643(%rsp)
	movb	$0, 642(%rsp)
	movb	$0, 647(%rsp)
	movb	$0, 644(%rsp)
	movq	184(%rsp), %rax
	movq	%rax, 320(%rsp)
	movq	256(%rsp), %rax
	movq	264(%rsp), %rcx
	movq	%rax, 328(%rsp)
	movq	%rcx, 336(%rsp)
	movq	272(%rsp), %rax
	movq	280(%rsp), %rcx
	movq	%rax, 344(%rsp)
	movq	%rcx, 352(%rsp)
	movq	112(%rsp), %rax
	movq	120(%rsp), %rcx
	movq	%rax, 360(%rsp)
	movq	%rcx, 368(%rsp)
	movq	248(%rsp), %rax
	movq	%rax, 376(%rsp)
.Ltmp119:
	.loc	6 501 34
	movups	320(%rsp), %xmm0
	movups	336(%rsp), %xmm1
	movups	352(%rsp), %xmm2
	movups	368(%rsp), %xmm3
	movaps	%xmm3, 560(%rsp)
	movaps	%xmm2, 544(%rsp)
	movaps	%xmm1, 528(%rsp)
	movaps	%xmm0, 512(%rsp)
.Ltmp85:
	movl	$64, %edi
	movl	$8, %esi
.Ltmp120:
	.file	7 "/rustc/e1884a8e3c3e813aada8254edfa120e85bf5ffca/library/alloc/src/boxed.rs"
	.loc	7 178 9
	callq	_ZN5alloc5alloc15exchange_malloc17hba420bd4248ff78bE
.Ltmp86:
	movq	%rax, 48(%rsp)
	jmp	.LBB15_8
.Ltmp121:
.LBB15_8:
	.loc	7 0 9 is_stmt 0
	movq	48(%rsp), %rax
	.loc	7 178 13
	leaq	512(%rsp), %rcx
	movq	48(%rsp), %rdi
	movq	%rcx, %rsi
	movl	$64, %edx
	movq	%rax, 40(%rsp)
	callq	memcpy@PLT
.Ltmp122:
	.loc	7 0 13
	leaq	.L__unnamed_2(%rip), %rax
	movq	40(%rsp), %rcx
	.loc	6 500 21 is_stmt 1
	movq	%rcx, 688(%rsp)
	movq	%rax, 696(%rsp)
	movq	688(%rsp), %rdx
	movq	696(%rsp), %rcx
	movq	%rdx, 32(%rsp)
	movq	%rcx, 24(%rsp)
.Ltmp123:
.Ltmp87:
	.loc	6 498 22
	movq	_ZN3std3sys4unix6thread6Thread3new17hfa48bd20a6aa58a1E@GOTPCREL(%rip), %rax
	leaq	488(%rsp), %rdi
	movq	88(%rsp), %rsi
	movq	32(%rsp), %rdx
	movq	24(%rsp), %rcx
	callq	*%rax
.Ltmp88:
	jmp	.LBB15_11
.Ltmp124:
.LBB15_11:
.Ltmp89:
	.loc	6 0 22 is_stmt 0
	leaq	464(%rsp), %rdi
	leaq	488(%rsp), %rsi
	.loc	6 498 22
	callq	_ZN73_$LT$core..result..Result$LT$T$C$E$GT$$u20$as$u20$core..ops..try..Try$GT$11into_result17hcdca3f219568f138E
.Ltmp90:
	jmp	.LBB15_12
.Ltmp125:
.LBB15_12:
	.loc	6 503 18 is_stmt 1
	movq	464(%rsp), %rax
	testq	%rax, %rax
	je	.LBB15_13
	jmp	.LBB15_48
.Ltmp126:
.LBB15_48:
	jmp	.LBB15_15
.Ltmp127:
.LBB15_13:
	.loc	6 498 22
	movq	472(%rsp), %rax
	movq	%rax, 720(%rsp)
	.loc	6 498 17 is_stmt 0
	movq	%rax, 456(%rsp)
	movq	$1, 448(%rsp)
	.loc	6 505 21 is_stmt 1
	movq	152(%rsp), %rax
	.loc	6 506 28
	movq	192(%rsp), %rcx
	.loc	6 506 21 is_stmt 0
	movq	%rcx, 632(%rsp)
	.loc	6 483 23 is_stmt 1
	movq	448(%rsp), %rcx
	movq	456(%rsp), %rdx
	movq	%rcx, 416(%rsp)
	movq	%rdx, 424(%rsp)
	movq	%rax, 432(%rsp)
	movq	632(%rsp), %rax
	movq	%rax, 440(%rsp)
	.loc	6 483 12 is_stmt 0
	movq	416(%rsp), %rax
	movq	%rax, 384(%rsp)
	movq	424(%rsp), %rax
	movq	%rax, 392(%rsp)
	movq	432(%rsp), %rax
	movq	%rax, 400(%rsp)
	movq	440(%rsp), %rax
	movq	%rax, 408(%rsp)
	.loc	6 483 9
	movq	384(%rsp), %rax
	movq	104(%rsp), %rcx
	movq	%rax, 8(%rcx)
	movq	392(%rsp), %rax
	movq	%rax, 16(%rcx)
	movq	400(%rsp), %rax
	movq	%rax, 24(%rcx)
	movq	408(%rsp), %rax
	movq	%rax, 32(%rcx)
	movq	$0, (%rcx)
.Ltmp128:
	.loc	6 508 5 is_stmt 1
	movb	$0, 642(%rsp)
	movb	$0, 643(%rsp)
.Ltmp129:
	.loc	6 508 5 is_stmt 0
	movb	$0, 644(%rsp)
.Ltmp130:
	.loc	6 508 5
	movb	$0, 645(%rsp)
.Ltmp131:
	.loc	6 508 5
	movb	$0, 646(%rsp)
	jmp	.LBB15_20
.Ltmp132:
	.cfi_def_cfa_offset 8
	.loc	6 498 22 is_stmt 1
	ud2
.LBB15_15:
	.cfi_def_cfa_offset 736
.Ltmp133:
	.loc	6 503 18
	movups	472(%rsp), %xmm0
	movaps	%xmm0, 576(%rsp)
.Ltmp134:
	.loc	6 503 18 is_stmt 0
	movaps	576(%rsp), %xmm0
	movaps	%xmm0, 608(%rsp)
.Ltmp92:
	leaq	608(%rsp), %rdi
	callq	_ZN50_$LT$T$u20$as$u20$core..convert..From$LT$T$GT$$GT$4from17h730296369a87a614E
.Ltmp93:
	movq	%rdx, 16(%rsp)
	movq	%rax, 8(%rsp)
	jmp	.LBB15_16
.Ltmp135:
.LBB15_16:
	.loc	6 0 18
	movq	8(%rsp), %rax
	.loc	6 503 18
	movq	%rax, 704(%rsp)
	movq	16(%rsp), %rcx
	movq	%rcx, 712(%rsp)
	movups	704(%rsp), %xmm0
	movaps	%xmm0, 592(%rsp)
.Ltmp94:
	leaq	592(%rsp), %rsi
	movq	104(%rsp), %rdi
	.loc	6 498 22 is_stmt 1
	callq	_ZN73_$LT$core..result..Result$LT$T$C$E$GT$$u20$as$u20$core..ops..try..Try$GT$10from_error17hc1009a03f85a3c73E
.Ltmp95:
	jmp	.LBB15_17
.Ltmp136:
.LBB15_17:
	.loc	6 508 5
	movb	$0, 642(%rsp)
	movb	$0, 643(%rsp)
.Ltmp137:
	.loc	6 508 5 is_stmt 0
	movb	$0, 644(%rsp)
.Ltmp97:
	leaq	192(%rsp), %rdi
.Ltmp138:
	.loc	6 508 5
	callq	_ZN4core3ptr13drop_in_place17h4c6d8a95856c7a59E
.Ltmp98:
	jmp	.LBB15_18
.Ltmp139:
.LBB15_18:
	.loc	6 508 5
	movb	$0, 645(%rsp)
.Ltmp100:
	leaq	152(%rsp), %rdi
.Ltmp140:
	.loc	6 508 5
	callq	_ZN4core3ptr13drop_in_place17h008419203b7a330fE
.Ltmp101:
	jmp	.LBB15_19
.Ltmp141:
.LBB15_19:
	.loc	6 508 5
	movb	$0, 646(%rsp)
.Ltmp142:
.LBB15_20:
	.loc	6 0 5
	movq	96(%rsp), %rax
	.loc	6 508 6
	addq	$728, %rsp
	.cfi_def_cfa_offset 8
	retq
.Ltmp143:
.LBB15_21:
	.cfi_def_cfa_offset 736
	.loc	6 508 5
	leaq	192(%rsp), %rdi
	callq	_ZN4core3ptr13drop_in_place17h4c6d8a95856c7a59E
.Ltmp144:
.LBB15_22:
	.loc	6 508 5
	leaq	152(%rsp), %rdi
	callq	_ZN4core3ptr13drop_in_place17h008419203b7a330fE
	jmp	.LBB15_28
.Ltmp145:
.LBB15_23:
	.loc	6 508 5
	testb	$1, 643(%rsp)
	jne	.LBB15_31
	jmp	.LBB15_33
.Ltmp146:
.LBB15_24:
	.loc	6 508 5
	leaq	192(%rsp), %rdi
	callq	_ZN4core3ptr13drop_in_place17h4c6d8a95856c7a59E
	jmp	.LBB15_35
.Ltmp147:
.LBB15_25:
	.loc	6 508 5
	leaq	152(%rsp), %rdi
	callq	_ZN4core3ptr13drop_in_place17h008419203b7a330fE
	jmp	.LBB15_37
.Ltmp148:
.LBB15_26:
	.loc	6 508 5
	testb	$1, 647(%rsp)
	jne	.LBB15_38
.Ltmp149:
.LBB15_27:
	.loc	6 443 5 is_stmt 1
	movq	664(%rsp), %rdi
	callq	_Unwind_Resume@PLT
	ud2
.Ltmp150:
.LBB15_28:
	.loc	6 508 5
	jmp	.LBB15_26
.Ltmp151:
.LBB15_29:
	.loc	6 508 5 is_stmt 0
	leaq	272(%rsp), %rdi
	callq	_ZN4core3ptr13drop_in_place17h429f3068f4270bf0E
	jmp	.LBB15_23
.Ltmp152:
.LBB15_30:
	testb	$1, 642(%rsp)
	jne	.LBB15_29
	jmp	.LBB15_23
.Ltmp153:
.LBB15_31:
	leaq	256(%rsp), %rdi
	callq	_ZN4core3ptr13drop_in_place17h429f3068f4270bf0E
	jmp	.LBB15_33
.Ltmp154:
.LBB15_32:
	.loc	6 508 5
	leaq	248(%rsp), %rdi
	callq	_ZN4core3ptr13drop_in_place17h4c6d8a95856c7a59E
	jmp	.LBB15_24
.Ltmp155:
.LBB15_33:
	testb	$1, 644(%rsp)
	jne	.LBB15_32
	jmp	.LBB15_24
.Ltmp156:
.LBB15_34:
	.loc	6 508 5
	leaq	184(%rsp), %rdi
	callq	_ZN4core3ptr13drop_in_place17h008419203b7a330fE
	jmp	.LBB15_25
.Ltmp157:
.LBB15_35:
	testb	$1, 645(%rsp)
	jne	.LBB15_34
	jmp	.LBB15_25
.Ltmp158:
.LBB15_36:
	.loc	6 508 5
	leaq	128(%rsp), %rdi
	callq	_ZN4core3ptr13drop_in_place17hc1e3b181a827b098E
	jmp	.LBB15_26
.Ltmp159:
.LBB15_37:
	testb	$1, 646(%rsp)
	jne	.LBB15_36
	jmp	.LBB15_26
.Ltmp160:
.LBB15_38:
	leaq	112(%rsp), %rdi
	callq	_ZN4core3ptr13drop_in_place17heb6952f285b33229E
	jmp	.LBB15_27
.Ltmp161:
.LBB15_39:
.Ltmp70:
	.loc	6 0 5
	movq	%rax, 664(%rsp)
	movl	%edx, 672(%rsp)
	jmp	.LBB15_37
.Ltmp162:
.LBB15_40:
.Ltmp73:
	movq	%rax, 664(%rsp)
	movl	%edx, 672(%rsp)
	jmp	.LBB15_25
.Ltmp163:
.LBB15_41:
.Ltmp78:
	movq	%rax, 664(%rsp)
	movl	%edx, 672(%rsp)
	jmp	.LBB15_35
.Ltmp164:
.LBB15_42:
.Ltmp81:
	movq	%rax, 664(%rsp)
	movl	%edx, 672(%rsp)
	jmp	.LBB15_24
.Ltmp165:
.LBB15_43:
.Ltmp84:
	movq	%rax, 664(%rsp)
	movl	%edx, 672(%rsp)
	jmp	.LBB15_33
.Ltmp166:
.LBB15_44:
.Ltmp91:
	movq	%rax, 664(%rsp)
	movl	%edx, 672(%rsp)
	jmp	.LBB15_30
.Ltmp167:
.LBB15_45:
.Ltmp96:
	movq	%rax, 664(%rsp)
	movl	%edx, 672(%rsp)
	jmp	.LBB15_21
.Ltmp168:
.LBB15_46:
.Ltmp99:
	movq	%rax, 664(%rsp)
	movl	%edx, 672(%rsp)
	jmp	.LBB15_22
.Ltmp169:
.LBB15_47:
.Ltmp102:
	movq	%rax, 664(%rsp)
	movl	%edx, 672(%rsp)
	jmp	.LBB15_28
.Lfunc_end15:
	.size	_ZN3std6thread7Builder15spawn_unchecked17hcbb816fdd4178615E, .Lfunc_end15-_ZN3std6thread7Builder15spawn_unchecked17hcbb816fdd4178615E
	.cfi_endproc
	.section	.gcc_except_table,"a",@progbits
	.p2align	2
GCC_except_table15:
.Lexception6:
	.byte	255
	.byte	255
	.byte	1
	.uleb128 .Lcst_end6-.Lcst_begin6
.Lcst_begin6:
	.uleb128 .Ltmp66-.Lfunc_begin15
	.uleb128 .Ltmp69-.Ltmp66
	.uleb128 .Ltmp70-.Lfunc_begin15
	.byte	0
	.uleb128 .Ltmp71-.Lfunc_begin15
	.uleb128 .Ltmp72-.Ltmp71
	.uleb128 .Ltmp73-.Lfunc_begin15
	.byte	0
	.uleb128 .Ltmp74-.Lfunc_begin15
	.uleb128 .Ltmp77-.Ltmp74
	.uleb128 .Ltmp78-.Lfunc_begin15
	.byte	0
	.uleb128 .Ltmp79-.Lfunc_begin15
	.uleb128 .Ltmp80-.Ltmp79
	.uleb128 .Ltmp81-.Lfunc_begin15
	.byte	0
	.uleb128 .Ltmp82-.Lfunc_begin15
	.uleb128 .Ltmp83-.Ltmp82
	.uleb128 .Ltmp84-.Lfunc_begin15
	.byte	0
	.uleb128 .Ltmp85-.Lfunc_begin15
	.uleb128 .Ltmp86-.Ltmp85
	.uleb128 .Ltmp91-.Lfunc_begin15
	.byte	0
	.uleb128 .Ltmp86-.Lfunc_begin15
	.uleb128 .Ltmp87-.Ltmp86
	.byte	0
	.byte	0
	.uleb128 .Ltmp87-.Lfunc_begin15
	.uleb128 .Ltmp90-.Ltmp87
	.uleb128 .Ltmp91-.Lfunc_begin15
	.byte	0
	.uleb128 .Ltmp92-.Lfunc_begin15
	.uleb128 .Ltmp95-.Ltmp92
	.uleb128 .Ltmp96-.Lfunc_begin15
	.byte	0
	.uleb128 .Ltmp97-.Lfunc_begin15
	.uleb128 .Ltmp98-.Ltmp97
	.uleb128 .Ltmp99-.Lfunc_begin15
	.byte	0
	.uleb128 .Ltmp100-.Lfunc_begin15
	.uleb128 .Ltmp101-.Ltmp100
	.uleb128 .Ltmp102-.Lfunc_begin15
	.byte	0
	.uleb128 .Ltmp101-.Lfunc_begin15
	.uleb128 .Lfunc_end15-.Ltmp101
	.byte	0
	.byte	0
.Lcst_end6:
	.p2align	2

	.section	.text._ZN3std6thread7Builder15spawn_unchecked17hdd0c1bbd700cd321E,"ax",@progbits
	.p2align	4, 0x90
	.type	_ZN3std6thread7Builder15spawn_unchecked17hdd0c1bbd700cd321E,@function
_ZN3std6thread7Builder15spawn_unchecked17hdd0c1bbd700cd321E:
.Lfunc_begin16:
	.loc	6 443 0 is_stmt 1
	.cfi_startproc
	.cfi_personality 155, DW.ref.rust_eh_personality
	.cfi_lsda 27, .Lexception7
	subq	$728, %rsp
	.cfi_def_cfa_offset 736
	movq	%rdi, %rax
	movq	%rdx, 112(%rsp)
	movq	%rcx, 120(%rsp)
.Ltmp207:
	.loc	6 449 23 prologue_end
	movb	$0, 643(%rsp)
	movb	$0, 646(%rsp)
	movb	$0, 647(%rsp)
	movb	$0, 642(%rsp)
	movb	$0, 644(%rsp)
	movb	$0, 645(%rsp)
	movb	$1, 647(%rsp)
	movb	$1, 646(%rsp)
	movq	16(%rsi), %rcx
	movq	%rcx, 144(%rsp)
	movups	(%rsi), %xmm0
	movaps	%xmm0, 128(%rsp)
	.loc	6 449 29 is_stmt 0
	movq	24(%rsi), %rcx
	movq	32(%rsi), %rdx
	movq	%rcx, 648(%rsp)
	movq	%rdx, 656(%rsp)
.Ltmp170:
	movq	%rdi, 104(%rsp)
.Ltmp208:
	.loc	6 451 26 is_stmt 1
	movq	%rcx, %rdi
	movq	%rdx, %rsi
.Ltmp209:
	.loc	6 0 26 is_stmt 0
	movq	%rax, 96(%rsp)
	.loc	6 451 26
	callq	_ZN4core6option15Option$LT$T$GT$14unwrap_or_else17h62da26ca85fb0299E
.Ltmp171:
	movq	%rax, 88(%rsp)
	jmp	.LBB16_1
.Ltmp210:
.LBB16_1:
	.loc	6 0 26
	movq	88(%rsp), %rax
	.loc	6 451 26
	movq	%rax, 680(%rsp)
.Ltmp211:
	.loc	6 453 37 is_stmt 1
	movb	$0, 646(%rsp)
	movq	144(%rsp), %rcx
	movq	%rcx, 176(%rsp)
	movaps	128(%rsp), %xmm0
	movaps	%xmm0, 160(%rsp)
.Ltmp172:
	.loc	6 453 25 is_stmt 0
	movq	_ZN3std6thread6Thread3new17h789830631d5c1098E@GOTPCREL(%rip), %rcx
	leaq	160(%rsp), %rdi
	callq	*%rcx
.Ltmp173:
	movq	%rax, 80(%rsp)
	jmp	.LBB16_2
.Ltmp212:
.LBB16_2:
	.loc	6 0 25
	movq	80(%rsp), %rax
	.loc	6 453 25
	movq	%rax, 152(%rsp)
.Ltmp175:
	leaq	152(%rsp), %rdi
.Ltmp213:
	.loc	6 454 28 is_stmt 1
	callq	_ZN58_$LT$std..thread..Thread$u20$as$u20$core..clone..Clone$GT$5clone17h6afaff217b264acaE
.Ltmp176:
	movq	%rax, 72(%rsp)
	jmp	.LBB16_3
.Ltmp214:
.LBB16_3:
	.loc	6 0 28 is_stmt 0
	movq	72(%rsp), %rax
	.loc	6 454 28
	movq	%rax, 184(%rsp)
	.loc	6 454 44
	movb	$1, 645(%rsp)
.Ltmp215:
	.loc	6 456 86 is_stmt 1
	movq	$0, 224(%rsp)
.Ltmp178:
	leaq	200(%rsp), %rdi
	leaq	224(%rsp), %rsi
	.loc	6 456 70 is_stmt 0
	callq	_ZN4core4cell19UnsafeCell$LT$T$GT$3new17hc632cd5af2c35dcbE
.Ltmp179:
	jmp	.LBB16_4
.Ltmp216:
.LBB16_4:
.Ltmp180:
	.loc	6 0 70
	leaq	200(%rsp), %rdi
	.loc	6 456 61
	callq	_ZN5alloc4sync12Arc$LT$T$GT$3new17h69ea42374d830e87E
.Ltmp181:
	movq	%rax, 64(%rsp)
	jmp	.LBB16_5
.Ltmp217:
.LBB16_5:
	.loc	6 0 61
	movq	64(%rsp), %rax
	.loc	6 456 61
	movq	%rax, 192(%rsp)
.Ltmp183:
	leaq	192(%rsp), %rdi
.Ltmp218:
	.loc	6 457 28 is_stmt 1
	callq	_ZN64_$LT$alloc..sync..Arc$LT$T$GT$$u20$as$u20$core..clone..Clone$GT$5clone17h014b6f3bc9a0d536E
.Ltmp184:
	movq	%rax, 56(%rsp)
	jmp	.LBB16_6
.Ltmp219:
.LBB16_6:
	.loc	6 0 28 is_stmt 0
	movq	56(%rsp), %rax
	.loc	6 457 28
	movq	%rax, 248(%rsp)
	.loc	6 457 44
	movb	$1, 644(%rsp)
.Ltmp186:
.Ltmp220:
	.loc	6 459 32 is_stmt 1
	movq	_ZN3std2io5stdio8clone_io17hd8180b7fe8d78870E@GOTPCREL(%rip), %rcx
	leaq	288(%rsp), %rdi
	callq	*%rcx
.Ltmp187:
	jmp	.LBB16_7
.Ltmp221:
.LBB16_7:
	.loc	6 459 14 is_stmt 0
	movb	$1, 643(%rsp)
	movq	288(%rsp), %rax
	movq	296(%rsp), %rcx
	movq	%rax, 256(%rsp)
	movq	%rcx, 264(%rsp)
	.loc	6 459 22
	movb	$1, 642(%rsp)
	movq	304(%rsp), %rax
	movq	312(%rsp), %rcx
	movq	%rax, 272(%rsp)
	movq	%rcx, 280(%rsp)
.Ltmp222:
	.loc	6 461 20 is_stmt 1
	movb	$0, 645(%rsp)
	movb	$0, 643(%rsp)
	movb	$0, 642(%rsp)
	movb	$0, 647(%rsp)
	movb	$0, 644(%rsp)
	movq	184(%rsp), %rax
	movq	%rax, 320(%rsp)
	movq	256(%rsp), %rax
	movq	264(%rsp), %rcx
	movq	%rax, 328(%rsp)
	movq	%rcx, 336(%rsp)
	movq	272(%rsp), %rax
	movq	280(%rsp), %rcx
	movq	%rax, 344(%rsp)
	movq	%rcx, 352(%rsp)
	movq	112(%rsp), %rax
	movq	120(%rsp), %rcx
	movq	%rax, 360(%rsp)
	movq	%rcx, 368(%rsp)
	movq	248(%rsp), %rax
	movq	%rax, 376(%rsp)
.Ltmp223:
	.loc	6 501 34
	movups	320(%rsp), %xmm0
	movups	336(%rsp), %xmm1
	movups	352(%rsp), %xmm2
	movups	368(%rsp), %xmm3
	movaps	%xmm3, 560(%rsp)
	movaps	%xmm2, 544(%rsp)
	movaps	%xmm1, 528(%rsp)
	movaps	%xmm0, 512(%rsp)
.Ltmp189:
	movl	$64, %edi
	movl	$8, %esi
.Ltmp224:
	.loc	7 178 9
	callq	_ZN5alloc5alloc15exchange_malloc17hba420bd4248ff78bE
.Ltmp190:
	movq	%rax, 48(%rsp)
	jmp	.LBB16_8
.Ltmp225:
.LBB16_8:
	.loc	7 0 9 is_stmt 0
	movq	48(%rsp), %rax
	.loc	7 178 13
	leaq	512(%rsp), %rcx
	movq	48(%rsp), %rdi
	movq	%rcx, %rsi
	movl	$64, %edx
	movq	%rax, 40(%rsp)
	callq	memcpy@PLT
.Ltmp226:
	.loc	7 0 13
	leaq	.L__unnamed_3(%rip), %rax
	movq	40(%rsp), %rcx
	.loc	6 500 21 is_stmt 1
	movq	%rcx, 688(%rsp)
	movq	%rax, 696(%rsp)
	movq	688(%rsp), %rdx
	movq	696(%rsp), %rcx
	movq	%rdx, 32(%rsp)
	movq	%rcx, 24(%rsp)
.Ltmp227:
.Ltmp191:
	.loc	6 498 22
	movq	_ZN3std3sys4unix6thread6Thread3new17hfa48bd20a6aa58a1E@GOTPCREL(%rip), %rax
	leaq	488(%rsp), %rdi
	movq	88(%rsp), %rsi
	movq	32(%rsp), %rdx
	movq	24(%rsp), %rcx
	callq	*%rax
.Ltmp192:
	jmp	.LBB16_11
.Ltmp228:
.LBB16_11:
.Ltmp193:
	.loc	6 0 22 is_stmt 0
	leaq	464(%rsp), %rdi
	leaq	488(%rsp), %rsi
	.loc	6 498 22
	callq	_ZN73_$LT$core..result..Result$LT$T$C$E$GT$$u20$as$u20$core..ops..try..Try$GT$11into_result17hcdca3f219568f138E
.Ltmp194:
	jmp	.LBB16_12
.Ltmp229:
.LBB16_12:
	.loc	6 503 18 is_stmt 1
	movq	464(%rsp), %rax
	testq	%rax, %rax
	je	.LBB16_13
	jmp	.LBB16_48
.Ltmp230:
.LBB16_48:
	jmp	.LBB16_15
.Ltmp231:
.LBB16_13:
	.loc	6 498 22
	movq	472(%rsp), %rax
	movq	%rax, 720(%rsp)
	.loc	6 498 17 is_stmt 0
	movq	%rax, 456(%rsp)
	movq	$1, 448(%rsp)
	.loc	6 505 21 is_stmt 1
	movq	152(%rsp), %rax
	.loc	6 506 28
	movq	192(%rsp), %rcx
	.loc	6 506 21 is_stmt 0
	movq	%rcx, 632(%rsp)
	.loc	6 483 23 is_stmt 1
	movq	448(%rsp), %rcx
	movq	456(%rsp), %rdx
	movq	%rcx, 416(%rsp)
	movq	%rdx, 424(%rsp)
	movq	%rax, 432(%rsp)
	movq	632(%rsp), %rax
	movq	%rax, 440(%rsp)
	.loc	6 483 12 is_stmt 0
	movq	416(%rsp), %rax
	movq	%rax, 384(%rsp)
	movq	424(%rsp), %rax
	movq	%rax, 392(%rsp)
	movq	432(%rsp), %rax
	movq	%rax, 400(%rsp)
	movq	440(%rsp), %rax
	movq	%rax, 408(%rsp)
	.loc	6 483 9
	movq	384(%rsp), %rax
	movq	104(%rsp), %rcx
	movq	%rax, 8(%rcx)
	movq	392(%rsp), %rax
	movq	%rax, 16(%rcx)
	movq	400(%rsp), %rax
	movq	%rax, 24(%rcx)
	movq	408(%rsp), %rax
	movq	%rax, 32(%rcx)
	movq	$0, (%rcx)
.Ltmp232:
	.loc	6 508 5 is_stmt 1
	movb	$0, 642(%rsp)
	movb	$0, 643(%rsp)
.Ltmp233:
	.loc	6 508 5 is_stmt 0
	movb	$0, 644(%rsp)
.Ltmp234:
	.loc	6 508 5
	movb	$0, 645(%rsp)
.Ltmp235:
	.loc	6 508 5
	movb	$0, 646(%rsp)
	jmp	.LBB16_20
.Ltmp236:
	.cfi_def_cfa_offset 8
	.loc	6 498 22 is_stmt 1
	ud2
.LBB16_15:
	.cfi_def_cfa_offset 736
.Ltmp237:
	.loc	6 503 18
	movups	472(%rsp), %xmm0
	movaps	%xmm0, 576(%rsp)
.Ltmp238:
	.loc	6 503 18 is_stmt 0
	movaps	576(%rsp), %xmm0
	movaps	%xmm0, 608(%rsp)
.Ltmp196:
	leaq	608(%rsp), %rdi
	callq	_ZN50_$LT$T$u20$as$u20$core..convert..From$LT$T$GT$$GT$4from17h730296369a87a614E
.Ltmp197:
	movq	%rdx, 16(%rsp)
	movq	%rax, 8(%rsp)
	jmp	.LBB16_16
.Ltmp239:
.LBB16_16:
	.loc	6 0 18
	movq	8(%rsp), %rax
	.loc	6 503 18
	movq	%rax, 704(%rsp)
	movq	16(%rsp), %rcx
	movq	%rcx, 712(%rsp)
	movups	704(%rsp), %xmm0
	movaps	%xmm0, 592(%rsp)
.Ltmp198:
	leaq	592(%rsp), %rsi
	movq	104(%rsp), %rdi
	.loc	6 498 22 is_stmt 1
	callq	_ZN73_$LT$core..result..Result$LT$T$C$E$GT$$u20$as$u20$core..ops..try..Try$GT$10from_error17hc1009a03f85a3c73E
.Ltmp199:
	jmp	.LBB16_17
.Ltmp240:
.LBB16_17:
	.loc	6 508 5
	movb	$0, 642(%rsp)
	movb	$0, 643(%rsp)
.Ltmp241:
	.loc	6 508 5 is_stmt 0
	movb	$0, 644(%rsp)
.Ltmp201:
	leaq	192(%rsp), %rdi
.Ltmp242:
	.loc	6 508 5
	callq	_ZN4core3ptr13drop_in_place17h4c6d8a95856c7a59E
.Ltmp202:
	jmp	.LBB16_18
.Ltmp243:
.LBB16_18:
	.loc	6 508 5
	movb	$0, 645(%rsp)
.Ltmp204:
	leaq	152(%rsp), %rdi
.Ltmp244:
	.loc	6 508 5
	callq	_ZN4core3ptr13drop_in_place17h008419203b7a330fE
.Ltmp205:
	jmp	.LBB16_19
.Ltmp245:
.LBB16_19:
	.loc	6 508 5
	movb	$0, 646(%rsp)
.Ltmp246:
.LBB16_20:
	.loc	6 0 5
	movq	96(%rsp), %rax
	.loc	6 508 6
	addq	$728, %rsp
	.cfi_def_cfa_offset 8
	retq
.Ltmp247:
.LBB16_21:
	.cfi_def_cfa_offset 736
	.loc	6 508 5
	leaq	192(%rsp), %rdi
	callq	_ZN4core3ptr13drop_in_place17h4c6d8a95856c7a59E
.Ltmp248:
.LBB16_22:
	.loc	6 508 5
	leaq	152(%rsp), %rdi
	callq	_ZN4core3ptr13drop_in_place17h008419203b7a330fE
	jmp	.LBB16_28
.Ltmp249:
.LBB16_23:
	.loc	6 508 5
	testb	$1, 643(%rsp)
	jne	.LBB16_31
	jmp	.LBB16_33
.Ltmp250:
.LBB16_24:
	.loc	6 508 5
	leaq	192(%rsp), %rdi
	callq	_ZN4core3ptr13drop_in_place17h4c6d8a95856c7a59E
	jmp	.LBB16_35
.Ltmp251:
.LBB16_25:
	.loc	6 508 5
	leaq	152(%rsp), %rdi
	callq	_ZN4core3ptr13drop_in_place17h008419203b7a330fE
	jmp	.LBB16_37
.Ltmp252:
.LBB16_26:
	.loc	6 508 5
	testb	$1, 647(%rsp)
	jne	.LBB16_38
.Ltmp253:
.LBB16_27:
	.loc	6 443 5 is_stmt 1
	movq	664(%rsp), %rdi
	callq	_Unwind_Resume@PLT
	ud2
.Ltmp254:
.LBB16_28:
	.loc	6 508 5
	jmp	.LBB16_26
.Ltmp255:
.LBB16_29:
	.loc	6 508 5 is_stmt 0
	leaq	272(%rsp), %rdi
	callq	_ZN4core3ptr13drop_in_place17h429f3068f4270bf0E
	jmp	.LBB16_23
.Ltmp256:
.LBB16_30:
	testb	$1, 642(%rsp)
	jne	.LBB16_29
	jmp	.LBB16_23
.Ltmp257:
.LBB16_31:
	leaq	256(%rsp), %rdi
	callq	_ZN4core3ptr13drop_in_place17h429f3068f4270bf0E
	jmp	.LBB16_33
.Ltmp258:
.LBB16_32:
	.loc	6 508 5
	leaq	248(%rsp), %rdi
	callq	_ZN4core3ptr13drop_in_place17h4c6d8a95856c7a59E
	jmp	.LBB16_24
.Ltmp259:
.LBB16_33:
	testb	$1, 644(%rsp)
	jne	.LBB16_32
	jmp	.LBB16_24
.Ltmp260:
.LBB16_34:
	.loc	6 508 5
	leaq	184(%rsp), %rdi
	callq	_ZN4core3ptr13drop_in_place17h008419203b7a330fE
	jmp	.LBB16_25
.Ltmp261:
.LBB16_35:
	testb	$1, 645(%rsp)
	jne	.LBB16_34
	jmp	.LBB16_25
.Ltmp262:
.LBB16_36:
	.loc	6 508 5
	leaq	128(%rsp), %rdi
	callq	_ZN4core3ptr13drop_in_place17hc1e3b181a827b098E
	jmp	.LBB16_26
.Ltmp263:
.LBB16_37:
	testb	$1, 646(%rsp)
	jne	.LBB16_36
	jmp	.LBB16_26
.Ltmp264:
.LBB16_38:
	leaq	112(%rsp), %rdi
	callq	_ZN4core3ptr13drop_in_place17hc8d62a2512080bd4E
	jmp	.LBB16_27
.Ltmp265:
.LBB16_39:
.Ltmp174:
	.loc	6 0 5
	movq	%rax, 664(%rsp)
	movl	%edx, 672(%rsp)
	jmp	.LBB16_37
.Ltmp266:
.LBB16_40:
.Ltmp177:
	movq	%rax, 664(%rsp)
	movl	%edx, 672(%rsp)
	jmp	.LBB16_25
.Ltmp267:
.LBB16_41:
.Ltmp182:
	movq	%rax, 664(%rsp)
	movl	%edx, 672(%rsp)
	jmp	.LBB16_35
.Ltmp268:
.LBB16_42:
.Ltmp185:
	movq	%rax, 664(%rsp)
	movl	%edx, 672(%rsp)
	jmp	.LBB16_24
.Ltmp269:
.LBB16_43:
.Ltmp188:
	movq	%rax, 664(%rsp)
	movl	%edx, 672(%rsp)
	jmp	.LBB16_33
.Ltmp270:
.LBB16_44:
.Ltmp195:
	movq	%rax, 664(%rsp)
	movl	%edx, 672(%rsp)
	jmp	.LBB16_30
.Ltmp271:
.LBB16_45:
.Ltmp200:
	movq	%rax, 664(%rsp)
	movl	%edx, 672(%rsp)
	jmp	.LBB16_21
.Ltmp272:
.LBB16_46:
.Ltmp203:
	movq	%rax, 664(%rsp)
	movl	%edx, 672(%rsp)
	jmp	.LBB16_22
.Ltmp273:
.LBB16_47:
.Ltmp206:
	movq	%rax, 664(%rsp)
	movl	%edx, 672(%rsp)
	jmp	.LBB16_28
.Lfunc_end16:
	.size	_ZN3std6thread7Builder15spawn_unchecked17hdd0c1bbd700cd321E, .Lfunc_end16-_ZN3std6thread7Builder15spawn_unchecked17hdd0c1bbd700cd321E
	.cfi_endproc
	.section	.gcc_except_table,"a",@progbits
	.p2align	2
GCC_except_table16:
.Lexception7:
	.byte	255
	.byte	255
	.byte	1
	.uleb128 .Lcst_end7-.Lcst_begin7
.Lcst_begin7:
	.uleb128 .Ltmp170-.Lfunc_begin16
	.uleb128 .Ltmp173-.Ltmp170
	.uleb128 .Ltmp174-.Lfunc_begin16
	.byte	0
	.uleb128 .Ltmp175-.Lfunc_begin16
	.uleb128 .Ltmp176-.Ltmp175
	.uleb128 .Ltmp177-.Lfunc_begin16
	.byte	0
	.uleb128 .Ltmp178-.Lfunc_begin16
	.uleb128 .Ltmp181-.Ltmp178
	.uleb128 .Ltmp182-.Lfunc_begin16
	.byte	0
	.uleb128 .Ltmp183-.Lfunc_begin16
	.uleb128 .Ltmp184-.Ltmp183
	.uleb128 .Ltmp185-.Lfunc_begin16
	.byte	0
	.uleb128 .Ltmp186-.Lfunc_begin16
	.uleb128 .Ltmp187-.Ltmp186
	.uleb128 .Ltmp188-.Lfunc_begin16
	.byte	0
	.uleb128 .Ltmp189-.Lfunc_begin16
	.uleb128 .Ltmp190-.Ltmp189
	.uleb128 .Ltmp195-.Lfunc_begin16
	.byte	0
	.uleb128 .Ltmp190-.Lfunc_begin16
	.uleb128 .Ltmp191-.Ltmp190
	.byte	0
	.byte	0
	.uleb128 .Ltmp191-.Lfunc_begin16
	.uleb128 .Ltmp194-.Ltmp191
	.uleb128 .Ltmp195-.Lfunc_begin16
	.byte	0
	.uleb128 .Ltmp196-.Lfunc_begin16
	.uleb128 .Ltmp199-.Ltmp196
	.uleb128 .Ltmp200-.Lfunc_begin16
	.byte	0
	.uleb128 .Ltmp201-.Lfunc_begin16
	.uleb128 .Ltmp202-.Ltmp201
	.uleb128 .Ltmp203-.Lfunc_begin16
	.byte	0
	.uleb128 .Ltmp204-.Lfunc_begin16
	.uleb128 .Ltmp205-.Ltmp204
	.uleb128 .Ltmp206-.Lfunc_begin16
	.byte	0
	.uleb128 .Ltmp205-.Lfunc_begin16
	.uleb128 .Lfunc_end16-.Ltmp205
	.byte	0
	.byte	0
.Lcst_end7:
	.p2align	2

	.section	".text._ZN3std6thread7Builder15spawn_unchecked28_$u7b$$u7b$closure$u7d$$u7d$17hfcc6f2bc6d5a535cE","ax",@progbits
	.p2align	4, 0x90
	.type	_ZN3std6thread7Builder15spawn_unchecked28_$u7b$$u7b$closure$u7d$$u7d$17hfcc6f2bc6d5a535cE,@function
_ZN3std6thread7Builder15spawn_unchecked28_$u7b$$u7b$closure$u7d$$u7d$17hfcc6f2bc6d5a535cE:
.Lfunc_begin17:
	.loc	6 461 0 is_stmt 1
	.cfi_startproc
	.cfi_personality 155, DW.ref.rust_eh_personality
	.cfi_lsda 27, .Lexception8
	subq	$280, %rsp
	.cfi_def_cfa_offset 288
.Ltmp301:
	.loc	6 462 13 prologue_end
	movb	$0, 228(%rsp)
	movb	$0, 231(%rsp)
	movb	$0, 227(%rsp)
	movb	$0, 229(%rsp)
	movb	$0, 230(%rsp)
	movb	$1, 228(%rsp)
	movb	$1, 229(%rsp)
	movb	$1, 230(%rsp)
	movb	$1, 231(%rsp)
.Ltmp274:
	.loc	6 462 33 is_stmt 0
	movq	_ZN3std6thread6Thread5cname17h1d22449f769293c4E@GOTPCREL(%rip), %rax
	movq	%rdi, 88(%rsp)
.Ltmp302:
	callq	*%rax
.Ltmp275:
	movq	%rdx, 80(%rsp)
	movq	%rax, 72(%rsp)
	jmp	.LBB17_1
.Ltmp303:
.LBB17_1:
	.loc	6 0 33
	xorl	%eax, %eax
	movl	%eax, %ecx
	movq	72(%rsp), %rdx
	.loc	6 462 33
	movq	%rdx, 96(%rsp)
	movq	80(%rsp), %rsi
	movq	%rsi, 104(%rsp)
	.loc	6 462 20
	cmpq	$0, 96(%rsp)
	movl	$1, %edi
	cmoveq	%rcx, %rdi
	cmpq	$1, %rdi
	je	.LBB17_3
.Ltmp304:
	.loc	6 462 13
	jmp	.LBB17_5
.Ltmp305:
.LBB17_3:
	.loc	6 462 25
	movq	96(%rsp), %rax
	movq	104(%rsp), %rcx
	movq	%rax, 248(%rsp)
	movq	%rcx, 256(%rsp)
.Ltmp276:
.Ltmp306:
	.loc	6 463 17 is_stmt 1
	movq	_ZN3std3sys4unix6thread6Thread8set_name17hcb8af76e35a00413E@GOTPCREL(%rip), %rdx
	movq	%rax, %rdi
	movq	%rcx, %rsi
	callq	*%rdx
.Ltmp277:
	jmp	.LBB17_4
.Ltmp307:
.LBB17_4:
	.loc	6 462 13
	jmp	.LBB17_5
.Ltmp308:
.LBB17_5:
	.loc	6 466 34
	movb	$0, 231(%rsp)
	movq	88(%rsp), %rax
	movq	8(%rax), %rdi
	movq	16(%rax), %rsi
.Ltmp278:
	.loc	6 466 13 is_stmt 0
	movq	_ZN3std2io5stdio9set_print17hc4152c8d7d4e9accE@GOTPCREL(%rip), %rcx
	callq	*%rcx
.Ltmp279:
	movq	%rdx, 64(%rsp)
	movq	%rax, 56(%rsp)
	jmp	.LBB17_6
.Ltmp309:
.LBB17_6:
	.loc	6 0 13
	movq	56(%rsp), %rax
	.loc	6 466 13
	movq	%rax, 112(%rsp)
	movq	64(%rsp), %rcx
	movq	%rcx, 120(%rsp)
.Ltmp280:
	leaq	112(%rsp), %rdi
	.loc	6 466 41
	callq	_ZN4core3ptr13drop_in_place17h429f3068f4270bf0E
.Ltmp281:
	jmp	.LBB17_7
.Ltmp310:
.LBB17_7:
	.loc	6 467 34 is_stmt 1
	movb	$0, 230(%rsp)
	movq	88(%rsp), %rax
	movq	24(%rax), %rdi
	movq	32(%rax), %rsi
.Ltmp282:
	.loc	6 467 13 is_stmt 0
	movq	_ZN3std2io5stdio9set_panic17hcf1e5c38cefca0deE@GOTPCREL(%rip), %rcx
	callq	*%rcx
.Ltmp283:
	movq	%rdx, 48(%rsp)
	movq	%rax, 40(%rsp)
	jmp	.LBB17_8
.Ltmp311:
.LBB17_8:
	.loc	6 0 13
	movq	40(%rsp), %rax
	.loc	6 467 13
	movq	%rax, 128(%rsp)
	movq	48(%rsp), %rcx
	movq	%rcx, 136(%rsp)
.Ltmp284:
	leaq	128(%rsp), %rdi
	.loc	6 467 41
	callq	_ZN4core3ptr13drop_in_place17h429f3068f4270bf0E
.Ltmp285:
	jmp	.LBB17_9
.Ltmp312:
.LBB17_9:
.Ltmp286:
	.loc	6 472 39 is_stmt 1
	movq	_ZN3std3sys4unix6thread5guard7current17h1cade2fb3866dbc6E@GOTPCREL(%rip), %rax
	leaq	144(%rsp), %rdi
	callq	*%rax
.Ltmp287:
	jmp	.LBB17_10
.Ltmp313:
.LBB17_10:
	.loc	6 472 64 is_stmt 0
	movb	$0, 229(%rsp)
	movq	88(%rsp), %rax
	movq	(%rax), %rsi
.Ltmp288:
	.loc	6 472 13
	movq	_ZN3std10sys_common11thread_info3set17hb1c900a8eba5ed39E@GOTPCREL(%rip), %rcx
	leaq	144(%rsp), %rdi
	callq	*%rcx
.Ltmp289:
	jmp	.LBB17_11
.Ltmp314:
.LBB17_11:
	.loc	6 473 74 is_stmt 1
	movb	$0, 228(%rsp)
	movq	88(%rsp), %rax
	movq	40(%rax), %rcx
	movq	48(%rax), %rdx
	movq	%rcx, 184(%rsp)
	movq	%rdx, 192(%rsp)
	.loc	6 473 50 is_stmt 0
	movq	184(%rsp), %rcx
	movq	192(%rsp), %rdx
	movq	%rcx, 168(%rsp)
	movq	%rdx, 176(%rsp)
	.loc	6 473 30
	movq	168(%rsp), %rdi
	movq	176(%rsp), %rsi
.Ltmp290:
	callq	_ZN3std5panic12catch_unwind17hf05448ecceea234aE
.Ltmp291:
	movq	%rdx, 32(%rsp)
	movq	%rax, 24(%rsp)
	jmp	.LBB17_12
.Ltmp315:
.LBB17_12:
	.loc	6 0 30
	movq	24(%rsp), %rax
	.loc	6 473 30
	movq	%rax, 264(%rsp)
	movq	32(%rsp), %rcx
	movq	%rcx, 272(%rsp)
.Ltmp316:
	.loc	6 480 44 is_stmt 1
	movb	$1, 227(%rsp)
	movq	%rax, 208(%rsp)
	movq	%rcx, 216(%rsp)
	movq	$1, 200(%rsp)
	movq	88(%rsp), %rdx
	.loc	6 480 23 is_stmt 0
	addq	$56, %rdx
.Ltmp293:
	movq	%rdx, %rdi
	callq	_ZN69_$LT$alloc..sync..Arc$LT$T$GT$$u20$as$u20$core..ops..deref..Deref$GT$5deref17h5051a4280b5b290eE
.Ltmp294:
	movq	%rax, 16(%rsp)
	jmp	.LBB17_13
.Ltmp317:
.LBB17_13:
.Ltmp295:
	.loc	6 0 23
	movq	16(%rsp), %rdi
	.loc	6 480 23
	callq	_ZN4core4cell19UnsafeCell$LT$T$GT$3get17h1cebdd43157a95e5E
.Ltmp296:
	movq	%rax, 8(%rsp)
	jmp	.LBB17_14
.Ltmp318:
.LBB17_14:
	.loc	6 480 22
	movb	$0, 227(%rsp)
.Ltmp298:
	movq	8(%rsp), %rdi
	callq	_ZN4core3ptr13drop_in_place17h6db327b662b53bfcE
.Ltmp299:
	jmp	.LBB17_17
.Ltmp319:
.LBB17_15:
	.loc	6 461 20 is_stmt 1
	movq	232(%rsp), %rdi
	callq	_Unwind_Resume@PLT
	ud2
.Ltmp320:
.LBB17_16:
	.loc	6 480 22
	movq	200(%rsp), %rax
	movq	8(%rsp), %rcx
	movq	%rax, (%rcx)
	movq	208(%rsp), %rax
	movq	%rax, 8(%rcx)
	movq	216(%rsp), %rax
	movq	%rax, 16(%rcx)
	jmp	.LBB17_20
.Ltmp321:
.LBB17_17:
	movq	200(%rsp), %rax
	movq	8(%rsp), %rcx
	movq	%rax, (%rcx)
	movq	208(%rsp), %rax
	movq	%rax, 8(%rcx)
	movq	216(%rsp), %rax
	movq	%rax, 16(%rcx)
	.loc	6 480 59 is_stmt 0
	movb	$0, 227(%rsp)
	movq	88(%rsp), %rax
.Ltmp322:
	.loc	6 481 9 is_stmt 1
	addq	$56, %rax
	movq	%rax, %rdi
	callq	_ZN4core3ptr13drop_in_place17h4c6d8a95856c7a59E
.Ltmp323:
	.loc	6 481 10 is_stmt 0
	addq	$280, %rsp
	.cfi_def_cfa_offset 8
	retq
.Ltmp324:
.LBB17_19:
	.cfi_def_cfa_offset 288
	.loc	6 480 59 is_stmt 1
	leaq	200(%rsp), %rdi
	callq	_ZN4core3ptr13drop_in_place17h6db327b662b53bfcE
	jmp	.LBB17_29
.Ltmp325:
.LBB17_20:
	testb	$1, 227(%rsp)
	jne	.LBB17_19
	jmp	.LBB17_29
.Ltmp326:
.LBB17_21:
	.loc	6 0 59 is_stmt 0
	movq	88(%rsp), %rax
	.loc	6 481 9 is_stmt 1
	addq	$56, %rax
	movq	%rax, %rdi
	callq	_ZN4core3ptr13drop_in_place17h4c6d8a95856c7a59E
	jmp	.LBB17_15
.Ltmp327:
.LBB17_22:
	testb	$1, 228(%rsp)
	je	.LBB17_21
.Ltmp328:
	.loc	6 0 9 is_stmt 0
	movq	88(%rsp), %rax
	.loc	6 481 9
	addq	$40, %rax
	movq	%rax, %rdi
	callq	_ZN4core3ptr13drop_in_place17hc8d62a2512080bd4E
	jmp	.LBB17_21
.Ltmp329:
.LBB17_24:
	testb	$1, 230(%rsp)
	je	.LBB17_22
.Ltmp330:
	.loc	6 0 9
	movq	88(%rsp), %rax
	.loc	6 481 9
	addq	$24, %rax
	movq	%rax, %rdi
	callq	_ZN4core3ptr13drop_in_place17h429f3068f4270bf0E
	jmp	.LBB17_22
.Ltmp331:
.LBB17_26:
	testb	$1, 231(%rsp)
	je	.LBB17_24
.Ltmp332:
	.loc	6 0 9
	movq	88(%rsp), %rax
	.loc	6 481 9
	addq	$8, %rax
	movq	%rax, %rdi
	callq	_ZN4core3ptr13drop_in_place17h429f3068f4270bf0E
	jmp	.LBB17_24
.Ltmp333:
.LBB17_28:
	.loc	6 0 9
	movq	88(%rsp), %rax
	.loc	6 481 9
	movq	%rax, %rdi
	callq	_ZN4core3ptr13drop_in_place17h008419203b7a330fE
	jmp	.LBB17_26
.Ltmp334:
.LBB17_29:
	testb	$1, 229(%rsp)
	jne	.LBB17_28
	jmp	.LBB17_26
.Ltmp335:
.LBB17_30:
.Ltmp292:
	.loc	6 0 9
	movq	%rax, 232(%rsp)
	movl	%edx, 240(%rsp)
	jmp	.LBB17_29
.Ltmp336:
.LBB17_31:
.Ltmp297:
	movq	%rax, 232(%rsp)
	movl	%edx, 240(%rsp)
	jmp	.LBB17_20
.Ltmp337:
.LBB17_32:
.Ltmp300:
	movq	%rax, 232(%rsp)
	movl	%edx, 240(%rsp)
	jmp	.LBB17_16
.Lfunc_end17:
	.size	_ZN3std6thread7Builder15spawn_unchecked28_$u7b$$u7b$closure$u7d$$u7d$17hfcc6f2bc6d5a535cE, .Lfunc_end17-_ZN3std6thread7Builder15spawn_unchecked28_$u7b$$u7b$closure$u7d$$u7d$17hfcc6f2bc6d5a535cE
	.cfi_endproc
	.section	.gcc_except_table,"a",@progbits
	.p2align	2
GCC_except_table17:
.Lexception8:
	.byte	255
	.byte	255
	.byte	1
	.uleb128 .Lcst_end8-.Lcst_begin8
.Lcst_begin8:
	.uleb128 .Ltmp274-.Lfunc_begin17
	.uleb128 .Ltmp291-.Ltmp274
	.uleb128 .Ltmp292-.Lfunc_begin17
	.byte	0
	.uleb128 .Ltmp293-.Lfunc_begin17
	.uleb128 .Ltmp296-.Ltmp293
	.uleb128 .Ltmp297-.Lfunc_begin17
	.byte	0
	.uleb128 .Ltmp298-.Lfunc_begin17
	.uleb128 .Ltmp299-.Ltmp298
	.uleb128 .Ltmp300-.Lfunc_begin17
	.byte	0
	.uleb128 .Ltmp299-.Lfunc_begin17
	.uleb128 .Lfunc_end17-.Ltmp299
	.byte	0
	.byte	0
.Lcst_end8:
	.p2align	2

	.section	".text._ZN3std6thread7Builder15spawn_unchecked28_$u7b$$u7b$closure$u7d$$u7d$17hfdd23d8a72510032E","ax",@progbits
	.p2align	4, 0x90
	.type	_ZN3std6thread7Builder15spawn_unchecked28_$u7b$$u7b$closure$u7d$$u7d$17hfdd23d8a72510032E,@function
_ZN3std6thread7Builder15spawn_unchecked28_$u7b$$u7b$closure$u7d$$u7d$17hfdd23d8a72510032E:
.Lfunc_begin18:
	.loc	6 461 0 is_stmt 1
	.cfi_startproc
	.cfi_personality 155, DW.ref.rust_eh_personality
	.cfi_lsda 27, .Lexception9
	subq	$280, %rsp
	.cfi_def_cfa_offset 288
.Ltmp365:
	.loc	6 462 13 prologue_end
	movb	$0, 228(%rsp)
	movb	$0, 231(%rsp)
	movb	$0, 227(%rsp)
	movb	$0, 229(%rsp)
	movb	$0, 230(%rsp)
	movb	$1, 228(%rsp)
	movb	$1, 229(%rsp)
	movb	$1, 230(%rsp)
	movb	$1, 231(%rsp)
.Ltmp338:
	.loc	6 462 33 is_stmt 0
	movq	_ZN3std6thread6Thread5cname17h1d22449f769293c4E@GOTPCREL(%rip), %rax
	movq	%rdi, 88(%rsp)
.Ltmp366:
	callq	*%rax
.Ltmp339:
	movq	%rdx, 80(%rsp)
	movq	%rax, 72(%rsp)
	jmp	.LBB18_1
.Ltmp367:
.LBB18_1:
	.loc	6 0 33
	xorl	%eax, %eax
	movl	%eax, %ecx
	movq	72(%rsp), %rdx
	.loc	6 462 33
	movq	%rdx, 96(%rsp)
	movq	80(%rsp), %rsi
	movq	%rsi, 104(%rsp)
	.loc	6 462 20
	cmpq	$0, 96(%rsp)
	movl	$1, %edi
	cmoveq	%rcx, %rdi
	cmpq	$1, %rdi
	je	.LBB18_3
.Ltmp368:
	.loc	6 462 13
	jmp	.LBB18_5
.Ltmp369:
.LBB18_3:
	.loc	6 462 25
	movq	96(%rsp), %rax
	movq	104(%rsp), %rcx
	movq	%rax, 248(%rsp)
	movq	%rcx, 256(%rsp)
.Ltmp340:
.Ltmp370:
	.loc	6 463 17 is_stmt 1
	movq	_ZN3std3sys4unix6thread6Thread8set_name17hcb8af76e35a00413E@GOTPCREL(%rip), %rdx
	movq	%rax, %rdi
	movq	%rcx, %rsi
	callq	*%rdx
.Ltmp341:
	jmp	.LBB18_4
.Ltmp371:
.LBB18_4:
	.loc	6 462 13
	jmp	.LBB18_5
.Ltmp372:
.LBB18_5:
	.loc	6 466 34
	movb	$0, 231(%rsp)
	movq	88(%rsp), %rax
	movq	8(%rax), %rdi
	movq	16(%rax), %rsi
.Ltmp342:
	.loc	6 466 13 is_stmt 0
	movq	_ZN3std2io5stdio9set_print17hc4152c8d7d4e9accE@GOTPCREL(%rip), %rcx
	callq	*%rcx
.Ltmp343:
	movq	%rdx, 64(%rsp)
	movq	%rax, 56(%rsp)
	jmp	.LBB18_6
.Ltmp373:
.LBB18_6:
	.loc	6 0 13
	movq	56(%rsp), %rax
	.loc	6 466 13
	movq	%rax, 112(%rsp)
	movq	64(%rsp), %rcx
	movq	%rcx, 120(%rsp)
.Ltmp344:
	leaq	112(%rsp), %rdi
	.loc	6 466 41
	callq	_ZN4core3ptr13drop_in_place17h429f3068f4270bf0E
.Ltmp345:
	jmp	.LBB18_7
.Ltmp374:
.LBB18_7:
	.loc	6 467 34 is_stmt 1
	movb	$0, 230(%rsp)
	movq	88(%rsp), %rax
	movq	24(%rax), %rdi
	movq	32(%rax), %rsi
.Ltmp346:
	.loc	6 467 13 is_stmt 0
	movq	_ZN3std2io5stdio9set_panic17hcf1e5c38cefca0deE@GOTPCREL(%rip), %rcx
	callq	*%rcx
.Ltmp347:
	movq	%rdx, 48(%rsp)
	movq	%rax, 40(%rsp)
	jmp	.LBB18_8
.Ltmp375:
.LBB18_8:
	.loc	6 0 13
	movq	40(%rsp), %rax
	.loc	6 467 13
	movq	%rax, 128(%rsp)
	movq	48(%rsp), %rcx
	movq	%rcx, 136(%rsp)
.Ltmp348:
	leaq	128(%rsp), %rdi
	.loc	6 467 41
	callq	_ZN4core3ptr13drop_in_place17h429f3068f4270bf0E
.Ltmp349:
	jmp	.LBB18_9
.Ltmp376:
.LBB18_9:
.Ltmp350:
	.loc	6 472 39 is_stmt 1
	movq	_ZN3std3sys4unix6thread5guard7current17h1cade2fb3866dbc6E@GOTPCREL(%rip), %rax
	leaq	144(%rsp), %rdi
	callq	*%rax
.Ltmp351:
	jmp	.LBB18_10
.Ltmp377:
.LBB18_10:
	.loc	6 472 64 is_stmt 0
	movb	$0, 229(%rsp)
	movq	88(%rsp), %rax
	movq	(%rax), %rsi
.Ltmp352:
	.loc	6 472 13
	movq	_ZN3std10sys_common11thread_info3set17hb1c900a8eba5ed39E@GOTPCREL(%rip), %rcx
	leaq	144(%rsp), %rdi
	callq	*%rcx
.Ltmp353:
	jmp	.LBB18_11
.Ltmp378:
.LBB18_11:
	.loc	6 473 74 is_stmt 1
	movb	$0, 228(%rsp)
	movq	88(%rsp), %rax
	movq	40(%rax), %rcx
	movq	48(%rax), %rdx
	movq	%rcx, 184(%rsp)
	movq	%rdx, 192(%rsp)
	.loc	6 473 50 is_stmt 0
	movq	184(%rsp), %rcx
	movq	192(%rsp), %rdx
	movq	%rcx, 168(%rsp)
	movq	%rdx, 176(%rsp)
	.loc	6 473 30
	movq	168(%rsp), %rdi
	movq	176(%rsp), %rsi
.Ltmp354:
	callq	_ZN3std5panic12catch_unwind17h7f5deec13d1cb518E
.Ltmp355:
	movq	%rdx, 32(%rsp)
	movq	%rax, 24(%rsp)
	jmp	.LBB18_12
.Ltmp379:
.LBB18_12:
	.loc	6 0 30
	movq	24(%rsp), %rax
	.loc	6 473 30
	movq	%rax, 264(%rsp)
	movq	32(%rsp), %rcx
	movq	%rcx, 272(%rsp)
.Ltmp380:
	.loc	6 480 44 is_stmt 1
	movb	$1, 227(%rsp)
	movq	%rax, 208(%rsp)
	movq	%rcx, 216(%rsp)
	movq	$1, 200(%rsp)
	movq	88(%rsp), %rdx
	.loc	6 480 23 is_stmt 0
	addq	$56, %rdx
.Ltmp357:
	movq	%rdx, %rdi
	callq	_ZN69_$LT$alloc..sync..Arc$LT$T$GT$$u20$as$u20$core..ops..deref..Deref$GT$5deref17h5051a4280b5b290eE
.Ltmp358:
	movq	%rax, 16(%rsp)
	jmp	.LBB18_13
.Ltmp381:
.LBB18_13:
.Ltmp359:
	.loc	6 0 23
	movq	16(%rsp), %rdi
	.loc	6 480 23
	callq	_ZN4core4cell19UnsafeCell$LT$T$GT$3get17h1cebdd43157a95e5E
.Ltmp360:
	movq	%rax, 8(%rsp)
	jmp	.LBB18_14
.Ltmp382:
.LBB18_14:
	.loc	6 480 22
	movb	$0, 227(%rsp)
.Ltmp362:
	movq	8(%rsp), %rdi
	callq	_ZN4core3ptr13drop_in_place17h6db327b662b53bfcE
.Ltmp363:
	jmp	.LBB18_17
.Ltmp383:
.LBB18_15:
	.loc	6 461 20 is_stmt 1
	movq	232(%rsp), %rdi
	callq	_Unwind_Resume@PLT
	ud2
.Ltmp384:
.LBB18_16:
	.loc	6 480 22
	movq	200(%rsp), %rax
	movq	8(%rsp), %rcx
	movq	%rax, (%rcx)
	movq	208(%rsp), %rax
	movq	%rax, 8(%rcx)
	movq	216(%rsp), %rax
	movq	%rax, 16(%rcx)
	jmp	.LBB18_20
.Ltmp385:
.LBB18_17:
	movq	200(%rsp), %rax
	movq	8(%rsp), %rcx
	movq	%rax, (%rcx)
	movq	208(%rsp), %rax
	movq	%rax, 8(%rcx)
	movq	216(%rsp), %rax
	movq	%rax, 16(%rcx)
	.loc	6 480 59 is_stmt 0
	movb	$0, 227(%rsp)
	movq	88(%rsp), %rax
.Ltmp386:
	.loc	6 481 9 is_stmt 1
	addq	$56, %rax
	movq	%rax, %rdi
	callq	_ZN4core3ptr13drop_in_place17h4c6d8a95856c7a59E
.Ltmp387:
	.loc	6 481 10 is_stmt 0
	addq	$280, %rsp
	.cfi_def_cfa_offset 8
	retq
.Ltmp388:
.LBB18_19:
	.cfi_def_cfa_offset 288
	.loc	6 480 59 is_stmt 1
	leaq	200(%rsp), %rdi
	callq	_ZN4core3ptr13drop_in_place17h6db327b662b53bfcE
	jmp	.LBB18_29
.Ltmp389:
.LBB18_20:
	testb	$1, 227(%rsp)
	jne	.LBB18_19
	jmp	.LBB18_29
.Ltmp390:
.LBB18_21:
	.loc	6 0 59 is_stmt 0
	movq	88(%rsp), %rax
	.loc	6 481 9 is_stmt 1
	addq	$56, %rax
	movq	%rax, %rdi
	callq	_ZN4core3ptr13drop_in_place17h4c6d8a95856c7a59E
	jmp	.LBB18_15
.Ltmp391:
.LBB18_22:
	testb	$1, 228(%rsp)
	je	.LBB18_21
.Ltmp392:
	.loc	6 0 9 is_stmt 0
	movq	88(%rsp), %rax
	.loc	6 481 9
	addq	$40, %rax
	movq	%rax, %rdi
	callq	_ZN4core3ptr13drop_in_place17heb6952f285b33229E
	jmp	.LBB18_21
.Ltmp393:
.LBB18_24:
	testb	$1, 230(%rsp)
	je	.LBB18_22
.Ltmp394:
	.loc	6 0 9
	movq	88(%rsp), %rax
	.loc	6 481 9
	addq	$24, %rax
	movq	%rax, %rdi
	callq	_ZN4core3ptr13drop_in_place17h429f3068f4270bf0E
	jmp	.LBB18_22
.Ltmp395:
.LBB18_26:
	testb	$1, 231(%rsp)
	je	.LBB18_24
.Ltmp396:
	.loc	6 0 9
	movq	88(%rsp), %rax
	.loc	6 481 9
	addq	$8, %rax
	movq	%rax, %rdi
	callq	_ZN4core3ptr13drop_in_place17h429f3068f4270bf0E
	jmp	.LBB18_24
.Ltmp397:
.LBB18_28:
	.loc	6 0 9
	movq	88(%rsp), %rax
	.loc	6 481 9
	movq	%rax, %rdi
	callq	_ZN4core3ptr13drop_in_place17h008419203b7a330fE
	jmp	.LBB18_26
.Ltmp398:
.LBB18_29:
	testb	$1, 229(%rsp)
	jne	.LBB18_28
	jmp	.LBB18_26
.Ltmp399:
.LBB18_30:
.Ltmp356:
	.loc	6 0 9
	movq	%rax, 232(%rsp)
	movl	%edx, 240(%rsp)
	jmp	.LBB18_29
.Ltmp400:
.LBB18_31:
.Ltmp361:
	movq	%rax, 232(%rsp)
	movl	%edx, 240(%rsp)
	jmp	.LBB18_20
.Ltmp401:
.LBB18_32:
.Ltmp364:
	movq	%rax, 232(%rsp)
	movl	%edx, 240(%rsp)
	jmp	.LBB18_16
.Lfunc_end18:
	.size	_ZN3std6thread7Builder15spawn_unchecked28_$u7b$$u7b$closure$u7d$$u7d$17hfdd23d8a72510032E, .Lfunc_end18-_ZN3std6thread7Builder15spawn_unchecked28_$u7b$$u7b$closure$u7d$$u7d$17hfdd23d8a72510032E
	.cfi_endproc
	.section	.gcc_except_table,"a",@progbits
	.p2align	2
GCC_except_table18:
.Lexception9:
	.byte	255
	.byte	255
	.byte	1
	.uleb128 .Lcst_end9-.Lcst_begin9
.Lcst_begin9:
	.uleb128 .Ltmp338-.Lfunc_begin18
	.uleb128 .Ltmp355-.Ltmp338
	.uleb128 .Ltmp356-.Lfunc_begin18
	.byte	0
	.uleb128 .Ltmp357-.Lfunc_begin18
	.uleb128 .Ltmp360-.Ltmp357
	.uleb128 .Ltmp361-.Lfunc_begin18
	.byte	0
	.uleb128 .Ltmp362-.Lfunc_begin18
	.uleb128 .Ltmp363-.Ltmp362
	.uleb128 .Ltmp364-.Lfunc_begin18
	.byte	0
	.uleb128 .Ltmp363-.Lfunc_begin18
	.uleb128 .Lfunc_end18-.Ltmp363
	.byte	0
	.byte	0
.Lcst_end9:
	.p2align	2

	.section	".text._ZN3std6thread7Builder15spawn_unchecked28_$u7b$$u7b$closure$u7d$$u7d$28_$u7b$$u7b$closure$u7d$$u7d$17he47b10ae0769d26bE","ax",@progbits
	.p2align	4, 0x90
	.type	_ZN3std6thread7Builder15spawn_unchecked28_$u7b$$u7b$closure$u7d$$u7d$28_$u7b$$u7b$closure$u7d$$u7d$17he47b10ae0769d26bE,@function
_ZN3std6thread7Builder15spawn_unchecked28_$u7b$$u7b$closure$u7d$$u7d$28_$u7b$$u7b$closure$u7d$$u7d$17he47b10ae0769d26bE:
.Lfunc_begin19:
	.loc	6 473 0 is_stmt 1
	.cfi_startproc
	subq	$24, %rsp
	.cfi_def_cfa_offset 32
	movq	%rdi, 8(%rsp)
	movq	%rsi, 16(%rsp)
.Ltmp402:
	.loc	6 474 17 prologue_end
	callq	_ZN3std10sys_common9backtrace28__rust_begin_short_backtrace17he65691f7ad0a62abE
	.loc	6 475 14
	addq	$24, %rsp
	.cfi_def_cfa_offset 8
	retq
.Ltmp403:
.Lfunc_end19:
	.size	_ZN3std6thread7Builder15spawn_unchecked28_$u7b$$u7b$closure$u7d$$u7d$28_$u7b$$u7b$closure$u7d$$u7d$17he47b10ae0769d26bE, .Lfunc_end19-_ZN3std6thread7Builder15spawn_unchecked28_$u7b$$u7b$closure$u7d$$u7d$28_$u7b$$u7b$closure$u7d$$u7d$17he47b10ae0769d26bE
	.cfi_endproc

	.section	".text._ZN3std6thread7Builder15spawn_unchecked28_$u7b$$u7b$closure$u7d$$u7d$28_$u7b$$u7b$closure$u7d$$u7d$17hff9a6facaa0652b9E","ax",@progbits
	.p2align	4, 0x90
	.type	_ZN3std6thread7Builder15spawn_unchecked28_$u7b$$u7b$closure$u7d$$u7d$28_$u7b$$u7b$closure$u7d$$u7d$17hff9a6facaa0652b9E,@function
_ZN3std6thread7Builder15spawn_unchecked28_$u7b$$u7b$closure$u7d$$u7d$28_$u7b$$u7b$closure$u7d$$u7d$17hff9a6facaa0652b9E:
.Lfunc_begin20:
	.loc	6 473 0
	.cfi_startproc
	subq	$24, %rsp
	.cfi_def_cfa_offset 32
	movq	%rdi, 8(%rsp)
	movq	%rsi, 16(%rsp)
.Ltmp404:
	.loc	6 474 17 prologue_end
	callq	_ZN3std10sys_common9backtrace28__rust_begin_short_backtrace17h07a9344685f06275E
	.loc	6 475 14
	addq	$24, %rsp
	.cfi_def_cfa_offset 8
	retq
.Ltmp405:
.Lfunc_end20:
	.size	_ZN3std6thread7Builder15spawn_unchecked28_$u7b$$u7b$closure$u7d$$u7d$28_$u7b$$u7b$closure$u7d$$u7d$17hff9a6facaa0652b9E, .Lfunc_end20-_ZN3std6thread7Builder15spawn_unchecked28_$u7b$$u7b$closure$u7d$$u7d$28_$u7b$$u7b$closure$u7d$$u7d$17hff9a6facaa0652b9E
	.cfi_endproc

	.section	.text._ZN3std6thread7Builder5spawn17h47dfcae6b3c60229E,"ax",@progbits
	.p2align	4, 0x90
	.type	_ZN3std6thread7Builder5spawn17h47dfcae6b3c60229E,@function
_ZN3std6thread7Builder5spawn17h47dfcae6b3c60229E:
.Lfunc_begin21:
	.loc	6 375 0
	.cfi_startproc
	subq	$104, %rsp
	.cfi_def_cfa_offset 112
	movq	%rdi, %rax
.Ltmp406:
	movq	%rdx, 88(%rsp)
	movq	%rcx, 96(%rsp)
.Ltmp407:
	.loc	6 381 18 prologue_end
	leaq	48(%rsp), %r8
	movq	%r8, %r9
	movq	%rdi, 40(%rsp)
	movq	%r9, %rdi
	movl	$40, %r9d
	movq	%rdx, 32(%rsp)
	movq	%r9, %rdx
	movq	%rcx, 24(%rsp)
	movq	%rax, 16(%rsp)
	movq	%r8, 8(%rsp)
	callq	memcpy@PLT
.Ltmp408:
	.loc	6 0 18 is_stmt 0
	movq	40(%rsp), %rdi
	movq	8(%rsp), %rsi
	movq	32(%rsp), %rdx
	movq	24(%rsp), %rcx
	.loc	6 381 18
	callq	_ZN3std6thread7Builder15spawn_unchecked17hdd0c1bbd700cd321E
.Ltmp409:
	.loc	6 0 18
	movq	16(%rsp), %rax
	.loc	6 382 6 is_stmt 1
	addq	$104, %rsp
	.cfi_def_cfa_offset 8
	retq
.Ltmp410:
.Lfunc_end21:
	.size	_ZN3std6thread7Builder5spawn17h47dfcae6b3c60229E, .Lfunc_end21-_ZN3std6thread7Builder5spawn17h47dfcae6b3c60229E
	.cfi_endproc

	.section	.text._ZN3std6thread7Builder5spawn17he345922035c9ad99E,"ax",@progbits
	.p2align	4, 0x90
	.type	_ZN3std6thread7Builder5spawn17he345922035c9ad99E,@function
_ZN3std6thread7Builder5spawn17he345922035c9ad99E:
.Lfunc_begin22:
	.loc	6 375 0
	.cfi_startproc
	subq	$104, %rsp
	.cfi_def_cfa_offset 112
	movq	%rdi, %rax
.Ltmp411:
	movq	%rdx, 88(%rsp)
	movq	%rcx, 96(%rsp)
.Ltmp412:
	.loc	6 381 18 prologue_end
	leaq	48(%rsp), %r8
	movq	%r8, %r9
	movq	%rdi, 40(%rsp)
	movq	%r9, %rdi
	movl	$40, %r9d
	movq	%rdx, 32(%rsp)
	movq	%r9, %rdx
	movq	%rcx, 24(%rsp)
	movq	%rax, 16(%rsp)
	movq	%r8, 8(%rsp)
	callq	memcpy@PLT
.Ltmp413:
	.loc	6 0 18 is_stmt 0
	movq	40(%rsp), %rdi
	movq	8(%rsp), %rsi
	movq	32(%rsp), %rdx
	movq	24(%rsp), %rcx
	.loc	6 381 18
	callq	_ZN3std6thread7Builder15spawn_unchecked17hcbb816fdd4178615E
.Ltmp414:
	.loc	6 0 18
	movq	16(%rsp), %rax
	.loc	6 382 6 is_stmt 1
	addq	$104, %rsp
	.cfi_def_cfa_offset 8
	retq
.Ltmp415:
.Lfunc_end22:
	.size	_ZN3std6thread7Builder5spawn17he345922035c9ad99E, .Lfunc_end22-_ZN3std6thread7Builder5spawn17he345922035c9ad99E
	.cfi_endproc

	.section	.text._ZN3std9panicking3try17h62f763d0a8f04afcE,"ax",@progbits
	.p2align	4, 0x90
	.type	_ZN3std9panicking3try17h62f763d0a8f04afcE,@function
_ZN3std9panicking3try17h62f763d0a8f04afcE:
.Lfunc_begin23:
	.file	8 "/rustc/e1884a8e3c3e813aada8254edfa120e85bf5ffca/library/std/src/panicking.rs"
	.loc	8 301 0
	.cfi_startproc
	subq	$152, %rsp
	.cfi_def_cfa_offset 160
	movq	%rdi, 72(%rsp)
	movq	%rsi, 80(%rsp)
	movq	%rdi, 120(%rsp)
	movq	%rsi, 128(%rsp)
.Ltmp416:
	.file	9 "/rustc/e1884a8e3c3e813aada8254edfa120e85bf5ffca/library/core/src/mem/manually_drop.rs"
	.loc	9 70 9 prologue_end
	movq	%rdi, 104(%rsp)
	movq	%rsi, 112(%rsp)
	.loc	9 71 6
	movq	104(%rsp), %rax
	movq	112(%rsp), %rcx
	movq	%rax, 32(%rsp)
	movq	%rcx, 24(%rsp)
.Ltmp417:
	.loc	9 0 6 is_stmt 0
	movq	32(%rsp), %rax
	.loc	8 332 20 is_stmt 1
	movq	%rax, 56(%rsp)
	movq	24(%rsp), %rcx
	movq	%rcx, 64(%rsp)
.Ltmp418:
	.loc	8 334 20
	leaq	56(%rsp), %rdx
	movq	%rdx, 88(%rsp)
.Ltmp419:
	.loc	8 345 19
	leaq	_ZN3std9panicking3try7do_call17h75046d327a383e3fE(%rip), %rdi
	movq	%rdx, %rsi
	leaq	_ZN3std9panicking3try8do_catch17h4f018918129160c9E(%rip), %rdx
	callq	__rust_try
	movl	%eax, 100(%rsp)
	movl	100(%rsp), %eax
	movl	%eax, 20(%rsp)
	.loc	8 0 19 is_stmt 0
	movl	20(%rsp), %eax
	.loc	8 345 16
	cmpl	$0, %eax
	je	.LBB23_4
	.loc	8 348 42 is_stmt 1
	movq	56(%rsp), %rax
	movq	64(%rsp), %rcx
	movq	%rax, 136(%rsp)
	movq	%rcx, 144(%rsp)
	movq	%rax, 8(%rsp)
	movq	%rcx, (%rsp)
	.loc	8 348 17 is_stmt 0
	jmp	.LBB23_6
.LBB23_4:
	.loc	8 346 16 is_stmt 1
	jmp	.LBB23_5
.LBB23_5:
	.loc	8 346 13 is_stmt 0
	movq	$0, 40(%rsp)
	.loc	8 345 16 is_stmt 1
	jmp	.LBB23_7
.LBB23_6:
	.loc	8 0 16 is_stmt 0
	movq	8(%rsp), %rax
	.loc	8 348 13 is_stmt 1
	movq	%rax, 40(%rsp)
	movq	(%rsp), %rcx
	movq	%rcx, 48(%rsp)
.Ltmp420:
.LBB23_7:
	.loc	8 410 2
	movq	40(%rsp), %rax
	movq	48(%rsp), %rdx
	addq	$152, %rsp
	.cfi_def_cfa_offset 8
	retq
.Ltmp421:
.Lfunc_end23:
	.size	_ZN3std9panicking3try17h62f763d0a8f04afcE, .Lfunc_end23-_ZN3std9panicking3try17h62f763d0a8f04afcE
	.cfi_endproc

	.section	.text._ZN3std9panicking3try17h8d408f4c44f5a858E,"ax",@progbits
	.p2align	4, 0x90
	.type	_ZN3std9panicking3try17h8d408f4c44f5a858E,@function
_ZN3std9panicking3try17h8d408f4c44f5a858E:
.Lfunc_begin24:
	.loc	8 301 0
	.cfi_startproc
	subq	$152, %rsp
	.cfi_def_cfa_offset 160
	movq	%rdi, 72(%rsp)
	movq	%rsi, 80(%rsp)
	movq	%rdi, 120(%rsp)
	movq	%rsi, 128(%rsp)
.Ltmp422:
	.loc	9 70 9 prologue_end
	movq	%rdi, 104(%rsp)
	movq	%rsi, 112(%rsp)
	.loc	9 71 6
	movq	104(%rsp), %rax
	movq	112(%rsp), %rcx
	movq	%rax, 32(%rsp)
	movq	%rcx, 24(%rsp)
.Ltmp423:
	.loc	9 0 6 is_stmt 0
	movq	32(%rsp), %rax
	.loc	8 332 20 is_stmt 1
	movq	%rax, 56(%rsp)
	movq	24(%rsp), %rcx
	movq	%rcx, 64(%rsp)
.Ltmp424:
	.loc	8 334 20
	leaq	56(%rsp), %rdx
	movq	%rdx, 88(%rsp)
.Ltmp425:
	.loc	8 345 19
	leaq	_ZN3std9panicking3try7do_call17h06b43ad564d881d9E(%rip), %rdi
	movq	%rdx, %rsi
	leaq	_ZN3std9panicking3try8do_catch17h1840530bf66036dfE(%rip), %rdx
	callq	__rust_try
	movl	%eax, 100(%rsp)
	movl	100(%rsp), %eax
	movl	%eax, 20(%rsp)
	.loc	8 0 19 is_stmt 0
	movl	20(%rsp), %eax
	.loc	8 345 16
	cmpl	$0, %eax
	je	.LBB24_4
	.loc	8 348 42 is_stmt 1
	movq	56(%rsp), %rax
	movq	64(%rsp), %rcx
	movq	%rax, 136(%rsp)
	movq	%rcx, 144(%rsp)
	movq	%rax, 8(%rsp)
	movq	%rcx, (%rsp)
	.loc	8 348 17 is_stmt 0
	jmp	.LBB24_6
.LBB24_4:
	.loc	8 346 16 is_stmt 1
	jmp	.LBB24_5
.LBB24_5:
	.loc	8 346 13 is_stmt 0
	movq	$0, 40(%rsp)
	.loc	8 345 16 is_stmt 1
	jmp	.LBB24_7
.LBB24_6:
	.loc	8 0 16 is_stmt 0
	movq	8(%rsp), %rax
	.loc	8 348 13 is_stmt 1
	movq	%rax, 40(%rsp)
	movq	(%rsp), %rcx
	movq	%rcx, 48(%rsp)
.Ltmp426:
.LBB24_7:
	.loc	8 410 2
	movq	40(%rsp), %rax
	movq	48(%rsp), %rdx
	addq	$152, %rsp
	.cfi_def_cfa_offset 8
	retq
.Ltmp427:
.Lfunc_end24:
	.size	_ZN3std9panicking3try17h8d408f4c44f5a858E, .Lfunc_end24-_ZN3std9panicking3try17h8d408f4c44f5a858E
	.cfi_endproc

	.section	.text._ZN3std9panicking3try7do_call17h06b43ad564d881d9E,"ax",@progbits
	.p2align	4, 0x90
	.type	_ZN3std9panicking3try7do_call17h06b43ad564d881d9E,@function
_ZN3std9panicking3try7do_call17h06b43ad564d881d9E:
.Lfunc_begin25:
	.loc	8 375 0
	.cfi_startproc
	subq	$72, %rsp
	.cfi_def_cfa_offset 80
	movq	%rdi, 24(%rsp)
.Ltmp428:
	.loc	8 378 24 prologue_end
	movq	%rdi, 32(%rsp)
.Ltmp429:
	.loc	8 379 24
	movq	%rdi, 40(%rsp)
.Ltmp430:
	.loc	8 380 21
	callq	_ZN4core3mem13manually_drop21ManuallyDrop$LT$T$GT$4take17he86e2abbd4e65b9bE
	movq	%rax, 48(%rsp)
	movq	%rdx, 56(%rsp)
	movq	%rax, 8(%rsp)
	movq	%rdx, (%rsp)
	.loc	8 0 21 is_stmt 0
	movq	8(%rsp), %rdi
	movq	(%rsp), %rsi
.Ltmp431:
	.loc	8 381 40 is_stmt 1
	callq	_ZN101_$LT$std..panic..AssertUnwindSafe$LT$F$GT$$u20$as$u20$core..ops..function..FnOnce$LT$$LP$$RP$$GT$$GT$9call_once17he603020bdeb61082E
.Ltmp432:
	.loc	8 383 6
	addq	$72, %rsp
	.cfi_def_cfa_offset 8
	retq
.Ltmp433:
.Lfunc_end25:
	.size	_ZN3std9panicking3try7do_call17h06b43ad564d881d9E, .Lfunc_end25-_ZN3std9panicking3try7do_call17h06b43ad564d881d9E
	.cfi_endproc

	.section	.text._ZN3std9panicking3try7do_call17h75046d327a383e3fE,"ax",@progbits
	.p2align	4, 0x90
	.type	_ZN3std9panicking3try7do_call17h75046d327a383e3fE,@function
_ZN3std9panicking3try7do_call17h75046d327a383e3fE:
.Lfunc_begin26:
	.loc	8 375 0
	.cfi_startproc
	subq	$72, %rsp
	.cfi_def_cfa_offset 80
	movq	%rdi, 24(%rsp)
.Ltmp434:
	.loc	8 378 24 prologue_end
	movq	%rdi, 32(%rsp)
.Ltmp435:
	.loc	8 379 24
	movq	%rdi, 40(%rsp)
.Ltmp436:
	.loc	8 380 21
	callq	_ZN4core3mem13manually_drop21ManuallyDrop$LT$T$GT$4take17hea766d1109ebb7eeE
	movq	%rax, 48(%rsp)
	movq	%rdx, 56(%rsp)
	movq	%rax, 8(%rsp)
	movq	%rdx, (%rsp)
	.loc	8 0 21 is_stmt 0
	movq	8(%rsp), %rdi
	movq	(%rsp), %rsi
.Ltmp437:
	.loc	8 381 40 is_stmt 1
	callq	_ZN101_$LT$std..panic..AssertUnwindSafe$LT$F$GT$$u20$as$u20$core..ops..function..FnOnce$LT$$LP$$RP$$GT$$GT$9call_once17h85505b249faa5f45E
.Ltmp438:
	.loc	8 383 6
	addq	$72, %rsp
	.cfi_def_cfa_offset 8
	retq
.Ltmp439:
.Lfunc_end26:
	.size	_ZN3std9panicking3try7do_call17h75046d327a383e3fE, .Lfunc_end26-_ZN3std9panicking3try7do_call17h75046d327a383e3fE
	.cfi_endproc

	.section	.text._ZN3std9panicking3try8do_catch17h1840530bf66036dfE,"ax",@progbits
	.p2align	4, 0x90
	.type	_ZN3std9panicking3try8do_catch17h1840530bf66036dfE,@function
_ZN3std9panicking3try8do_catch17h1840530bf66036dfE:
.Lfunc_begin27:
	.loc	8 397 0
	.cfi_startproc
	subq	$120, %rsp
	.cfi_def_cfa_offset 128
	movq	%rdi, 40(%rsp)
	movq	%rsi, 48(%rsp)
.Ltmp440:
	.loc	8 404 24 prologue_end
	movq	%rdi, 56(%rsp)
.Ltmp441:
	.loc	8 405 24
	movq	%rdi, 64(%rsp)
	movq	%rdi, 32(%rsp)
.Ltmp442:
	.loc	8 406 23
	movq	%rsi, %rdi
	callq	*_ZN3std9panicking3try7cleanup17hb8310cd6218c0e07E@GOTPCREL(%rip)
	movq	%rax, 72(%rsp)
	movq	%rdx, 80(%rsp)
	movq	%rax, 24(%rsp)
	movq	%rdx, 16(%rsp)
	.loc	8 0 23 is_stmt 0
	movq	24(%rsp), %rax
	movq	%rax, 104(%rsp)
	movq	16(%rsp), %rcx
	movq	%rcx, 112(%rsp)
.Ltmp443:
	.loc	9 70 9 is_stmt 1
	movq	%rax, 88(%rsp)
	movq	%rcx, 96(%rsp)
	.loc	9 71 6
	movq	88(%rsp), %rdx
	movq	96(%rsp), %rsi
	movq	%rdx, 8(%rsp)
	movq	%rsi, (%rsp)
.Ltmp444:
	.loc	9 0 6 is_stmt 0
	movq	32(%rsp), %rax
	movq	8(%rsp), %rcx
	.loc	8 407 13 is_stmt 1
	movq	%rcx, (%rax)
	movq	(%rsp), %rdx
	movq	%rdx, 8(%rax)
.Ltmp445:
	.loc	8 409 6
	addq	$120, %rsp
	.cfi_def_cfa_offset 8
	retq
.Ltmp446:
.Lfunc_end27:
	.size	_ZN3std9panicking3try8do_catch17h1840530bf66036dfE, .Lfunc_end27-_ZN3std9panicking3try8do_catch17h1840530bf66036dfE
	.cfi_endproc

	.section	.text._ZN3std9panicking3try8do_catch17h4f018918129160c9E,"ax",@progbits
	.p2align	4, 0x90
	.type	_ZN3std9panicking3try8do_catch17h4f018918129160c9E,@function
_ZN3std9panicking3try8do_catch17h4f018918129160c9E:
.Lfunc_begin28:
	.loc	8 397 0
	.cfi_startproc
	subq	$120, %rsp
	.cfi_def_cfa_offset 128
	movq	%rdi, 40(%rsp)
	movq	%rsi, 48(%rsp)
.Ltmp447:
	.loc	8 404 24 prologue_end
	movq	%rdi, 56(%rsp)
.Ltmp448:
	.loc	8 405 24
	movq	%rdi, 64(%rsp)
	movq	%rdi, 32(%rsp)
.Ltmp449:
	.loc	8 406 23
	movq	%rsi, %rdi
	callq	*_ZN3std9panicking3try7cleanup17hb8310cd6218c0e07E@GOTPCREL(%rip)
	movq	%rax, 72(%rsp)
	movq	%rdx, 80(%rsp)
	movq	%rax, 24(%rsp)
	movq	%rdx, 16(%rsp)
	.loc	8 0 23 is_stmt 0
	movq	24(%rsp), %rax
	movq	%rax, 104(%rsp)
	movq	16(%rsp), %rcx
	movq	%rcx, 112(%rsp)
.Ltmp450:
	.loc	9 70 9 is_stmt 1
	movq	%rax, 88(%rsp)
	movq	%rcx, 96(%rsp)
	.loc	9 71 6
	movq	88(%rsp), %rdx
	movq	96(%rsp), %rsi
	movq	%rdx, 8(%rsp)
	movq	%rsi, (%rsp)
.Ltmp451:
	.loc	9 0 6 is_stmt 0
	movq	32(%rsp), %rax
	movq	8(%rsp), %rcx
	.loc	8 407 13 is_stmt 1
	movq	%rcx, (%rax)
	movq	(%rsp), %rdx
	movq	%rdx, 8(%rax)
.Ltmp452:
	.loc	8 409 6
	addq	$120, %rsp
	.cfi_def_cfa_offset 8
	retq
.Ltmp453:
.Lfunc_end28:
	.size	_ZN3std9panicking3try8do_catch17h4f018918129160c9E, .Lfunc_end28-_ZN3std9panicking3try8do_catch17h4f018918129160c9E
	.cfi_endproc

	.section	.text._ZN4core10intrinsics19copy_nonoverlapping17h577dd30b7dc47d5cE,"ax",@progbits
	.p2align	4, 0x90
	.type	_ZN4core10intrinsics19copy_nonoverlapping17h577dd30b7dc47d5cE,@function
_ZN4core10intrinsics19copy_nonoverlapping17h577dd30b7dc47d5cE:
.Lfunc_begin29:
	.file	10 "/rustc/e1884a8e3c3e813aada8254edfa120e85bf5ffca/library/core/src/intrinsics.rs"
	.loc	10 1844 0
	.cfi_startproc
	subq	$40, %rsp
	.cfi_def_cfa_offset 48
	movq	%rdi, 16(%rsp)
	movq	%rsi, 24(%rsp)
	movq	%rdx, 32(%rsp)
.Ltmp454:
	.loc	10 1860 14 prologue_end
	shlq	$4, %rdx
	movq	%rdi, 8(%rsp)
	movq	%rsi, %rdi
	movq	8(%rsp), %rsi
	callq	memcpy@PLT
	.loc	10 1861 2
	addq	$40, %rsp
	.cfi_def_cfa_offset 8
	retq
.Ltmp455:
.Lfunc_end29:
	.size	_ZN4core10intrinsics19copy_nonoverlapping17h577dd30b7dc47d5cE, .Lfunc_end29-_ZN4core10intrinsics19copy_nonoverlapping17h577dd30b7dc47d5cE
	.cfi_endproc

	.section	.text._ZN4core10intrinsics19copy_nonoverlapping17h936763de65706c73E,"ax",@progbits
	.p2align	4, 0x90
	.type	_ZN4core10intrinsics19copy_nonoverlapping17h936763de65706c73E,@function
_ZN4core10intrinsics19copy_nonoverlapping17h936763de65706c73E:
.Lfunc_begin30:
	.loc	10 1844 0
	.cfi_startproc
	subq	$40, %rsp
	.cfi_def_cfa_offset 48
	movq	%rdi, 16(%rsp)
	movq	%rsi, 24(%rsp)
	movq	%rdx, 32(%rsp)
.Ltmp456:
	.loc	10 1860 14 prologue_end
	shlq	$4, %rdx
	movq	%rdi, 8(%rsp)
	movq	%rsi, %rdi
	movq	8(%rsp), %rsi
	callq	memcpy@PLT
	.loc	10 1861 2
	addq	$40, %rsp
	.cfi_def_cfa_offset 8
	retq
.Ltmp457:
.Lfunc_end30:
	.size	_ZN4core10intrinsics19copy_nonoverlapping17h936763de65706c73E, .Lfunc_end30-_ZN4core10intrinsics19copy_nonoverlapping17h936763de65706c73E
	.cfi_endproc

	.section	.text._ZN4core10intrinsics19copy_nonoverlapping17h98b5fe8f396131a4E,"ax",@progbits
	.p2align	4, 0x90
	.type	_ZN4core10intrinsics19copy_nonoverlapping17h98b5fe8f396131a4E,@function
_ZN4core10intrinsics19copy_nonoverlapping17h98b5fe8f396131a4E:
.Lfunc_begin31:
	.loc	10 1844 0
	.cfi_startproc
	subq	$40, %rsp
	.cfi_def_cfa_offset 48
	movq	%rdi, 16(%rsp)
	movq	%rsi, 24(%rsp)
	movq	%rdx, 32(%rsp)
.Ltmp458:
	.loc	10 1860 14 prologue_end
	shlq	$0, %rdx
	movq	%rdi, 8(%rsp)
	movq	%rsi, %rdi
	movq	8(%rsp), %rsi
	callq	memcpy@PLT
	.loc	10 1861 2
	addq	$40, %rsp
	.cfi_def_cfa_offset 8
	retq
.Ltmp459:
.Lfunc_end31:
	.size	_ZN4core10intrinsics19copy_nonoverlapping17h98b5fe8f396131a4E, .Lfunc_end31-_ZN4core10intrinsics19copy_nonoverlapping17h98b5fe8f396131a4E
	.cfi_endproc

	.section	.text._ZN4core10intrinsics19copy_nonoverlapping17hbedb53e473fce522E,"ax",@progbits
	.p2align	4, 0x90
	.type	_ZN4core10intrinsics19copy_nonoverlapping17hbedb53e473fce522E,@function
_ZN4core10intrinsics19copy_nonoverlapping17hbedb53e473fce522E:
.Lfunc_begin32:
	.loc	10 1844 0
	.cfi_startproc
	subq	$40, %rsp
	.cfi_def_cfa_offset 48
	movq	%rdi, 16(%rsp)
	movq	%rsi, 24(%rsp)
	movq	%rdx, 32(%rsp)
.Ltmp460:
	.loc	10 1860 14 prologue_end
	shlq	$4, %rdx
	movq	%rdi, 8(%rsp)
	movq	%rsi, %rdi
	movq	8(%rsp), %rsi
	callq	memcpy@PLT
	.loc	10 1861 2
	addq	$40, %rsp
	.cfi_def_cfa_offset 8
	retq
.Ltmp461:
.Lfunc_end32:
	.size	_ZN4core10intrinsics19copy_nonoverlapping17hbedb53e473fce522E, .Lfunc_end32-_ZN4core10intrinsics19copy_nonoverlapping17hbedb53e473fce522E
	.cfi_endproc

	.section	.text._ZN4core10intrinsics19copy_nonoverlapping17hfaefdfc5a86a5373E,"ax",@progbits
	.p2align	4, 0x90
	.type	_ZN4core10intrinsics19copy_nonoverlapping17hfaefdfc5a86a5373E,@function
_ZN4core10intrinsics19copy_nonoverlapping17hfaefdfc5a86a5373E:
.Lfunc_begin33:
	.loc	10 1844 0
	.cfi_startproc
	subq	$40, %rsp
	.cfi_def_cfa_offset 48
	movq	%rdi, 16(%rsp)
	movq	%rsi, 24(%rsp)
	movq	%rdx, 32(%rsp)
.Ltmp462:
	.loc	10 1860 14 prologue_end
	imulq	$24, %rdx, %rdx
	movq	%rdi, 8(%rsp)
	movq	%rsi, %rdi
	movq	8(%rsp), %rsi
	callq	memcpy@PLT
	.loc	10 1861 2
	addq	$40, %rsp
	.cfi_def_cfa_offset 8
	retq
.Ltmp463:
.Lfunc_end33:
	.size	_ZN4core10intrinsics19copy_nonoverlapping17hfaefdfc5a86a5373E, .Lfunc_end33-_ZN4core10intrinsics19copy_nonoverlapping17hfaefdfc5a86a5373E
	.cfi_endproc

	.section	.text._ZN4core3fmt10ArgumentV13new17h05d1285d8424eae5E,"ax",@progbits
	.p2align	4, 0x90
	.type	_ZN4core3fmt10ArgumentV13new17h05d1285d8424eae5E,@function
_ZN4core3fmt10ArgumentV13new17h05d1285d8424eae5E:
.Lfunc_begin34:
	.file	11 "/rustc/e1884a8e3c3e813aada8254edfa120e85bf5ffca/library/core/src/fmt/mod.rs"
	.loc	11 267 0
	.cfi_startproc
	subq	$72, %rsp
	.cfi_def_cfa_offset 80
	movq	%rdi, 40(%rsp)
	movq	%rsi, 48(%rsp)
.Ltmp464:
	.loc	11 276 42 prologue_end
	movq	%rsi, 56(%rsp)
	movq	56(%rsp), %rax
	movq	%rdi, 16(%rsp)
	movq	%rax, 8(%rsp)
	.loc	11 0 42 is_stmt 0
	movq	16(%rsp), %rax
	.loc	11 276 68
	movq	%rax, 64(%rsp)
	movq	64(%rsp), %rcx
	movq	%rcx, (%rsp)
	.loc	11 0 68
	movq	(%rsp), %rax
	.loc	11 276 18
	movq	%rax, 24(%rsp)
	movq	8(%rsp), %rcx
	movq	%rcx, 32(%rsp)
	.loc	11 277 6 is_stmt 1
	movq	24(%rsp), %rax
	movq	32(%rsp), %rdx
	addq	$72, %rsp
	.cfi_def_cfa_offset 8
	retq
.Ltmp465:
.Lfunc_end34:
	.size	_ZN4core3fmt10ArgumentV13new17h05d1285d8424eae5E, .Lfunc_end34-_ZN4core3fmt10ArgumentV13new17h05d1285d8424eae5E
	.cfi_endproc

	.section	".text._ZN4core3fmt3num50_$LT$impl$u20$core..fmt..Debug$u20$for$u20$i64$GT$3fmt17h152faa7a6a3ec182E","ax",@progbits
	.p2align	4, 0x90
	.type	_ZN4core3fmt3num50_$LT$impl$u20$core..fmt..Debug$u20$for$u20$i64$GT$3fmt17h152faa7a6a3ec182E,@function
_ZN4core3fmt3num50_$LT$impl$u20$core..fmt..Debug$u20$for$u20$i64$GT$3fmt17h152faa7a6a3ec182E:
.Lfunc_begin35:
	.file	12 "/rustc/e1884a8e3c3e813aada8254edfa120e85bf5ffca/library/core/src/fmt/num.rs"
	.loc	12 185 0
	.cfi_startproc
	subq	$56, %rsp
	.cfi_def_cfa_offset 64
	movq	%rdi, 40(%rsp)
	movq	%rsi, 48(%rsp)
	movq	%rdi, 24(%rsp)
.Ltmp466:
	.loc	12 186 20 prologue_end
	movq	%rsi, %rdi
	movq	%rsi, 16(%rsp)
	callq	*_ZN4core3fmt9Formatter15debug_lower_hex17h41e0b052743d0387E@GOTPCREL(%rip)
	movb	%al, 15(%rsp)
	.loc	12 0 20 is_stmt 0
	movb	15(%rsp), %al
	.loc	12 186 17
	testb	$1, %al
	jne	.LBB35_3
	jmp	.LBB35_2
.LBB35_2:
	.loc	12 0 17
	movq	16(%rsp), %rdi
	.loc	12 188 27 is_stmt 1
	callq	*_ZN4core3fmt9Formatter15debug_upper_hex17h69ff5869ce364be4E@GOTPCREL(%rip)
	movb	%al, 14(%rsp)
	jmp	.LBB35_5
.LBB35_3:
	.loc	12 0 27 is_stmt 0
	movq	24(%rsp), %rdi
	movq	16(%rsp), %rsi
	.loc	12 187 21 is_stmt 1
	callq	*_ZN4core3fmt3num53_$LT$impl$u20$core..fmt..LowerHex$u20$for$u20$i64$GT$3fmt17h7ebe6c0818892343E@GOTPCREL(%rip)
	andb	$1, %al
	movb	%al, 39(%rsp)
	.loc	12 186 17
	jmp	.LBB35_11
.LBB35_5:
	.loc	12 0 17 is_stmt 0
	movb	14(%rsp), %al
	.loc	12 188 24 is_stmt 1
	testb	$1, %al
	jne	.LBB35_7
	jmp	.LBB35_6
.LBB35_6:
	.loc	12 0 24 is_stmt 0
	movq	24(%rsp), %rdi
	movq	16(%rsp), %rsi
	.loc	12 191 21 is_stmt 1
	callq	*_ZN4core3fmt3num3imp52_$LT$impl$u20$core..fmt..Display$u20$for$u20$i64$GT$3fmt17he9dfa35ff17e5872E@GOTPCREL(%rip)
	andb	$1, %al
	movb	%al, 39(%rsp)
	jmp	.LBB35_9
.LBB35_7:
	.loc	12 0 21 is_stmt 0
	movq	24(%rsp), %rdi
	movq	16(%rsp), %rsi
	.loc	12 189 21 is_stmt 1
	callq	*_ZN4core3fmt3num53_$LT$impl$u20$core..fmt..UpperHex$u20$for$u20$i64$GT$3fmt17h55f19e28ecdedfd0E@GOTPCREL(%rip)
	andb	$1, %al
	movb	%al, 39(%rsp)
	.loc	12 188 24
	jmp	.LBB35_10
.LBB35_9:
	jmp	.LBB35_10
.LBB35_10:
	.loc	12 186 17
	jmp	.LBB35_11
.LBB35_11:
	.loc	12 193 14
	movb	39(%rsp), %al
	andb	$1, %al
	movzbl	%al, %eax
	addq	$56, %rsp
	.cfi_def_cfa_offset 8
	retq
.Ltmp467:
.Lfunc_end35:
	.size	_ZN4core3fmt3num50_$LT$impl$u20$core..fmt..Debug$u20$for$u20$i64$GT$3fmt17h152faa7a6a3ec182E, .Lfunc_end35-_ZN4core3fmt3num50_$LT$impl$u20$core..fmt..Debug$u20$for$u20$i64$GT$3fmt17h152faa7a6a3ec182E
	.cfi_endproc

	.section	.text._ZN4core3fmt9Arguments6new_v117ha017802590dfc771E,"ax",@progbits
	.p2align	4, 0x90
	.type	_ZN4core3fmt9Arguments6new_v117ha017802590dfc771E,@function
_ZN4core3fmt9Arguments6new_v117ha017802590dfc771E:
.Lfunc_begin36:
	.loc	11 313 0
	.cfi_startproc
	subq	$48, %rsp
	.cfi_def_cfa_offset 56
	movq	%rdi, %rax
	movq	%rsi, 16(%rsp)
	movq	%rdx, 24(%rsp)
	movq	%rcx, 32(%rsp)
	movq	%r8, 40(%rsp)
.Ltmp468:
	.loc	11 314 34 prologue_end
	movq	$0, (%rsp)
	.loc	11 314 9 is_stmt 0
	movq	%rsi, (%rdi)
	movq	%rdx, 8(%rdi)
	movq	(%rsp), %rdx
	movq	8(%rsp), %rsi
	movq	%rdx, 16(%rdi)
	movq	%rsi, 24(%rdi)
	movq	%rcx, 32(%rdi)
	movq	%r8, 40(%rdi)
	.loc	11 315 6 is_stmt 1
	addq	$48, %rsp
	.cfi_def_cfa_offset 8
	retq
.Ltmp469:
.Lfunc_end36:
	.size	_ZN4core3fmt9Arguments6new_v117ha017802590dfc771E, .Lfunc_end36-_ZN4core3fmt9Arguments6new_v117ha017802590dfc771E
	.cfi_endproc

	.section	.text._ZN4core3mem11size_of_val17h1a91208d3acd5398E,"ax",@progbits
	.p2align	4, 0x90
	.type	_ZN4core3mem11size_of_val17h1a91208d3acd5398E,@function
_ZN4core3mem11size_of_val17h1a91208d3acd5398E:
.Lfunc_begin37:
	.file	13 "/rustc/e1884a8e3c3e813aada8254edfa120e85bf5ffca/library/core/src/mem/mod.rs"
	.loc	13 330 0
	.cfi_startproc
	subq	$24, %rsp
	.cfi_def_cfa_offset 32
	movq	%rdi, 8(%rsp)
.Ltmp470:
	.loc	13 331 5 prologue_end
	movq	$40, 16(%rsp)
	movq	16(%rsp), %rax
	movq	%rax, (%rsp)
	.loc	13 0 5 is_stmt 0
	movq	(%rsp), %rax
	.loc	13 332 2 is_stmt 1
	addq	$24, %rsp
	.cfi_def_cfa_offset 8
	retq
.Ltmp471:
.Lfunc_end37:
	.size	_ZN4core3mem11size_of_val17h1a91208d3acd5398E, .Lfunc_end37-_ZN4core3mem11size_of_val17h1a91208d3acd5398E
	.cfi_endproc

	.section	.text._ZN4core3mem11size_of_val17h1be80b8c17d2e8a4E,"ax",@progbits
	.p2align	4, 0x90
	.type	_ZN4core3mem11size_of_val17h1be80b8c17d2e8a4E,@function
_ZN4core3mem11size_of_val17h1be80b8c17d2e8a4E:
.Lfunc_begin38:
	.loc	13 330 0
	.cfi_startproc
	subq	$24, %rsp
	.cfi_def_cfa_offset 32
	movq	%rdi, 8(%rsp)
.Ltmp472:
	.loc	13 331 5 prologue_end
	movq	$24, 16(%rsp)
	movq	16(%rsp), %rax
	movq	%rax, (%rsp)
	.loc	13 0 5 is_stmt 0
	movq	(%rsp), %rax
	.loc	13 332 2 is_stmt 1
	addq	$24, %rsp
	.cfi_def_cfa_offset 8
	retq
.Ltmp473:
.Lfunc_end38:
	.size	_ZN4core3mem11size_of_val17h1be80b8c17d2e8a4E, .Lfunc_end38-_ZN4core3mem11size_of_val17h1be80b8c17d2e8a4E
	.cfi_endproc

	.section	.text._ZN4core3mem11size_of_val17h5f1dda957266c6b8E,"ax",@progbits
	.p2align	4, 0x90
	.type	_ZN4core3mem11size_of_val17h5f1dda957266c6b8E,@function
_ZN4core3mem11size_of_val17h5f1dda957266c6b8E:
.Lfunc_begin39:
	.loc	13 330 0
	.cfi_startproc
	subq	$24, %rsp
	.cfi_def_cfa_offset 32
	movq	%rdi, 8(%rsp)
.Ltmp474:
	.loc	13 331 5 prologue_end
	movq	$48, 16(%rsp)
	movq	16(%rsp), %rax
	movq	%rax, (%rsp)
	.loc	13 0 5 is_stmt 0
	movq	(%rsp), %rax
	.loc	13 332 2 is_stmt 1
	addq	$24, %rsp
	.cfi_def_cfa_offset 8
	retq
.Ltmp475:
.Lfunc_end39:
	.size	_ZN4core3mem11size_of_val17h5f1dda957266c6b8E, .Lfunc_end39-_ZN4core3mem11size_of_val17h5f1dda957266c6b8E
	.cfi_endproc

	.section	.text._ZN4core3mem11size_of_val17hf57a3622dfe91dbaE,"ax",@progbits
	.p2align	4, 0x90
	.type	_ZN4core3mem11size_of_val17hf57a3622dfe91dbaE,@function
_ZN4core3mem11size_of_val17hf57a3622dfe91dbaE:
.Lfunc_begin40:
	.loc	13 330 0
	.cfi_startproc
	subq	$24, %rsp
	.cfi_def_cfa_offset 32
	movq	%rdi, 8(%rsp)
.Ltmp476:
	.loc	13 331 5 prologue_end
	movq	$24, 16(%rsp)
	movq	16(%rsp), %rax
	movq	%rax, (%rsp)
	.loc	13 0 5 is_stmt 0
	movq	(%rsp), %rax
	.loc	13 332 2 is_stmt 1
	addq	$24, %rsp
	.cfi_def_cfa_offset 8
	retq
.Ltmp477:
.Lfunc_end40:
	.size	_ZN4core3mem11size_of_val17hf57a3622dfe91dbaE, .Lfunc_end40-_ZN4core3mem11size_of_val17hf57a3622dfe91dbaE
	.cfi_endproc

	.section	.text._ZN4core3mem12align_of_val17h1bc86f2b41177c78E,"ax",@progbits
	.p2align	4, 0x90
	.type	_ZN4core3mem12align_of_val17h1bc86f2b41177c78E,@function
_ZN4core3mem12align_of_val17h1bc86f2b41177c78E:
.Lfunc_begin41:
	.loc	13 465 0
	.cfi_startproc
	subq	$24, %rsp
	.cfi_def_cfa_offset 32
	movq	%rdi, 8(%rsp)
.Ltmp478:
	.loc	13 466 5 prologue_end
	movq	$8, 16(%rsp)
	movq	16(%rsp), %rax
	movq	%rax, (%rsp)
	.loc	13 0 5 is_stmt 0
	movq	(%rsp), %rax
	.loc	13 467 2 is_stmt 1
	addq	$24, %rsp
	.cfi_def_cfa_offset 8
	retq
.Ltmp479:
.Lfunc_end41:
	.size	_ZN4core3mem12align_of_val17h1bc86f2b41177c78E, .Lfunc_end41-_ZN4core3mem12align_of_val17h1bc86f2b41177c78E
	.cfi_endproc

	.section	.text._ZN4core3mem12align_of_val17h1ea5f1770b8ecd06E,"ax",@progbits
	.p2align	4, 0x90
	.type	_ZN4core3mem12align_of_val17h1ea5f1770b8ecd06E,@function
_ZN4core3mem12align_of_val17h1ea5f1770b8ecd06E:
.Lfunc_begin42:
	.loc	13 465 0
	.cfi_startproc
	subq	$24, %rsp
	.cfi_def_cfa_offset 32
	movq	%rdi, 8(%rsp)
.Ltmp480:
	.loc	13 466 5 prologue_end
	movq	$8, 16(%rsp)
	movq	16(%rsp), %rax
	movq	%rax, (%rsp)
	.loc	13 0 5 is_stmt 0
	movq	(%rsp), %rax
	.loc	13 467 2 is_stmt 1
	addq	$24, %rsp
	.cfi_def_cfa_offset 8
	retq
.Ltmp481:
.Lfunc_end42:
	.size	_ZN4core3mem12align_of_val17h1ea5f1770b8ecd06E, .Lfunc_end42-_ZN4core3mem12align_of_val17h1ea5f1770b8ecd06E
	.cfi_endproc

	.section	.text._ZN4core3mem12align_of_val17h83cc8c9b68a6a9a5E,"ax",@progbits
	.p2align	4, 0x90
	.type	_ZN4core3mem12align_of_val17h83cc8c9b68a6a9a5E,@function
_ZN4core3mem12align_of_val17h83cc8c9b68a6a9a5E:
.Lfunc_begin43:
	.loc	13 465 0
	.cfi_startproc
	subq	$24, %rsp
	.cfi_def_cfa_offset 32
	movq	%rdi, 8(%rsp)
.Ltmp482:
	.loc	13 466 5 prologue_end
	movq	$8, 16(%rsp)
	movq	16(%rsp), %rax
	movq	%rax, (%rsp)
	.loc	13 0 5 is_stmt 0
	movq	(%rsp), %rax
	.loc	13 467 2 is_stmt 1
	addq	$24, %rsp
	.cfi_def_cfa_offset 8
	retq
.Ltmp483:
.Lfunc_end43:
	.size	_ZN4core3mem12align_of_val17h83cc8c9b68a6a9a5E, .Lfunc_end43-_ZN4core3mem12align_of_val17h83cc8c9b68a6a9a5E
	.cfi_endproc

	.section	.text._ZN4core3mem12align_of_val17he7ffa719c77cd5b6E,"ax",@progbits
	.p2align	4, 0x90
	.type	_ZN4core3mem12align_of_val17he7ffa719c77cd5b6E,@function
_ZN4core3mem12align_of_val17he7ffa719c77cd5b6E:
.Lfunc_begin44:
	.loc	13 465 0
	.cfi_startproc
	subq	$24, %rsp
	.cfi_def_cfa_offset 32
	movq	%rdi, 8(%rsp)
.Ltmp484:
	.loc	13 466 5 prologue_end
	movq	$8, 16(%rsp)
	movq	16(%rsp), %rax
	movq	%rax, (%rsp)
	.loc	13 0 5 is_stmt 0
	movq	(%rsp), %rax
	.loc	13 467 2 is_stmt 1
	addq	$24, %rsp
	.cfi_def_cfa_offset 8
	retq
.Ltmp485:
.Lfunc_end44:
	.size	_ZN4core3mem12align_of_val17he7ffa719c77cd5b6E, .Lfunc_end44-_ZN4core3mem12align_of_val17he7ffa719c77cd5b6E
	.cfi_endproc

	.section	".text._ZN4core3mem13manually_drop21ManuallyDrop$LT$T$GT$4take17he86e2abbd4e65b9bE","ax",@progbits
	.p2align	4, 0x90
	.type	_ZN4core3mem13manually_drop21ManuallyDrop$LT$T$GT$4take17he86e2abbd4e65b9bE,@function
_ZN4core3mem13manually_drop21ManuallyDrop$LT$T$GT$4take17he86e2abbd4e65b9bE:
.Lfunc_begin45:
	.loc	9 109 0
	.cfi_startproc
	subq	$24, %rsp
	.cfi_def_cfa_offset 32
	movq	%rdi, 16(%rsp)
.Ltmp486:
	.loc	9 112 18 prologue_end
	callq	_ZN4core3ptr4read17hf77bba6e450c5cd5E
	movq	%rax, 8(%rsp)
	movq	%rdx, (%rsp)
	.loc	9 0 18 is_stmt 0
	movq	8(%rsp), %rax
	movq	(%rsp), %rdx
	.loc	9 113 6 is_stmt 1
	addq	$24, %rsp
	.cfi_def_cfa_offset 8
	retq
.Ltmp487:
.Lfunc_end45:
	.size	_ZN4core3mem13manually_drop21ManuallyDrop$LT$T$GT$4take17he86e2abbd4e65b9bE, .Lfunc_end45-_ZN4core3mem13manually_drop21ManuallyDrop$LT$T$GT$4take17he86e2abbd4e65b9bE
	.cfi_endproc

	.section	".text._ZN4core3mem13manually_drop21ManuallyDrop$LT$T$GT$4take17hea766d1109ebb7eeE","ax",@progbits
	.p2align	4, 0x90
	.type	_ZN4core3mem13manually_drop21ManuallyDrop$LT$T$GT$4take17hea766d1109ebb7eeE,@function
_ZN4core3mem13manually_drop21ManuallyDrop$LT$T$GT$4take17hea766d1109ebb7eeE:
.Lfunc_begin46:
	.loc	9 109 0
	.cfi_startproc
	subq	$24, %rsp
	.cfi_def_cfa_offset 32
	movq	%rdi, 16(%rsp)
.Ltmp488:
	.loc	9 112 18 prologue_end
	callq	_ZN4core3ptr4read17hd2e252c5d90d0a48E
	movq	%rax, 8(%rsp)
	movq	%rdx, (%rsp)
	.loc	9 0 18 is_stmt 0
	movq	8(%rsp), %rax
	movq	(%rsp), %rdx
	.loc	9 113 6 is_stmt 1
	addq	$24, %rsp
	.cfi_def_cfa_offset 8
	retq
.Ltmp489:
.Lfunc_end46:
	.size	_ZN4core3mem13manually_drop21ManuallyDrop$LT$T$GT$4take17hea766d1109ebb7eeE, .Lfunc_end46-_ZN4core3mem13manually_drop21ManuallyDrop$LT$T$GT$4take17hea766d1109ebb7eeE
	.cfi_endproc

	.section	.text._ZN4core3mem4drop17h001b32283bd732acE,"ax",@progbits
	.p2align	4, 0x90
	.type	_ZN4core3mem4drop17h001b32283bd732acE,@function
_ZN4core3mem4drop17h001b32283bd732acE:
.Lfunc_begin47:
	.loc	13 882 0
	.cfi_startproc
	pushq	%rax
	.cfi_def_cfa_offset 16
	movq	%rdi, (%rsp)
.Ltmp490:
	.loc	13 882 24 prologue_end
	movq	%rsp, %rdi
.Ltmp491:
	callq	_ZN4core3ptr13drop_in_place17h3326af2098ec787fE
.Ltmp492:
	.loc	13 882 25 is_stmt 0
	popq	%rax
	.cfi_def_cfa_offset 8
	retq
.Ltmp493:
.Lfunc_end47:
	.size	_ZN4core3mem4drop17h001b32283bd732acE, .Lfunc_end47-_ZN4core3mem4drop17h001b32283bd732acE
	.cfi_endproc

	.section	.text._ZN4core3mem4drop17h6a8f3bb93b0fdd67E,"ax",@progbits
	.p2align	4, 0x90
	.type	_ZN4core3mem4drop17h6a8f3bb93b0fdd67E,@function
_ZN4core3mem4drop17h6a8f3bb93b0fdd67E:
.Lfunc_begin48:
	.loc	13 882 0 is_stmt 1
	.cfi_startproc
	pushq	%rax
	.cfi_def_cfa_offset 16
	movq	%rdi, (%rsp)
.Ltmp494:
	.loc	13 882 24 prologue_end
	movq	%rsp, %rdi
.Ltmp495:
	callq	_ZN4core3ptr13drop_in_place17h423ce9818a7b6eeaE
.Ltmp496:
	.loc	13 882 25 is_stmt 0
	popq	%rax
	.cfi_def_cfa_offset 8
	retq
.Ltmp497:
.Lfunc_end48:
	.size	_ZN4core3mem4drop17h6a8f3bb93b0fdd67E, .Lfunc_end48-_ZN4core3mem4drop17h6a8f3bb93b0fdd67E
	.cfi_endproc

	.section	.text._ZN4core3mem4drop17h77cfb76393986104E,"ax",@progbits
	.p2align	4, 0x90
	.type	_ZN4core3mem4drop17h77cfb76393986104E,@function
_ZN4core3mem4drop17h77cfb76393986104E:
.Lfunc_begin49:
	.loc	13 882 0 is_stmt 1
	.cfi_startproc
	pushq	%rax
	.cfi_def_cfa_offset 16
	movq	%rdi, (%rsp)
.Ltmp498:
	.loc	13 882 24 prologue_end
	movq	%rsp, %rdi
.Ltmp499:
	callq	_ZN4core3ptr13drop_in_place17h83a66bd33d17d6e1E
.Ltmp500:
	.loc	13 882 25 is_stmt 0
	popq	%rax
	.cfi_def_cfa_offset 8
	retq
.Ltmp501:
.Lfunc_end49:
	.size	_ZN4core3mem4drop17h77cfb76393986104E, .Lfunc_end49-_ZN4core3mem4drop17h77cfb76393986104E
	.cfi_endproc

	.section	.text._ZN4core3mem4drop17h9db53a39ab023f9fE,"ax",@progbits
	.p2align	4, 0x90
	.type	_ZN4core3mem4drop17h9db53a39ab023f9fE,@function
_ZN4core3mem4drop17h9db53a39ab023f9fE:
.Lfunc_begin50:
	.loc	13 882 0 is_stmt 1
	.cfi_startproc
	pushq	%rax
	.cfi_def_cfa_offset 16
	movq	%rdi, (%rsp)
.Ltmp502:
	.loc	13 882 24 prologue_end
	movq	%rsp, %rdi
.Ltmp503:
	callq	_ZN4core3ptr13drop_in_place17ha757acd23237433eE
.Ltmp504:
	.loc	13 882 25 is_stmt 0
	popq	%rax
	.cfi_def_cfa_offset 8
	retq
.Ltmp505:
.Lfunc_end50:
	.size	_ZN4core3mem4drop17h9db53a39ab023f9fE, .Lfunc_end50-_ZN4core3mem4drop17h9db53a39ab023f9fE
	.cfi_endproc

	.section	.text._ZN4core3mem4swap17h2405e04dd288a89dE,"ax",@progbits
	.p2align	4, 0x90
	.type	_ZN4core3mem4swap17h2405e04dd288a89dE,@function
_ZN4core3mem4swap17h2405e04dd288a89dE:
.Lfunc_begin51:
	.loc	13 684 0 is_stmt 1
	.cfi_startproc
	subq	$24, %rsp
	.cfi_def_cfa_offset 32
	movq	%rdi, 8(%rsp)
	movq	%rsi, 16(%rsp)
.Ltmp506:
	.loc	13 688 9 prologue_end
	callq	_ZN4core3ptr23swap_nonoverlapping_one17h23d263dfd3757559E
	.loc	13 690 2
	addq	$24, %rsp
	.cfi_def_cfa_offset 8
	retq
.Ltmp507:
.Lfunc_end51:
	.size	_ZN4core3mem4swap17h2405e04dd288a89dE, .Lfunc_end51-_ZN4core3mem4swap17h2405e04dd288a89dE
	.cfi_endproc

	.section	.text._ZN4core3mem4swap17h27997c21d9e5b6d6E,"ax",@progbits
	.p2align	4, 0x90
	.type	_ZN4core3mem4swap17h27997c21d9e5b6d6E,@function
_ZN4core3mem4swap17h27997c21d9e5b6d6E:
.Lfunc_begin52:
	.loc	13 684 0
	.cfi_startproc
	subq	$24, %rsp
	.cfi_def_cfa_offset 32
	movq	%rdi, 8(%rsp)
	movq	%rsi, 16(%rsp)
.Ltmp508:
	.loc	13 688 9 prologue_end
	callq	_ZN4core3ptr23swap_nonoverlapping_one17h6f18ba1f3aebc6a4E
	.loc	13 690 2
	addq	$24, %rsp
	.cfi_def_cfa_offset 8
	retq
.Ltmp509:
.Lfunc_end52:
	.size	_ZN4core3mem4swap17h27997c21d9e5b6d6E, .Lfunc_end52-_ZN4core3mem4swap17h27997c21d9e5b6d6E
	.cfi_endproc

	.section	.text._ZN4core3mem4take17h9e2de0b9d70c1952E,"ax",@progbits
	.p2align	4, 0x90
	.type	_ZN4core3mem4take17h9e2de0b9d70c1952E,@function
_ZN4core3mem4take17h9e2de0b9d70c1952E:
.Lfunc_begin53:
	.loc	13 749 0
	.cfi_startproc
	subq	$56, %rsp
	.cfi_def_cfa_offset 64
	movq	%rdi, %rax
	movq	%rsi, 48(%rsp)
.Ltmp510:
	.loc	13 750 19 prologue_end
	leaq	24(%rsp), %rcx
	movq	%rdi, 16(%rsp)
	movq	%rcx, %rdi
	movq	%rsi, 8(%rsp)
	movq	%rax, (%rsp)
	callq	_ZN72_$LT$core..option..Option$LT$T$GT$$u20$as$u20$core..default..Default$GT$7default17h2e2873fabd6eaca8E
	.loc	13 0 19 is_stmt 0
	movq	16(%rsp), %rdi
	movq	8(%rsp), %rsi
	.loc	13 750 5
	leaq	24(%rsp), %rdx
	callq	_ZN4core3mem7replace17h32b1774d59e50016E
	.loc	13 0 5
	movq	(%rsp), %rax
	.loc	13 751 2 is_stmt 1
	addq	$56, %rsp
	.cfi_def_cfa_offset 8
	retq
.Ltmp511:
.Lfunc_end53:
	.size	_ZN4core3mem4take17h9e2de0b9d70c1952E, .Lfunc_end53-_ZN4core3mem4take17h9e2de0b9d70c1952E
	.cfi_endproc

	.section	.text._ZN4core3mem4take17hd1e1c1efe333a09aE,"ax",@progbits
	.p2align	4, 0x90
	.type	_ZN4core3mem4take17hd1e1c1efe333a09aE,@function
_ZN4core3mem4take17hd1e1c1efe333a09aE:
.Lfunc_begin54:
	.loc	13 749 0
	.cfi_startproc
	subq	$56, %rsp
	.cfi_def_cfa_offset 64
	movq	%rdi, 48(%rsp)
	movq	%rdi, 40(%rsp)
.Ltmp512:
	.loc	13 750 19 prologue_end
	callq	_ZN72_$LT$core..option..Option$LT$T$GT$$u20$as$u20$core..default..Default$GT$7default17h1a983261f2e60ec3E
	movq	%rax, 32(%rsp)
	movq	%rdx, 24(%rsp)
	.loc	13 0 19 is_stmt 0
	movq	40(%rsp), %rdi
	movq	32(%rsp), %rsi
	movq	24(%rsp), %rdx
	.loc	13 750 5
	callq	_ZN4core3mem7replace17h2c1e22964ec7a289E
	movq	%rax, 16(%rsp)
	movq	%rdx, 8(%rsp)
	.loc	13 0 5
	movq	16(%rsp), %rax
	movq	8(%rsp), %rdx
	.loc	13 751 2 is_stmt 1
	addq	$56, %rsp
	.cfi_def_cfa_offset 8
	retq
.Ltmp513:
.Lfunc_end54:
	.size	_ZN4core3mem4take17hd1e1c1efe333a09aE, .Lfunc_end54-_ZN4core3mem4take17hd1e1c1efe333a09aE
	.cfi_endproc

	.section	.text._ZN4core3mem7replace17h2c1e22964ec7a289E,"ax",@progbits
	.p2align	4, 0x90
	.type	_ZN4core3mem7replace17h2c1e22964ec7a289E,@function
_ZN4core3mem7replace17h2c1e22964ec7a289E:
.Lfunc_begin55:
	.loc	13 814 0
	.cfi_startproc
	.cfi_personality 155, DW.ref.rust_eh_personality
	.cfi_lsda 27, .Lexception10
	subq	$40, %rsp
	.cfi_def_cfa_offset 48
	movq	%rsi, (%rsp)
	movq	%rdx, 8(%rsp)
	movq	%rdi, 16(%rsp)
.Ltmp514:
	movq	%rsp, %rsi
.Ltmp517:
	.loc	13 815 5 prologue_end
	callq	_ZN4core3mem4swap17h27997c21d9e5b6d6E
.Ltmp515:
	jmp	.LBB55_1
.LBB55_1:
	.loc	13 816 5
	movq	(%rsp), %rax
	movq	8(%rsp), %rdx
	.loc	13 817 2
	addq	$40, %rsp
	.cfi_def_cfa_offset 8
	retq
.LBB55_2:
	.cfi_def_cfa_offset 48
	.loc	13 817 1 is_stmt 0
	movq	%rsp, %rdi
	callq	_ZN4core3ptr13drop_in_place17h57812f94d899d765E
	.loc	13 814 1 is_stmt 1
	movq	24(%rsp), %rdi
	callq	_Unwind_Resume@PLT
	ud2
.Ltmp518:
.LBB55_4:
.Ltmp516:
	.loc	13 0 1 is_stmt 0
	movq	%rax, 24(%rsp)
	movl	%edx, 32(%rsp)
	jmp	.LBB55_2
.Lfunc_end55:
	.size	_ZN4core3mem7replace17h2c1e22964ec7a289E, .Lfunc_end55-_ZN4core3mem7replace17h2c1e22964ec7a289E
	.cfi_endproc
	.section	.gcc_except_table,"a",@progbits
	.p2align	2
GCC_except_table55:
.Lexception10:
	.byte	255
	.byte	255
	.byte	1
	.uleb128 .Lcst_end10-.Lcst_begin10
.Lcst_begin10:
	.uleb128 .Ltmp514-.Lfunc_begin55
	.uleb128 .Ltmp515-.Ltmp514
	.uleb128 .Ltmp516-.Lfunc_begin55
	.byte	0
	.uleb128 .Ltmp515-.Lfunc_begin55
	.uleb128 .Lfunc_end55-.Ltmp515
	.byte	0
	.byte	0
.Lcst_end10:
	.p2align	2

	.section	.text._ZN4core3mem7replace17h32b1774d59e50016E,"ax",@progbits
	.p2align	4, 0x90
	.type	_ZN4core3mem7replace17h32b1774d59e50016E,@function
_ZN4core3mem7replace17h32b1774d59e50016E:
.Lfunc_begin56:
	.loc	13 814 0 is_stmt 1
	.cfi_startproc
	.cfi_personality 155, DW.ref.rust_eh_personality
	.cfi_lsda 27, .Lexception11
	subq	$56, %rsp
	.cfi_def_cfa_offset 64
	movq	%rdi, %rax
	movq	%rsi, 32(%rsp)
.Ltmp519:
	movq	%rdi, 24(%rsp)
.Ltmp522:
	.loc	13 815 5 prologue_end
	movq	%rsi, %rdi
	movq	%rdx, %rsi
	movq	%rdx, 16(%rsp)
.Ltmp523:
	.loc	13 0 5 is_stmt 0
	movq	%rax, 8(%rsp)
	.loc	13 815 5
	callq	_ZN4core3mem4swap17h2405e04dd288a89dE
.Ltmp520:
	jmp	.LBB56_1
.Ltmp524:
.LBB56_1:
	.loc	13 0 5
	movq	16(%rsp), %rax
	.loc	13 816 5 is_stmt 1
	movq	(%rax), %rcx
	movq	24(%rsp), %rdx
	movq	%rcx, (%rdx)
	movq	8(%rax), %rcx
	movq	%rcx, 8(%rdx)
	movq	16(%rax), %rcx
	movq	%rcx, 16(%rdx)
	movq	8(%rsp), %rax
	.loc	13 817 2
	addq	$56, %rsp
	.cfi_def_cfa_offset 8
	retq
.Ltmp525:
.LBB56_2:
	.cfi_def_cfa_offset 64
	.loc	13 0 2 is_stmt 0
	movq	16(%rsp), %rdi
	.loc	13 817 1
	callq	_ZN4core3ptr13drop_in_place17h6db327b662b53bfcE
.Ltmp526:
	.loc	13 814 1 is_stmt 1
	movq	40(%rsp), %rdi
	callq	_Unwind_Resume@PLT
	ud2
.Ltmp527:
.LBB56_4:
.Ltmp521:
	.loc	13 0 1 is_stmt 0
	movq	%rax, 40(%rsp)
	movl	%edx, 48(%rsp)
	jmp	.LBB56_2
.Lfunc_end56:
	.size	_ZN4core3mem7replace17h32b1774d59e50016E, .Lfunc_end56-_ZN4core3mem7replace17h32b1774d59e50016E
	.cfi_endproc
	.section	.gcc_except_table,"a",@progbits
	.p2align	2
GCC_except_table56:
.Lexception11:
	.byte	255
	.byte	255
	.byte	1
	.uleb128 .Lcst_end11-.Lcst_begin11
.Lcst_begin11:
	.uleb128 .Ltmp519-.Lfunc_begin56
	.uleb128 .Ltmp520-.Ltmp519
	.uleb128 .Ltmp521-.Lfunc_begin56
	.byte	0
	.uleb128 .Ltmp520-.Lfunc_begin56
	.uleb128 .Lfunc_end56-.Ltmp520
	.byte	0
	.byte	0
.Lcst_end11:
	.p2align	2

	.section	.text._ZN4core3num7nonzero12NonZeroUsize13new_unchecked17h1e7e696565538674E,"ax",@progbits
	.p2align	4, 0x90
	.type	_ZN4core3num7nonzero12NonZeroUsize13new_unchecked17h1e7e696565538674E,@function
_ZN4core3num7nonzero12NonZeroUsize13new_unchecked17h1e7e696565538674E:
.Lfunc_begin57:
	.file	14 "/rustc/e1884a8e3c3e813aada8254edfa120e85bf5ffca/library/core/src/num/nonzero.rs"
	.loc	14 62 0 is_stmt 1
	.cfi_startproc
	subq	$16, %rsp
	.cfi_def_cfa_offset 24
	movq	%rdi, 8(%rsp)
.Ltmp528:
	.loc	14 64 30 prologue_end
	movq	%rdi, (%rsp)
	.loc	14 65 18
	movq	(%rsp), %rax
	addq	$16, %rsp
	.cfi_def_cfa_offset 8
	retq
.Ltmp529:
.Lfunc_end57:
	.size	_ZN4core3num7nonzero12NonZeroUsize13new_unchecked17h1e7e696565538674E, .Lfunc_end57-_ZN4core3num7nonzero12NonZeroUsize13new_unchecked17h1e7e696565538674E
	.cfi_endproc

	.section	.text._ZN4core3num7nonzero12NonZeroUsize3get17hc3979e9a3aa1cfa1E,"ax",@progbits
	.p2align	4, 0x90
	.type	_ZN4core3num7nonzero12NonZeroUsize3get17hc3979e9a3aa1cfa1E,@function
_ZN4core3num7nonzero12NonZeroUsize3get17hc3979e9a3aa1cfa1E:
.Lfunc_begin58:
	.loc	14 84 0
	.cfi_startproc
	pushq	%rax
	.cfi_def_cfa_offset 16
	movq	%rdi, (%rsp)
.Ltmp530:
	.loc	14 86 18 prologue_end
	movq	%rdi, %rax
	popq	%rcx
	.cfi_def_cfa_offset 8
	retq
.Ltmp531:
.Lfunc_end58:
	.size	_ZN4core3num7nonzero12NonZeroUsize3get17hc3979e9a3aa1cfa1E, .Lfunc_end58-_ZN4core3num7nonzero12NonZeroUsize3get17hc3979e9a3aa1cfa1E
	.cfi_endproc

	.section	".text._ZN4core3ops8function6FnOnce40call_once$u7b$$u7b$vtable.shim$u7d$$u7d$17h442d0509b6284a7cE","ax",@progbits
	.p2align	4, 0x90
	.type	_ZN4core3ops8function6FnOnce40call_once$u7b$$u7b$vtable.shim$u7d$$u7d$17h442d0509b6284a7cE,@function
_ZN4core3ops8function6FnOnce40call_once$u7b$$u7b$vtable.shim$u7d$$u7d$17h442d0509b6284a7cE:
.Lfunc_begin59:
	.file	15 "/rustc/e1884a8e3c3e813aada8254edfa120e85bf5ffca/library/core/src/ops/function.rs"
	.loc	15 227 0
	.cfi_startproc
	subq	$24, %rsp
	.cfi_def_cfa_offset 32
	movq	%rdi, 16(%rsp)
.Ltmp532:
	.loc	15 227 5 prologue_end
	callq	_ZN3std6thread7Builder15spawn_unchecked28_$u7b$$u7b$closure$u7d$$u7d$17hfcc6f2bc6d5a535cE
	addq	$24, %rsp
	.cfi_def_cfa_offset 8
	retq
.Ltmp533:
.Lfunc_end59:
	.size	_ZN4core3ops8function6FnOnce40call_once$u7b$$u7b$vtable.shim$u7d$$u7d$17h442d0509b6284a7cE, .Lfunc_end59-_ZN4core3ops8function6FnOnce40call_once$u7b$$u7b$vtable.shim$u7d$$u7d$17h442d0509b6284a7cE
	.cfi_endproc

	.section	".text._ZN4core3ops8function6FnOnce40call_once$u7b$$u7b$vtable.shim$u7d$$u7d$17h619cfe4ad0e4a3bfE","ax",@progbits
	.p2align	4, 0x90
	.type	_ZN4core3ops8function6FnOnce40call_once$u7b$$u7b$vtable.shim$u7d$$u7d$17h619cfe4ad0e4a3bfE,@function
_ZN4core3ops8function6FnOnce40call_once$u7b$$u7b$vtable.shim$u7d$$u7d$17h619cfe4ad0e4a3bfE:
.Lfunc_begin60:
	.loc	15 227 0
	.cfi_startproc
	subq	$24, %rsp
	.cfi_def_cfa_offset 32
	movq	%rdi, 16(%rsp)
.Ltmp534:
	.loc	15 227 5 prologue_end
	callq	_ZN3std6thread7Builder15spawn_unchecked28_$u7b$$u7b$closure$u7d$$u7d$17hfdd23d8a72510032E
	addq	$24, %rsp
	.cfi_def_cfa_offset 8
	retq
.Ltmp535:
.Lfunc_end60:
	.size	_ZN4core3ops8function6FnOnce40call_once$u7b$$u7b$vtable.shim$u7d$$u7d$17h619cfe4ad0e4a3bfE, .Lfunc_end60-_ZN4core3ops8function6FnOnce40call_once$u7b$$u7b$vtable.shim$u7d$$u7d$17h619cfe4ad0e4a3bfE
	.cfi_endproc

	.section	".text._ZN4core3ops8function6FnOnce40call_once$u7b$$u7b$vtable.shim$u7d$$u7d$17ha29d52384c9f5c05E","ax",@progbits
	.p2align	4, 0x90
	.type	_ZN4core3ops8function6FnOnce40call_once$u7b$$u7b$vtable.shim$u7d$$u7d$17ha29d52384c9f5c05E,@function
_ZN4core3ops8function6FnOnce40call_once$u7b$$u7b$vtable.shim$u7d$$u7d$17ha29d52384c9f5c05E:
.Lfunc_begin61:
	.loc	15 227 0
	.cfi_startproc
	subq	$24, %rsp
	.cfi_def_cfa_offset 32
	movq	%rdi, 16(%rsp)
.Ltmp536:
	.loc	15 227 5 prologue_end
	movq	(%rdi), %rdi
	callq	_ZN4core3ops8function6FnOnce9call_once17hfcfd156cb3243ddeE
	movl	%eax, 4(%rsp)
	.loc	15 0 5 is_stmt 0
	movl	4(%rsp), %eax
	.loc	15 227 5
	addq	$24, %rsp
	.cfi_def_cfa_offset 8
	retq
.Ltmp537:
.Lfunc_end61:
	.size	_ZN4core3ops8function6FnOnce40call_once$u7b$$u7b$vtable.shim$u7d$$u7d$17ha29d52384c9f5c05E, .Lfunc_end61-_ZN4core3ops8function6FnOnce40call_once$u7b$$u7b$vtable.shim$u7d$$u7d$17ha29d52384c9f5c05E
	.cfi_endproc

	.section	.text._ZN4core3ops8function6FnOnce9call_once17h7b9f623c98afe090E,"ax",@progbits
	.p2align	4, 0x90
	.type	_ZN4core3ops8function6FnOnce9call_once17h7b9f623c98afe090E,@function
_ZN4core3ops8function6FnOnce9call_once17h7b9f623c98afe090E:
.Lfunc_begin62:
	.loc	15 227 0 is_stmt 1
	.cfi_startproc
	subq	$24, %rsp
	.cfi_def_cfa_offset 32
.Ltmp538:
	.loc	15 227 5 prologue_end
	callq	*_ZN3std10sys_common6thread9min_stack17ha8d435787c72edd6E@GOTPCREL(%rip)
	movq	%rax, (%rsp)
	.loc	15 0 5 is_stmt 0
	movq	(%rsp), %rax
	.loc	15 227 5
	addq	$24, %rsp
	.cfi_def_cfa_offset 8
	retq
.Ltmp539:
.Lfunc_end62:
	.size	_ZN4core3ops8function6FnOnce9call_once17h7b9f623c98afe090E, .Lfunc_end62-_ZN4core3ops8function6FnOnce9call_once17h7b9f623c98afe090E
	.cfi_endproc

	.section	.text._ZN4core3ops8function6FnOnce9call_once17h889aaf6d1de3dbd2E,"ax",@progbits
	.p2align	4, 0x90
	.type	_ZN4core3ops8function6FnOnce9call_once17h889aaf6d1de3dbd2E,@function
_ZN4core3ops8function6FnOnce9call_once17h889aaf6d1de3dbd2E:
.Lfunc_begin63:
	.loc	15 227 0 is_stmt 1
	.cfi_startproc
	subq	$24, %rsp
	.cfi_def_cfa_offset 32
	movq	%rdi, 16(%rsp)
.Ltmp540:
	.loc	15 227 5 prologue_end
	callq	*%rdi
	addq	$24, %rsp
	.cfi_def_cfa_offset 8
	retq
.Ltmp541:
.Lfunc_end63:
	.size	_ZN4core3ops8function6FnOnce9call_once17h889aaf6d1de3dbd2E, .Lfunc_end63-_ZN4core3ops8function6FnOnce9call_once17h889aaf6d1de3dbd2E
	.cfi_endproc

	.section	.text._ZN4core3ops8function6FnOnce9call_once17hfcfd156cb3243ddeE,"ax",@progbits
	.p2align	4, 0x90
	.type	_ZN4core3ops8function6FnOnce9call_once17hfcfd156cb3243ddeE,@function
_ZN4core3ops8function6FnOnce9call_once17hfcfd156cb3243ddeE:
.Lfunc_begin64:
	.loc	15 227 0
	.cfi_startproc
	.cfi_personality 155, DW.ref.rust_eh_personality
	.cfi_lsda 27, .Lexception12
	subq	$40, %rsp
	.cfi_def_cfa_offset 48
	movq	%rdi, 8(%rsp)
.Ltmp542:
	leaq	8(%rsp), %rdi
.Ltmp545:
	.loc	15 227 5 prologue_end
	callq	_ZN3std2rt10lang_start28_$u7b$$u7b$closure$u7d$$u7d$17h7e246624bf518cbdE
.Ltmp543:
	movl	%eax, 4(%rsp)
	jmp	.LBB64_1
.LBB64_1:
	jmp	.LBB64_2
.LBB64_2:
	.loc	15 0 5 is_stmt 0
	movl	4(%rsp), %eax
	.loc	15 227 5
	addq	$40, %rsp
	.cfi_def_cfa_offset 8
	retq
.LBB64_3:
	.cfi_def_cfa_offset 48
	jmp	.LBB64_4
.LBB64_4:
	movq	24(%rsp), %rdi
	callq	_Unwind_Resume@PLT
	ud2
.Ltmp546:
.LBB64_5:
.Ltmp544:
	.loc	15 0 5
	movq	%rax, 24(%rsp)
	movl	%edx, 32(%rsp)
	jmp	.LBB64_3
.Lfunc_end64:
	.size	_ZN4core3ops8function6FnOnce9call_once17hfcfd156cb3243ddeE, .Lfunc_end64-_ZN4core3ops8function6FnOnce9call_once17hfcfd156cb3243ddeE
	.cfi_endproc
	.section	.gcc_except_table,"a",@progbits
	.p2align	2
GCC_except_table64:
.Lexception12:
	.byte	255
	.byte	255
	.byte	1
	.uleb128 .Lcst_end12-.Lcst_begin12
.Lcst_begin12:
	.uleb128 .Ltmp542-.Lfunc_begin64
	.uleb128 .Ltmp543-.Ltmp542
	.uleb128 .Ltmp544-.Lfunc_begin64
	.byte	0
	.uleb128 .Ltmp543-.Lfunc_begin64
	.uleb128 .Lfunc_end64-.Ltmp543
	.byte	0
	.byte	0
.Lcst_end12:
	.p2align	2

	.section	.text._ZN4core3ptr13drop_in_place17h008419203b7a330fE,"ax",@progbits
	.p2align	4, 0x90
	.type	_ZN4core3ptr13drop_in_place17h008419203b7a330fE,@function
_ZN4core3ptr13drop_in_place17h008419203b7a330fE:
.Lfunc_begin65:
	.file	16 "/rustc/e1884a8e3c3e813aada8254edfa120e85bf5ffca/library/core/src/ptr/mod.rs"
	.loc	16 175 0 is_stmt 1
	.cfi_startproc
	subq	$24, %rsp
	.cfi_def_cfa_offset 32
	movq	%rdi, 16(%rsp)
.Ltmp547:
	.loc	16 175 1 prologue_end
	callq	_ZN4core3ptr13drop_in_place17hf7951811f6675f9bE
	addq	$24, %rsp
	.cfi_def_cfa_offset 8
	retq
.Ltmp548:
.Lfunc_end65:
	.size	_ZN4core3ptr13drop_in_place17h008419203b7a330fE, .Lfunc_end65-_ZN4core3ptr13drop_in_place17h008419203b7a330fE
	.cfi_endproc

	.section	.text._ZN4core3ptr13drop_in_place17h121b523a3ede0d16E,"ax",@progbits
	.p2align	4, 0x90
	.type	_ZN4core3ptr13drop_in_place17h121b523a3ede0d16E,@function
_ZN4core3ptr13drop_in_place17h121b523a3ede0d16E:
.Lfunc_begin66:
	.loc	16 175 0
	.cfi_startproc
	.cfi_personality 155, DW.ref.rust_eh_personality
	.cfi_lsda 27, .Lexception13
	subq	$40, %rsp
	.cfi_def_cfa_offset 48
	movq	%rdi, 16(%rsp)
.Ltmp549:
	movq	%rdi, (%rsp)
.Ltmp552:
	.loc	16 175 1 prologue_end
	callq	_ZN66_$LT$alloc..vec..Vec$LT$T$GT$$u20$as$u20$core..ops..drop..Drop$GT$4drop17h8d23ad096b99b780E
.Ltmp550:
	jmp	.LBB66_4
.LBB66_1:
	movq	24(%rsp), %rdi
	callq	_Unwind_Resume@PLT
	ud2
.LBB66_2:
	addq	$40, %rsp
	.cfi_def_cfa_offset 8
	retq
.LBB66_3:
	.cfi_def_cfa_offset 48
	.loc	16 0 1 is_stmt 0
	movq	(%rsp), %rax
	.loc	16 175 1
	movq	%rax, %rdi
	callq	_ZN4core3ptr13drop_in_place17h655348e52732f548E
	jmp	.LBB66_1
.LBB66_4:
	.loc	16 0 1
	movq	(%rsp), %rax
	.loc	16 175 1
	movq	%rax, %rdi
	callq	_ZN4core3ptr13drop_in_place17h655348e52732f548E
	jmp	.LBB66_2
.Ltmp553:
.LBB66_5:
.Ltmp551:
	.loc	16 0 1
	movq	%rax, 24(%rsp)
	movl	%edx, 32(%rsp)
	jmp	.LBB66_3
.Lfunc_end66:
	.size	_ZN4core3ptr13drop_in_place17h121b523a3ede0d16E, .Lfunc_end66-_ZN4core3ptr13drop_in_place17h121b523a3ede0d16E
	.cfi_endproc
	.section	.gcc_except_table,"a",@progbits
	.p2align	2
GCC_except_table66:
.Lexception13:
	.byte	255
	.byte	255
	.byte	1
	.uleb128 .Lcst_end13-.Lcst_begin13
.Lcst_begin13:
	.uleb128 .Ltmp549-.Lfunc_begin66
	.uleb128 .Ltmp550-.Ltmp549
	.uleb128 .Ltmp551-.Lfunc_begin66
	.byte	0
	.uleb128 .Ltmp550-.Lfunc_begin66
	.uleb128 .Lfunc_end66-.Ltmp550
	.byte	0
	.byte	0
.Lcst_end13:
	.p2align	2

	.section	.text._ZN4core3ptr13drop_in_place17h3326af2098ec787fE,"ax",@progbits
	.p2align	4, 0x90
	.type	_ZN4core3ptr13drop_in_place17h3326af2098ec787fE,@function
_ZN4core3ptr13drop_in_place17h3326af2098ec787fE:
.Lfunc_begin67:
	.loc	16 175 0 is_stmt 1
	.cfi_startproc
	subq	$24, %rsp
	.cfi_def_cfa_offset 32
	movq	%rdi, 16(%rsp)
.Ltmp554:
	.loc	16 175 1 prologue_end
	callq	_ZN68_$LT$alloc..sync..Weak$LT$T$GT$$u20$as$u20$core..ops..drop..Drop$GT$4drop17hba755b9840c7acf0E
	addq	$24, %rsp
	.cfi_def_cfa_offset 8
	retq
.Ltmp555:
.Lfunc_end67:
	.size	_ZN4core3ptr13drop_in_place17h3326af2098ec787fE, .Lfunc_end67-_ZN4core3ptr13drop_in_place17h3326af2098ec787fE
	.cfi_endproc

	.section	.text._ZN4core3ptr13drop_in_place17h3368d86f214a7901E,"ax",@progbits
	.p2align	4, 0x90
	.type	_ZN4core3ptr13drop_in_place17h3368d86f214a7901E,@function
_ZN4core3ptr13drop_in_place17h3368d86f214a7901E:
.Lfunc_begin68:
	.loc	16 175 0
	.cfi_startproc
	subq	$24, %rsp
	.cfi_def_cfa_offset 32
	xorl	%eax, %eax
	movl	%eax, %ecx
	movq	%rdi, 16(%rsp)
.Ltmp556:
	.loc	16 175 1 prologue_end
	cmpq	$0, (%rdi)
	movl	$1, %edx
	cmoveq	%rcx, %rdx
	cmpq	$0, %rdx
	movq	%rdi, (%rsp)
	jne	.LBB68_2
.LBB68_1:
	addq	$24, %rsp
	.cfi_def_cfa_offset 8
	retq
.LBB68_2:
	.cfi_def_cfa_offset 32
	.loc	16 0 1 is_stmt 0
	movq	(%rsp), %rax
	.loc	16 175 1
	movq	%rax, %rdi
	callq	_ZN4core3ptr13drop_in_place17h970cd7fa75fac652E
	jmp	.LBB68_1
.Ltmp557:
.Lfunc_end68:
	.size	_ZN4core3ptr13drop_in_place17h3368d86f214a7901E, .Lfunc_end68-_ZN4core3ptr13drop_in_place17h3368d86f214a7901E
	.cfi_endproc

	.section	.text._ZN4core3ptr13drop_in_place17h423ce9818a7b6eeaE,"ax",@progbits
	.p2align	4, 0x90
	.type	_ZN4core3ptr13drop_in_place17h423ce9818a7b6eeaE,@function
_ZN4core3ptr13drop_in_place17h423ce9818a7b6eeaE:
.Lfunc_begin69:
	.loc	16 175 0 is_stmt 1
	.cfi_startproc
	subq	$24, %rsp
	.cfi_def_cfa_offset 32
	movq	%rdi, 16(%rsp)
.Ltmp558:
	.loc	16 175 1 prologue_end
	callq	_ZN68_$LT$alloc..sync..Weak$LT$T$GT$$u20$as$u20$core..ops..drop..Drop$GT$4drop17h4ba71df97608c0e5E
	addq	$24, %rsp
	.cfi_def_cfa_offset 8
	retq
.Ltmp559:
.Lfunc_end69:
	.size	_ZN4core3ptr13drop_in_place17h423ce9818a7b6eeaE, .Lfunc_end69-_ZN4core3ptr13drop_in_place17h423ce9818a7b6eeaE
	.cfi_endproc

	.section	.text._ZN4core3ptr13drop_in_place17h429f3068f4270bf0E,"ax",@progbits
	.p2align	4, 0x90
	.type	_ZN4core3ptr13drop_in_place17h429f3068f4270bf0E,@function
_ZN4core3ptr13drop_in_place17h429f3068f4270bf0E:
.Lfunc_begin70:
	.loc	16 175 0
	.cfi_startproc
	subq	$24, %rsp
	.cfi_def_cfa_offset 32
	xorl	%eax, %eax
	movl	%eax, %ecx
	movq	%rdi, 16(%rsp)
.Ltmp560:
	.loc	16 175 1 prologue_end
	cmpq	$0, (%rdi)
	movl	$1, %edx
	cmoveq	%rcx, %rdx
	cmpq	$0, %rdx
	movq	%rdi, (%rsp)
	jne	.LBB70_2
.LBB70_1:
	addq	$24, %rsp
	.cfi_def_cfa_offset 8
	retq
.LBB70_2:
	.cfi_def_cfa_offset 32
	.loc	16 0 1 is_stmt 0
	movq	(%rsp), %rax
	.loc	16 175 1
	movq	%rax, %rdi
	callq	_ZN4core3ptr13drop_in_place17he423362ab10962f3E
	jmp	.LBB70_1
.Ltmp561:
.Lfunc_end70:
	.size	_ZN4core3ptr13drop_in_place17h429f3068f4270bf0E, .Lfunc_end70-_ZN4core3ptr13drop_in_place17h429f3068f4270bf0E
	.cfi_endproc

	.section	.text._ZN4core3ptr13drop_in_place17h43321b7a006f7127E,"ax",@progbits
	.p2align	4, 0x90
	.type	_ZN4core3ptr13drop_in_place17h43321b7a006f7127E,@function
_ZN4core3ptr13drop_in_place17h43321b7a006f7127E:
.Lfunc_begin71:
	.loc	16 175 0 is_stmt 1
	.cfi_startproc
	subq	$24, %rsp
	.cfi_def_cfa_offset 32
	movq	%rdi, 16(%rsp)
.Ltmp562:
	.loc	16 175 1 prologue_end
	callq	_ZN4core3ptr13drop_in_place17h4c6d8a95856c7a59E
	addq	$24, %rsp
	.cfi_def_cfa_offset 8
	retq
.Ltmp563:
.Lfunc_end71:
	.size	_ZN4core3ptr13drop_in_place17h43321b7a006f7127E, .Lfunc_end71-_ZN4core3ptr13drop_in_place17h43321b7a006f7127E
	.cfi_endproc

	.section	.text._ZN4core3ptr13drop_in_place17h4c6d8a95856c7a59E,"ax",@progbits
	.p2align	4, 0x90
	.type	_ZN4core3ptr13drop_in_place17h4c6d8a95856c7a59E,@function
_ZN4core3ptr13drop_in_place17h4c6d8a95856c7a59E:
.Lfunc_begin72:
	.loc	16 175 0
	.cfi_startproc
	subq	$24, %rsp
	.cfi_def_cfa_offset 32
	movq	%rdi, 16(%rsp)
.Ltmp564:
	.loc	16 175 1 prologue_end
	callq	_ZN67_$LT$alloc..sync..Arc$LT$T$GT$$u20$as$u20$core..ops..drop..Drop$GT$4drop17he5e065875cc2fca0E
	addq	$24, %rsp
	.cfi_def_cfa_offset 8
	retq
.Ltmp565:
.Lfunc_end72:
	.size	_ZN4core3ptr13drop_in_place17h4c6d8a95856c7a59E, .Lfunc_end72-_ZN4core3ptr13drop_in_place17h4c6d8a95856c7a59E
	.cfi_endproc

	.section	.text._ZN4core3ptr13drop_in_place17h4f0cd4e75d1499c3E,"ax",@progbits
	.p2align	4, 0x90
	.type	_ZN4core3ptr13drop_in_place17h4f0cd4e75d1499c3E,@function
_ZN4core3ptr13drop_in_place17h4f0cd4e75d1499c3E:
.Lfunc_begin73:
	.loc	16 175 0
	.cfi_startproc
	subq	$24, %rsp
	.cfi_def_cfa_offset 32
	movq	%rdi, 16(%rsp)
.Ltmp566:
	.loc	16 175 1 prologue_end
	callq	_ZN4core3ptr13drop_in_place17ha6c680225a735e39E
	addq	$24, %rsp
	.cfi_def_cfa_offset 8
	retq
.Ltmp567:
.Lfunc_end73:
	.size	_ZN4core3ptr13drop_in_place17h4f0cd4e75d1499c3E, .Lfunc_end73-_ZN4core3ptr13drop_in_place17h4f0cd4e75d1499c3E
	.cfi_endproc

	.section	.text._ZN4core3ptr13drop_in_place17h57812f94d899d765E,"ax",@progbits
	.p2align	4, 0x90
	.type	_ZN4core3ptr13drop_in_place17h57812f94d899d765E,@function
_ZN4core3ptr13drop_in_place17h57812f94d899d765E:
.Lfunc_begin74:
	.loc	16 175 0
	.cfi_startproc
	subq	$24, %rsp
	.cfi_def_cfa_offset 32
	movq	%rdi, 16(%rsp)
.Ltmp568:
	.loc	16 175 1 prologue_end
	cmpq	$0, (%rdi)
	movq	%rdi, (%rsp)
	jne	.LBB74_2
.LBB74_1:
	addq	$24, %rsp
	.cfi_def_cfa_offset 8
	retq
.LBB74_2:
	.cfi_def_cfa_offset 32
	.loc	16 0 1 is_stmt 0
	movq	(%rsp), %rax
	.loc	16 175 1
	addq	$8, %rax
	movq	%rax, %rdi
	callq	_ZN4core3ptr13drop_in_place17had9bbc1af6270cacE
	jmp	.LBB74_1
.Ltmp569:
.Lfunc_end74:
	.size	_ZN4core3ptr13drop_in_place17h57812f94d899d765E, .Lfunc_end74-_ZN4core3ptr13drop_in_place17h57812f94d899d765E
	.cfi_endproc

	.section	.text._ZN4core3ptr13drop_in_place17h655348e52732f548E,"ax",@progbits
	.p2align	4, 0x90
	.type	_ZN4core3ptr13drop_in_place17h655348e52732f548E,@function
_ZN4core3ptr13drop_in_place17h655348e52732f548E:
.Lfunc_begin75:
	.loc	16 175 0 is_stmt 1
	.cfi_startproc
	subq	$24, %rsp
	.cfi_def_cfa_offset 32
	movq	%rdi, 16(%rsp)
.Ltmp570:
	.loc	16 175 1 prologue_end
	callq	_ZN77_$LT$alloc..raw_vec..RawVec$LT$T$C$A$GT$$u20$as$u20$core..ops..drop..Drop$GT$4drop17h55d06852169a3451E
	addq	$24, %rsp
	.cfi_def_cfa_offset 8
	retq
.Ltmp571:
.Lfunc_end75:
	.size	_ZN4core3ptr13drop_in_place17h655348e52732f548E, .Lfunc_end75-_ZN4core3ptr13drop_in_place17h655348e52732f548E
	.cfi_endproc

	.section	.text._ZN4core3ptr13drop_in_place17h6af12acc0fc3ebccE,"ax",@progbits
	.p2align	4, 0x90
	.type	_ZN4core3ptr13drop_in_place17h6af12acc0fc3ebccE,@function
_ZN4core3ptr13drop_in_place17h6af12acc0fc3ebccE:
.Lfunc_begin76:
	.loc	16 175 0
	.cfi_startproc
	subq	$24, %rsp
	.cfi_def_cfa_offset 32
	movq	%rdi, 16(%rsp)
.Ltmp572:
	.loc	16 175 1 prologue_end
	movb	(%rdi), %al
	subb	$1, %al
	movq	%rdi, (%rsp)
	ja	.LBB76_2
	jmp	.LBB76_1
.LBB76_1:
	addq	$24, %rsp
	.cfi_def_cfa_offset 8
	retq
.LBB76_2:
	.cfi_def_cfa_offset 32
	.loc	16 0 1 is_stmt 0
	movq	(%rsp), %rax
	.loc	16 175 1
	addq	$8, %rax
	movq	%rax, %rdi
	callq	_ZN4core3ptr13drop_in_place17h6bc272e9154d9290E
	jmp	.LBB76_1
.Ltmp573:
.Lfunc_end76:
	.size	_ZN4core3ptr13drop_in_place17h6af12acc0fc3ebccE, .Lfunc_end76-_ZN4core3ptr13drop_in_place17h6af12acc0fc3ebccE
	.cfi_endproc

	.section	.text._ZN4core3ptr13drop_in_place17h6bc272e9154d9290E,"ax",@progbits
	.p2align	4, 0x90
	.type	_ZN4core3ptr13drop_in_place17h6bc272e9154d9290E,@function
_ZN4core3ptr13drop_in_place17h6bc272e9154d9290E:
.Lfunc_begin77:
	.loc	16 175 0 is_stmt 1
	.cfi_startproc
	.cfi_personality 155, DW.ref.rust_eh_personality
	.cfi_lsda 27, .Lexception14
	subq	$40, %rsp
	.cfi_def_cfa_offset 48
	movq	%rdi, 16(%rsp)
.Ltmp577:
	.loc	16 175 1 prologue_end
	movq	(%rdi), %rax
.Ltmp574:
	movq	%rdi, (%rsp)
	movq	%rax, %rdi
	callq	_ZN4core3ptr13drop_in_place17hc533bfe091ec0567E
.Ltmp575:
	jmp	.LBB77_3
.LBB77_1:
	addq	$40, %rsp
	.cfi_def_cfa_offset 8
	retq
.LBB77_2:
	.cfi_def_cfa_offset 48
	movq	24(%rsp), %rdi
	callq	_Unwind_Resume@PLT
	ud2
.LBB77_3:
	.loc	16 0 1 is_stmt 0
	movq	(%rsp), %rax
	.loc	16 175 1
	movq	(%rax), %rdi
	callq	_ZN5alloc5alloc8box_free17hcbaf08e8a02fd25bE
	jmp	.LBB77_1
.LBB77_4:
	.loc	16 0 1
	movq	(%rsp), %rax
	.loc	16 175 1
	movq	(%rax), %rdi
	callq	_ZN5alloc5alloc8box_free17hcbaf08e8a02fd25bE
	jmp	.LBB77_2
.Ltmp578:
.LBB77_5:
.Ltmp576:
	.loc	16 0 1
	movq	%rax, 24(%rsp)
	movl	%edx, 32(%rsp)
	jmp	.LBB77_4
.Lfunc_end77:
	.size	_ZN4core3ptr13drop_in_place17h6bc272e9154d9290E, .Lfunc_end77-_ZN4core3ptr13drop_in_place17h6bc272e9154d9290E
	.cfi_endproc
	.section	.gcc_except_table,"a",@progbits
	.p2align	2
GCC_except_table77:
.Lexception14:
	.byte	255
	.byte	255
	.byte	1
	.uleb128 .Lcst_end14-.Lcst_begin14
.Lcst_begin14:
	.uleb128 .Ltmp574-.Lfunc_begin77
	.uleb128 .Ltmp575-.Ltmp574
	.uleb128 .Ltmp576-.Lfunc_begin77
	.byte	0
	.uleb128 .Ltmp575-.Lfunc_begin77
	.uleb128 .Lfunc_end77-.Ltmp575
	.byte	0
	.byte	0
.Lcst_end14:
	.p2align	2

	.section	.text._ZN4core3ptr13drop_in_place17h6db327b662b53bfcE,"ax",@progbits
	.p2align	4, 0x90
	.type	_ZN4core3ptr13drop_in_place17h6db327b662b53bfcE,@function
_ZN4core3ptr13drop_in_place17h6db327b662b53bfcE:
.Lfunc_begin78:
	.loc	16 175 0 is_stmt 1
	.cfi_startproc
	subq	$24, %rsp
	.cfi_def_cfa_offset 32
	movq	%rdi, 16(%rsp)
.Ltmp579:
	.loc	16 175 1 prologue_end
	cmpq	$0, (%rdi)
	movq	%rdi, (%rsp)
	jne	.LBB78_2
.LBB78_1:
	addq	$24, %rsp
	.cfi_def_cfa_offset 8
	retq
.LBB78_2:
	.cfi_def_cfa_offset 32
	.loc	16 0 1 is_stmt 0
	movq	(%rsp), %rax
	.loc	16 175 1
	addq	$8, %rax
	movq	%rax, %rdi
	callq	_ZN4core3ptr13drop_in_place17h3368d86f214a7901E
	jmp	.LBB78_1
.Ltmp580:
.Lfunc_end78:
	.size	_ZN4core3ptr13drop_in_place17h6db327b662b53bfcE, .Lfunc_end78-_ZN4core3ptr13drop_in_place17h6db327b662b53bfcE
	.cfi_endproc

	.section	.text._ZN4core3ptr13drop_in_place17h83a66bd33d17d6e1E,"ax",@progbits
	.p2align	4, 0x90
	.type	_ZN4core3ptr13drop_in_place17h83a66bd33d17d6e1E,@function
_ZN4core3ptr13drop_in_place17h83a66bd33d17d6e1E:
.Lfunc_begin79:
	.loc	16 175 0 is_stmt 1
	.cfi_startproc
	subq	$24, %rsp
	.cfi_def_cfa_offset 32
	movq	%rdi, 16(%rsp)
.Ltmp581:
	.loc	16 175 1 prologue_end
	callq	_ZN68_$LT$alloc..sync..Weak$LT$T$GT$$u20$as$u20$core..ops..drop..Drop$GT$4drop17h780964eb64bbf8afE
	addq	$24, %rsp
	.cfi_def_cfa_offset 8
	retq
.Ltmp582:
.Lfunc_end79:
	.size	_ZN4core3ptr13drop_in_place17h83a66bd33d17d6e1E, .Lfunc_end79-_ZN4core3ptr13drop_in_place17h83a66bd33d17d6e1E
	.cfi_endproc

	.section	.text._ZN4core3ptr13drop_in_place17h84f3e451f42bf74aE,"ax",@progbits
	.p2align	4, 0x90
	.type	_ZN4core3ptr13drop_in_place17h84f3e451f42bf74aE,@function
_ZN4core3ptr13drop_in_place17h84f3e451f42bf74aE:
.Lfunc_begin80:
	.loc	16 175 0
	.cfi_startproc
	subq	$24, %rsp
	.cfi_def_cfa_offset 32
	movq	%rdi, 16(%rsp)
.Ltmp583:
	.loc	16 175 1 prologue_end
	callq	_ZN67_$LT$alloc..sync..Arc$LT$T$GT$$u20$as$u20$core..ops..drop..Drop$GT$4drop17he681275bad6e405fE
	addq	$24, %rsp
	.cfi_def_cfa_offset 8
	retq
.Ltmp584:
.Lfunc_end80:
	.size	_ZN4core3ptr13drop_in_place17h84f3e451f42bf74aE, .Lfunc_end80-_ZN4core3ptr13drop_in_place17h84f3e451f42bf74aE
	.cfi_endproc

	.section	.text._ZN4core3ptr13drop_in_place17h970cd7fa75fac652E,"ax",@progbits
	.p2align	4, 0x90
	.type	_ZN4core3ptr13drop_in_place17h970cd7fa75fac652E,@function
_ZN4core3ptr13drop_in_place17h970cd7fa75fac652E:
.Lfunc_begin81:
	.loc	16 175 0
	.cfi_startproc
	.cfi_personality 155, DW.ref.rust_eh_personality
	.cfi_lsda 27, .Lexception15
	subq	$40, %rsp
	.cfi_def_cfa_offset 48
	movq	%rdi, 16(%rsp)
.Ltmp588:
	.loc	16 175 1 prologue_end
	movq	(%rdi), %rax
	movq	8(%rdi), %rcx
	movq	(%rcx), %rcx
.Ltmp585:
	movq	%rdi, (%rsp)
	movq	%rax, %rdi
	callq	*%rcx
.Ltmp586:
	jmp	.LBB81_3
.LBB81_1:
	addq	$40, %rsp
	.cfi_def_cfa_offset 8
	retq
.LBB81_2:
	.cfi_def_cfa_offset 48
	movq	24(%rsp), %rdi
	callq	_Unwind_Resume@PLT
	ud2
.LBB81_3:
	.loc	16 0 1 is_stmt 0
	movq	(%rsp), %rax
	.loc	16 175 1
	movq	(%rax), %rdi
	movq	8(%rax), %rsi
	callq	_ZN5alloc5alloc8box_free17hf4b8c11478fd2b89E
	jmp	.LBB81_1
.LBB81_4:
	.loc	16 0 1
	movq	(%rsp), %rax
	.loc	16 175 1
	movq	(%rax), %rdi
	movq	8(%rax), %rsi
	callq	_ZN5alloc5alloc8box_free17hf4b8c11478fd2b89E
	jmp	.LBB81_2
.Ltmp589:
.LBB81_5:
.Ltmp587:
	.loc	16 0 1
	movq	%rax, 24(%rsp)
	movl	%edx, 32(%rsp)
	jmp	.LBB81_4
.Lfunc_end81:
	.size	_ZN4core3ptr13drop_in_place17h970cd7fa75fac652E, .Lfunc_end81-_ZN4core3ptr13drop_in_place17h970cd7fa75fac652E
	.cfi_endproc
	.section	.gcc_except_table,"a",@progbits
	.p2align	2
GCC_except_table81:
.Lexception15:
	.byte	255
	.byte	255
	.byte	1
	.uleb128 .Lcst_end15-.Lcst_begin15
.Lcst_begin15:
	.uleb128 .Ltmp585-.Lfunc_begin81
	.uleb128 .Ltmp586-.Ltmp585
	.uleb128 .Ltmp587-.Lfunc_begin81
	.byte	0
	.uleb128 .Ltmp586-.Lfunc_begin81
	.uleb128 .Lfunc_end81-.Ltmp586
	.byte	0
	.byte	0
.Lcst_end15:
	.p2align	2

	.section	.text._ZN4core3ptr13drop_in_place17ha1ec090eb2ee5f28E,"ax",@progbits
	.p2align	4, 0x90
	.type	_ZN4core3ptr13drop_in_place17ha1ec090eb2ee5f28E,@function
_ZN4core3ptr13drop_in_place17ha1ec090eb2ee5f28E:
.Lfunc_begin82:
	.loc	16 175 0 is_stmt 1
	.cfi_startproc
	.cfi_personality 155, DW.ref.rust_eh_personality
	.cfi_lsda 27, .Lexception16
	subq	$40, %rsp
	.cfi_def_cfa_offset 48
	movq	%rdi, 16(%rsp)
.Ltmp590:
	movq	%rdi, (%rsp)
.Ltmp602:
	.loc	16 175 1 prologue_end
	callq	_ZN4core3ptr13drop_in_place17h008419203b7a330fE
.Ltmp591:
	jmp	.LBB82_10
.LBB82_1:
	movq	24(%rsp), %rdi
	callq	_Unwind_Resume@PLT
	ud2
.LBB82_2:
	addq	$40, %rsp
	.cfi_def_cfa_offset 8
	retq
.LBB82_3:
	.cfi_def_cfa_offset 48
	.loc	16 0 1 is_stmt 0
	movq	(%rsp), %rax
	.loc	16 175 1
	addq	$56, %rax
	movq	%rax, %rdi
	callq	_ZN4core3ptr13drop_in_place17h4c6d8a95856c7a59E
	jmp	.LBB82_1
.LBB82_4:
	.loc	16 0 1
	movq	(%rsp), %rax
	.loc	16 175 1
	addq	$40, %rax
	movq	%rax, %rdi
	callq	_ZN4core3ptr13drop_in_place17hc8d62a2512080bd4E
	jmp	.LBB82_3
.LBB82_5:
	.loc	16 0 1
	movq	(%rsp), %rax
	.loc	16 175 1
	addq	$24, %rax
	movq	%rax, %rdi
	callq	_ZN4core3ptr13drop_in_place17h429f3068f4270bf0E
	jmp	.LBB82_4
.LBB82_6:
	.loc	16 0 1
	movq	(%rsp), %rax
	.loc	16 175 1
	addq	$8, %rax
	movq	%rax, %rdi
	callq	_ZN4core3ptr13drop_in_place17h429f3068f4270bf0E
	jmp	.LBB82_5
.LBB82_7:
	.loc	16 0 1
	movq	(%rsp), %rax
	.loc	16 175 1
	addq	$56, %rax
	movq	%rax, %rdi
	callq	_ZN4core3ptr13drop_in_place17h4c6d8a95856c7a59E
	jmp	.LBB82_2
.LBB82_8:
	.loc	16 0 1
	movq	(%rsp), %rax
	.loc	16 175 1
	addq	$40, %rax
.Ltmp599:
	movq	%rax, %rdi
	callq	_ZN4core3ptr13drop_in_place17hc8d62a2512080bd4E
.Ltmp600:
	jmp	.LBB82_7
.LBB82_9:
	.loc	16 0 1
	movq	(%rsp), %rax
	.loc	16 175 1
	addq	$24, %rax
.Ltmp596:
	movq	%rax, %rdi
	callq	_ZN4core3ptr13drop_in_place17h429f3068f4270bf0E
.Ltmp597:
	jmp	.LBB82_8
.LBB82_10:
	.loc	16 0 1
	movq	(%rsp), %rax
	.loc	16 175 1
	addq	$8, %rax
.Ltmp593:
	movq	%rax, %rdi
	callq	_ZN4core3ptr13drop_in_place17h429f3068f4270bf0E
.Ltmp594:
	jmp	.LBB82_9
.Ltmp603:
.LBB82_11:
.Ltmp592:
	.loc	16 0 1
	movq	%rax, 24(%rsp)
	movl	%edx, 32(%rsp)
	jmp	.LBB82_6
.LBB82_12:
.Ltmp595:
	movq	%rax, 24(%rsp)
	movl	%edx, 32(%rsp)
	jmp	.LBB82_5
.LBB82_13:
.Ltmp598:
	movq	%rax, 24(%rsp)
	movl	%edx, 32(%rsp)
	jmp	.LBB82_4
.LBB82_14:
.Ltmp601:
	movq	%rax, 24(%rsp)
	movl	%edx, 32(%rsp)
	jmp	.LBB82_3
.Lfunc_end82:
	.size	_ZN4core3ptr13drop_in_place17ha1ec090eb2ee5f28E, .Lfunc_end82-_ZN4core3ptr13drop_in_place17ha1ec090eb2ee5f28E
	.cfi_endproc
	.section	.gcc_except_table,"a",@progbits
	.p2align	2
GCC_except_table82:
.Lexception16:
	.byte	255
	.byte	255
	.byte	1
	.uleb128 .Lcst_end16-.Lcst_begin16
.Lcst_begin16:
	.uleb128 .Ltmp590-.Lfunc_begin82
	.uleb128 .Ltmp591-.Ltmp590
	.uleb128 .Ltmp592-.Lfunc_begin82
	.byte	0
	.uleb128 .Ltmp591-.Lfunc_begin82
	.uleb128 .Ltmp599-.Ltmp591
	.byte	0
	.byte	0
	.uleb128 .Ltmp599-.Lfunc_begin82
	.uleb128 .Ltmp600-.Ltmp599
	.uleb128 .Ltmp601-.Lfunc_begin82
	.byte	0
	.uleb128 .Ltmp596-.Lfunc_begin82
	.uleb128 .Ltmp597-.Ltmp596
	.uleb128 .Ltmp598-.Lfunc_begin82
	.byte	0
	.uleb128 .Ltmp593-.Lfunc_begin82
	.uleb128 .Ltmp594-.Ltmp593
	.uleb128 .Ltmp595-.Lfunc_begin82
	.byte	0
.Lcst_end16:
	.p2align	2

	.section	.text._ZN4core3ptr13drop_in_place17ha3b97882292e6fdcE,"ax",@progbits
	.p2align	4, 0x90
	.type	_ZN4core3ptr13drop_in_place17ha3b97882292e6fdcE,@function
_ZN4core3ptr13drop_in_place17ha3b97882292e6fdcE:
.Lfunc_begin83:
	.loc	16 175 0 is_stmt 1
	.cfi_startproc
	subq	$24, %rsp
	.cfi_def_cfa_offset 32
	movq	%rdi, 8(%rsp)
	movq	%rsi, 16(%rsp)
.Ltmp604:
	.loc	16 175 1 prologue_end
	callq	*(%rsi)
	addq	$24, %rsp
	.cfi_def_cfa_offset 8
	retq
.Ltmp605:
.Lfunc_end83:
	.size	_ZN4core3ptr13drop_in_place17ha3b97882292e6fdcE, .Lfunc_end83-_ZN4core3ptr13drop_in_place17ha3b97882292e6fdcE
	.cfi_endproc

	.section	.text._ZN4core3ptr13drop_in_place17ha6c680225a735e39E,"ax",@progbits
	.p2align	4, 0x90
	.type	_ZN4core3ptr13drop_in_place17ha6c680225a735e39E,@function
_ZN4core3ptr13drop_in_place17ha6c680225a735e39E:
.Lfunc_begin84:
	.loc	16 175 0
	.cfi_startproc
	.cfi_personality 155, DW.ref.rust_eh_personality
	.cfi_lsda 27, .Lexception17
	subq	$40, %rsp
	.cfi_def_cfa_offset 48
	movq	%rdi, 16(%rsp)
.Ltmp606:
	movq	%rdi, (%rsp)
.Ltmp612:
	.loc	16 175 1 prologue_end
	callq	_ZN4core3ptr13drop_in_place17h57812f94d899d765E
.Ltmp607:
	jmp	.LBB84_6
.LBB84_1:
	movq	24(%rsp), %rdi
	callq	_Unwind_Resume@PLT
	ud2
.LBB84_2:
	addq	$40, %rsp
	.cfi_def_cfa_offset 8
	retq
.LBB84_3:
	.cfi_def_cfa_offset 48
	.loc	16 0 1 is_stmt 0
	movq	(%rsp), %rax
	.loc	16 175 1
	addq	$24, %rax
	movq	%rax, %rdi
	callq	_ZN4core3ptr13drop_in_place17h43321b7a006f7127E
	jmp	.LBB84_1
.LBB84_4:
	.loc	16 0 1
	movq	(%rsp), %rax
	.loc	16 175 1
	addq	$16, %rax
	movq	%rax, %rdi
	callq	_ZN4core3ptr13drop_in_place17h008419203b7a330fE
	jmp	.LBB84_3
.LBB84_5:
	.loc	16 0 1
	movq	(%rsp), %rax
	.loc	16 175 1
	addq	$24, %rax
	movq	%rax, %rdi
	callq	_ZN4core3ptr13drop_in_place17h43321b7a006f7127E
	jmp	.LBB84_2
.LBB84_6:
	.loc	16 0 1
	movq	(%rsp), %rax
	.loc	16 175 1
	addq	$16, %rax
.Ltmp609:
	movq	%rax, %rdi
	callq	_ZN4core3ptr13drop_in_place17h008419203b7a330fE
.Ltmp610:
	jmp	.LBB84_5
.Ltmp613:
.LBB84_7:
.Ltmp608:
	.loc	16 0 1
	movq	%rax, 24(%rsp)
	movl	%edx, 32(%rsp)
	jmp	.LBB84_4
.LBB84_8:
.Ltmp611:
	movq	%rax, 24(%rsp)
	movl	%edx, 32(%rsp)
	jmp	.LBB84_3
.Lfunc_end84:
	.size	_ZN4core3ptr13drop_in_place17ha6c680225a735e39E, .Lfunc_end84-_ZN4core3ptr13drop_in_place17ha6c680225a735e39E
	.cfi_endproc
	.section	.gcc_except_table,"a",@progbits
	.p2align	2
GCC_except_table84:
.Lexception17:
	.byte	255
	.byte	255
	.byte	1
	.uleb128 .Lcst_end17-.Lcst_begin17
.Lcst_begin17:
	.uleb128 .Ltmp606-.Lfunc_begin84
	.uleb128 .Ltmp607-.Ltmp606
	.uleb128 .Ltmp608-.Lfunc_begin84
	.byte	0
	.uleb128 .Ltmp607-.Lfunc_begin84
	.uleb128 .Ltmp609-.Ltmp607
	.byte	0
	.byte	0
	.uleb128 .Ltmp609-.Lfunc_begin84
	.uleb128 .Ltmp610-.Ltmp609
	.uleb128 .Ltmp611-.Lfunc_begin84
	.byte	0
.Lcst_end17:
	.p2align	2

	.section	.text._ZN4core3ptr13drop_in_place17ha757acd23237433eE,"ax",@progbits
	.p2align	4, 0x90
	.type	_ZN4core3ptr13drop_in_place17ha757acd23237433eE,@function
_ZN4core3ptr13drop_in_place17ha757acd23237433eE:
.Lfunc_begin85:
	.loc	16 175 0 is_stmt 1
	.cfi_startproc
	subq	$24, %rsp
	.cfi_def_cfa_offset 32
	movq	%rdi, 16(%rsp)
.Ltmp614:
	.loc	16 175 1 prologue_end
	callq	_ZN68_$LT$alloc..sync..Weak$LT$T$GT$$u20$as$u20$core..ops..drop..Drop$GT$4drop17h9cf001099f1e0efaE
	addq	$24, %rsp
	.cfi_def_cfa_offset 8
	retq
.Ltmp615:
.Lfunc_end85:
	.size	_ZN4core3ptr13drop_in_place17ha757acd23237433eE, .Lfunc_end85-_ZN4core3ptr13drop_in_place17ha757acd23237433eE
	.cfi_endproc

	.section	.text._ZN4core3ptr13drop_in_place17haaff93c324a93d4bE,"ax",@progbits
	.p2align	4, 0x90
	.type	_ZN4core3ptr13drop_in_place17haaff93c324a93d4bE,@function
_ZN4core3ptr13drop_in_place17haaff93c324a93d4bE:
.Lfunc_begin86:
	.loc	16 175 0
	.cfi_startproc
	subq	$24, %rsp
	.cfi_def_cfa_offset 32
	movq	%rdi, 16(%rsp)
.Ltmp616:
	.loc	16 175 1 prologue_end
	callq	_ZN4core3ptr13drop_in_place17hd8edbadf02626727E
	addq	$24, %rsp
	.cfi_def_cfa_offset 8
	retq
.Ltmp617:
.Lfunc_end86:
	.size	_ZN4core3ptr13drop_in_place17haaff93c324a93d4bE, .Lfunc_end86-_ZN4core3ptr13drop_in_place17haaff93c324a93d4bE
	.cfi_endproc

	.section	.text._ZN4core3ptr13drop_in_place17had9bbc1af6270cacE,"ax",@progbits
	.p2align	4, 0x90
	.type	_ZN4core3ptr13drop_in_place17had9bbc1af6270cacE,@function
_ZN4core3ptr13drop_in_place17had9bbc1af6270cacE:
.Lfunc_begin87:
	.loc	16 175 0
	.cfi_startproc
	subq	$24, %rsp
	.cfi_def_cfa_offset 32
	movq	%rdi, 16(%rsp)
.Ltmp618:
	.loc	16 175 1 prologue_end
	callq	*_ZN72_$LT$std..sys..unix..thread..Thread$u20$as$u20$core..ops..drop..Drop$GT$4drop17h91b5d26bc9ceb57cE@GOTPCREL(%rip)
	addq	$24, %rsp
	.cfi_def_cfa_offset 8
	retq
.Ltmp619:
.Lfunc_end87:
	.size	_ZN4core3ptr13drop_in_place17had9bbc1af6270cacE, .Lfunc_end87-_ZN4core3ptr13drop_in_place17had9bbc1af6270cacE
	.cfi_endproc

	.section	.text._ZN4core3ptr13drop_in_place17hadbedf57b5c0a4e0E,"ax",@progbits
	.p2align	4, 0x90
	.type	_ZN4core3ptr13drop_in_place17hadbedf57b5c0a4e0E,@function
_ZN4core3ptr13drop_in_place17hadbedf57b5c0a4e0E:
.Lfunc_begin88:
	.loc	16 175 0
	.cfi_startproc
	subq	$24, %rsp
	.cfi_def_cfa_offset 32
	movq	%rdi, 8(%rsp)
	movq	%rsi, 16(%rsp)
.Ltmp620:
	.loc	16 175 1 prologue_end
	callq	*(%rsi)
	addq	$24, %rsp
	.cfi_def_cfa_offset 8
	retq
.Ltmp621:
.Lfunc_end88:
	.size	_ZN4core3ptr13drop_in_place17hadbedf57b5c0a4e0E, .Lfunc_end88-_ZN4core3ptr13drop_in_place17hadbedf57b5c0a4e0E
	.cfi_endproc

	.section	.text._ZN4core3ptr13drop_in_place17hbd6f34ecc9df857eE,"ax",@progbits
	.p2align	4, 0x90
	.type	_ZN4core3ptr13drop_in_place17hbd6f34ecc9df857eE,@function
_ZN4core3ptr13drop_in_place17hbd6f34ecc9df857eE:
.Lfunc_begin89:
	.loc	16 175 0
	.cfi_startproc
	subq	$24, %rsp
	.cfi_def_cfa_offset 32
	movq	%rdi, 8(%rsp)
	movq	%rsi, 16(%rsp)
.Ltmp622:
	.loc	16 175 1 prologue_end
	callq	*(%rsi)
	addq	$24, %rsp
	.cfi_def_cfa_offset 8
	retq
.Ltmp623:
.Lfunc_end89:
	.size	_ZN4core3ptr13drop_in_place17hbd6f34ecc9df857eE, .Lfunc_end89-_ZN4core3ptr13drop_in_place17hbd6f34ecc9df857eE
	.cfi_endproc

	.section	.text._ZN4core3ptr13drop_in_place17hbf517d0946bb7e8eE,"ax",@progbits
	.p2align	4, 0x90
	.type	_ZN4core3ptr13drop_in_place17hbf517d0946bb7e8eE,@function
_ZN4core3ptr13drop_in_place17hbf517d0946bb7e8eE:
.Lfunc_begin90:
	.loc	16 175 0
	.cfi_startproc
	subq	$24, %rsp
	.cfi_def_cfa_offset 32
	movq	%rdi, 16(%rsp)
.Ltmp624:
	.loc	16 175 1 prologue_end
	callq	_ZN4core3ptr13drop_in_place17h6db327b662b53bfcE
	addq	$24, %rsp
	.cfi_def_cfa_offset 8
	retq
.Ltmp625:
.Lfunc_end90:
	.size	_ZN4core3ptr13drop_in_place17hbf517d0946bb7e8eE, .Lfunc_end90-_ZN4core3ptr13drop_in_place17hbf517d0946bb7e8eE
	.cfi_endproc

	.section	.text._ZN4core3ptr13drop_in_place17hc1e3b181a827b098E,"ax",@progbits
	.p2align	4, 0x90
	.type	_ZN4core3ptr13drop_in_place17hc1e3b181a827b098E,@function
_ZN4core3ptr13drop_in_place17hc1e3b181a827b098E:
.Lfunc_begin91:
	.loc	16 175 0
	.cfi_startproc
	subq	$24, %rsp
	.cfi_def_cfa_offset 32
	xorl	%eax, %eax
	movl	%eax, %ecx
	movq	%rdi, 16(%rsp)
.Ltmp626:
	.loc	16 175 1 prologue_end
	cmpq	$0, (%rdi)
	movl	$1, %edx
	cmoveq	%rcx, %rdx
	cmpq	$0, %rdx
	movq	%rdi, (%rsp)
	jne	.LBB91_2
.LBB91_1:
	addq	$24, %rsp
	.cfi_def_cfa_offset 8
	retq
.LBB91_2:
	.cfi_def_cfa_offset 32
	.loc	16 0 1 is_stmt 0
	movq	(%rsp), %rax
	.loc	16 175 1
	movq	%rax, %rdi
	callq	_ZN4core3ptr13drop_in_place17hd0bcac270811e94dE
	jmp	.LBB91_1
.Ltmp627:
.Lfunc_end91:
	.size	_ZN4core3ptr13drop_in_place17hc1e3b181a827b098E, .Lfunc_end91-_ZN4core3ptr13drop_in_place17hc1e3b181a827b098E
	.cfi_endproc

	.section	.text._ZN4core3ptr13drop_in_place17hc533bfe091ec0567E,"ax",@progbits
	.p2align	4, 0x90
	.type	_ZN4core3ptr13drop_in_place17hc533bfe091ec0567E,@function
_ZN4core3ptr13drop_in_place17hc533bfe091ec0567E:
.Lfunc_begin92:
	.loc	16 175 0 is_stmt 1
	.cfi_startproc
	subq	$24, %rsp
	.cfi_def_cfa_offset 32
	movq	%rdi, 16(%rsp)
.Ltmp628:
	.loc	16 175 1 prologue_end
	callq	_ZN4core3ptr13drop_in_place17hf4868c2f00912b3eE
	addq	$24, %rsp
	.cfi_def_cfa_offset 8
	retq
.Ltmp629:
.Lfunc_end92:
	.size	_ZN4core3ptr13drop_in_place17hc533bfe091ec0567E, .Lfunc_end92-_ZN4core3ptr13drop_in_place17hc533bfe091ec0567E
	.cfi_endproc

	.section	.text._ZN4core3ptr13drop_in_place17hc8d62a2512080bd4E,"ax",@progbits
	.p2align	4, 0x90
	.type	_ZN4core3ptr13drop_in_place17hc8d62a2512080bd4E,@function
_ZN4core3ptr13drop_in_place17hc8d62a2512080bd4E:
.Lfunc_begin93:
	.loc	16 175 0
	.cfi_startproc
	.cfi_personality 155, DW.ref.rust_eh_personality
	.cfi_lsda 27, .Lexception18
	subq	$40, %rsp
	.cfi_def_cfa_offset 48
	movq	%rdi, 16(%rsp)
.Ltmp630:
	movq	%rdi, (%rsp)
.Ltmp633:
	.loc	16 175 1 prologue_end
	callq	_ZN4core3ptr13drop_in_place17hf33622ee006713ddE
.Ltmp631:
	jmp	.LBB93_4
.LBB93_1:
	movq	24(%rsp), %rdi
	callq	_Unwind_Resume@PLT
	ud2
.LBB93_2:
	addq	$40, %rsp
	.cfi_def_cfa_offset 8
	retq
.LBB93_3:
	.cfi_def_cfa_offset 48
	.loc	16 0 1 is_stmt 0
	movq	(%rsp), %rax
	.loc	16 175 1
	addq	$8, %rax
	movq	%rax, %rdi
	callq	_ZN4core3ptr13drop_in_place17h84f3e451f42bf74aE
	jmp	.LBB93_1
.LBB93_4:
	.loc	16 0 1
	movq	(%rsp), %rax
	.loc	16 175 1
	addq	$8, %rax
	movq	%rax, %rdi
	callq	_ZN4core3ptr13drop_in_place17h84f3e451f42bf74aE
	jmp	.LBB93_2
.Ltmp634:
.LBB93_5:
.Ltmp632:
	.loc	16 0 1
	movq	%rax, 24(%rsp)
	movl	%edx, 32(%rsp)
	jmp	.LBB93_3
.Lfunc_end93:
	.size	_ZN4core3ptr13drop_in_place17hc8d62a2512080bd4E, .Lfunc_end93-_ZN4core3ptr13drop_in_place17hc8d62a2512080bd4E
	.cfi_endproc
	.section	.gcc_except_table,"a",@progbits
	.p2align	2
GCC_except_table93:
.Lexception18:
	.byte	255
	.byte	255
	.byte	1
	.uleb128 .Lcst_end18-.Lcst_begin18
.Lcst_begin18:
	.uleb128 .Ltmp630-.Lfunc_begin93
	.uleb128 .Ltmp631-.Ltmp630
	.uleb128 .Ltmp632-.Lfunc_begin93
	.byte	0
	.uleb128 .Ltmp631-.Lfunc_begin93
	.uleb128 .Lfunc_end93-.Ltmp631
	.byte	0
	.byte	0
.Lcst_end18:
	.p2align	2

	.section	.text._ZN4core3ptr13drop_in_place17hc8e54927f0107865E,"ax",@progbits
	.p2align	4, 0x90
	.type	_ZN4core3ptr13drop_in_place17hc8e54927f0107865E,@function
_ZN4core3ptr13drop_in_place17hc8e54927f0107865E:
.Lfunc_begin94:
	.loc	16 175 0 is_stmt 1
	.cfi_startproc
	subq	$24, %rsp
	.cfi_def_cfa_offset 32
	movq	%rdi, 16(%rsp)
.Ltmp635:
	.loc	16 175 1 prologue_end
	callq	_ZN4core3ptr13drop_in_place17h6af12acc0fc3ebccE
	addq	$24, %rsp
	.cfi_def_cfa_offset 8
	retq
.Ltmp636:
.Lfunc_end94:
	.size	_ZN4core3ptr13drop_in_place17hc8e54927f0107865E, .Lfunc_end94-_ZN4core3ptr13drop_in_place17hc8e54927f0107865E
	.cfi_endproc

	.section	.text._ZN4core3ptr13drop_in_place17hccd61c2e77417550E,"ax",@progbits
	.p2align	4, 0x90
	.type	_ZN4core3ptr13drop_in_place17hccd61c2e77417550E,@function
_ZN4core3ptr13drop_in_place17hccd61c2e77417550E:
.Lfunc_begin95:
	.loc	16 175 0
	.cfi_startproc
	subq	$40, %rsp
	.cfi_def_cfa_offset 48
	movq	%rdi, 16(%rsp)
	movq	%rdi, (%rsp)
.Ltmp637:
	.loc	16 175 1 prologue_end
	jmp	.LBB95_2
.LBB95_1:
	addq	$40, %rsp
	.cfi_def_cfa_offset 8
	retq
.LBB95_2:
	.cfi_def_cfa_offset 48
	.loc	16 0 1 is_stmt 0
	movq	(%rsp), %rax
	.loc	16 175 1
	movq	(%rax), %rdi
	movq	8(%rax), %rsi
	callq	_ZN5alloc5alloc8box_free17he766551d499dcb17E
	jmp	.LBB95_1
.Ltmp638:
.Lfunc_end95:
	.size	_ZN4core3ptr13drop_in_place17hccd61c2e77417550E, .Lfunc_end95-_ZN4core3ptr13drop_in_place17hccd61c2e77417550E
	.cfi_endproc

	.section	.text._ZN4core3ptr13drop_in_place17hce539105e3ebe504E,"ax",@progbits
	.p2align	4, 0x90
	.type	_ZN4core3ptr13drop_in_place17hce539105e3ebe504E,@function
_ZN4core3ptr13drop_in_place17hce539105e3ebe504E:
.Lfunc_begin96:
	.loc	16 175 0 is_stmt 1
	.cfi_startproc
	.cfi_personality 155, DW.ref.rust_eh_personality
	.cfi_lsda 27, .Lexception19
	subq	$40, %rsp
	.cfi_def_cfa_offset 48
	movq	%rdi, 16(%rsp)
.Ltmp639:
	movq	%rdi, (%rsp)
.Ltmp642:
	.loc	16 175 1 prologue_end
	callq	_ZN66_$LT$std..ffi..c_str..CString$u20$as$u20$core..ops..drop..Drop$GT$4drop17h7ebe93d3fed7c502E
.Ltmp640:
	jmp	.LBB96_4
.LBB96_1:
	movq	24(%rsp), %rdi
	callq	_Unwind_Resume@PLT
	ud2
.LBB96_2:
	addq	$40, %rsp
	.cfi_def_cfa_offset 8
	retq
.LBB96_3:
	.cfi_def_cfa_offset 48
	.loc	16 0 1 is_stmt 0
	movq	(%rsp), %rax
	.loc	16 175 1
	movq	%rax, %rdi
	callq	_ZN4core3ptr13drop_in_place17hccd61c2e77417550E
	jmp	.LBB96_1
.LBB96_4:
	.loc	16 0 1
	movq	(%rsp), %rax
	.loc	16 175 1
	movq	%rax, %rdi
	callq	_ZN4core3ptr13drop_in_place17hccd61c2e77417550E
	jmp	.LBB96_2
.Ltmp643:
.LBB96_5:
.Ltmp641:
	.loc	16 0 1
	movq	%rax, 24(%rsp)
	movl	%edx, 32(%rsp)
	jmp	.LBB96_3
.Lfunc_end96:
	.size	_ZN4core3ptr13drop_in_place17hce539105e3ebe504E, .Lfunc_end96-_ZN4core3ptr13drop_in_place17hce539105e3ebe504E
	.cfi_endproc
	.section	.gcc_except_table,"a",@progbits
	.p2align	2
GCC_except_table96:
.Lexception19:
	.byte	255
	.byte	255
	.byte	1
	.uleb128 .Lcst_end19-.Lcst_begin19
.Lcst_begin19:
	.uleb128 .Ltmp639-.Lfunc_begin96
	.uleb128 .Ltmp640-.Ltmp639
	.uleb128 .Ltmp641-.Lfunc_begin96
	.byte	0
	.uleb128 .Ltmp640-.Lfunc_begin96
	.uleb128 .Lfunc_end96-.Ltmp640
	.byte	0
	.byte	0
.Lcst_end19:
	.p2align	2

	.section	.text._ZN4core3ptr13drop_in_place17hd0bcac270811e94dE,"ax",@progbits
	.p2align	4, 0x90
	.type	_ZN4core3ptr13drop_in_place17hd0bcac270811e94dE,@function
_ZN4core3ptr13drop_in_place17hd0bcac270811e94dE:
.Lfunc_begin97:
	.loc	16 175 0 is_stmt 1
	.cfi_startproc
	subq	$24, %rsp
	.cfi_def_cfa_offset 32
	movq	%rdi, 16(%rsp)
.Ltmp644:
	.loc	16 175 1 prologue_end
	callq	_ZN4core3ptr13drop_in_place17h121b523a3ede0d16E
	addq	$24, %rsp
	.cfi_def_cfa_offset 8
	retq
.Ltmp645:
.Lfunc_end97:
	.size	_ZN4core3ptr13drop_in_place17hd0bcac270811e94dE, .Lfunc_end97-_ZN4core3ptr13drop_in_place17hd0bcac270811e94dE
	.cfi_endproc

	.section	.text._ZN4core3ptr13drop_in_place17hd8edbadf02626727E,"ax",@progbits
	.p2align	4, 0x90
	.type	_ZN4core3ptr13drop_in_place17hd8edbadf02626727E,@function
_ZN4core3ptr13drop_in_place17hd8edbadf02626727E:
.Lfunc_begin98:
	.loc	16 175 0
	.cfi_startproc
	subq	$24, %rsp
	.cfi_def_cfa_offset 32
	xorl	%eax, %eax
	movl	%eax, %ecx
	movq	%rdi, 16(%rsp)
.Ltmp646:
	.loc	16 175 1 prologue_end
	cmpq	$0, (%rdi)
	movl	$1, %edx
	cmoveq	%rcx, %rdx
	cmpq	$0, %rdx
	movq	%rdi, (%rsp)
	jne	.LBB98_2
.LBB98_1:
	addq	$24, %rsp
	.cfi_def_cfa_offset 8
	retq
.LBB98_2:
	.cfi_def_cfa_offset 32
	.loc	16 0 1 is_stmt 0
	movq	(%rsp), %rdi
	.loc	16 175 1
	callq	_ZN4core3ptr13drop_in_place17hce539105e3ebe504E
	jmp	.LBB98_1
.Ltmp647:
.Lfunc_end98:
	.size	_ZN4core3ptr13drop_in_place17hd8edbadf02626727E, .Lfunc_end98-_ZN4core3ptr13drop_in_place17hd8edbadf02626727E
	.cfi_endproc

	.section	.text._ZN4core3ptr13drop_in_place17hdf157cd9a8ec9b4eE,"ax",@progbits
	.p2align	4, 0x90
	.type	_ZN4core3ptr13drop_in_place17hdf157cd9a8ec9b4eE,@function
_ZN4core3ptr13drop_in_place17hdf157cd9a8ec9b4eE:
.Lfunc_begin99:
	.loc	16 175 0 is_stmt 1
	.cfi_startproc
	subq	$16, %rsp
	.cfi_def_cfa_offset 24
	movq	%rdi, 8(%rsp)
.Ltmp648:
	.loc	16 175 1 prologue_end
	addq	$16, %rsp
	.cfi_def_cfa_offset 8
	retq
.Ltmp649:
.Lfunc_end99:
	.size	_ZN4core3ptr13drop_in_place17hdf157cd9a8ec9b4eE, .Lfunc_end99-_ZN4core3ptr13drop_in_place17hdf157cd9a8ec9b4eE
	.cfi_endproc

	.section	.text._ZN4core3ptr13drop_in_place17he423362ab10962f3E,"ax",@progbits
	.p2align	4, 0x90
	.type	_ZN4core3ptr13drop_in_place17he423362ab10962f3E,@function
_ZN4core3ptr13drop_in_place17he423362ab10962f3E:
.Lfunc_begin100:
	.loc	16 175 0
	.cfi_startproc
	.cfi_personality 155, DW.ref.rust_eh_personality
	.cfi_lsda 27, .Lexception20
	subq	$40, %rsp
	.cfi_def_cfa_offset 48
	movq	%rdi, 16(%rsp)
.Ltmp653:
	.loc	16 175 1 prologue_end
	movq	(%rdi), %rax
	movq	8(%rdi), %rcx
	movq	(%rcx), %rcx
.Ltmp650:
	movq	%rdi, (%rsp)
	movq	%rax, %rdi
	callq	*%rcx
.Ltmp651:
	jmp	.LBB100_3
.LBB100_1:
	addq	$40, %rsp
	.cfi_def_cfa_offset 8
	retq
.LBB100_2:
	.cfi_def_cfa_offset 48
	movq	24(%rsp), %rdi
	callq	_Unwind_Resume@PLT
	ud2
.LBB100_3:
	.loc	16 0 1 is_stmt 0
	movq	(%rsp), %rax
	.loc	16 175 1
	movq	(%rax), %rdi
	movq	8(%rax), %rsi
	callq	_ZN5alloc5alloc8box_free17h580d98228cc8416fE
	jmp	.LBB100_1
.LBB100_4:
	.loc	16 0 1
	movq	(%rsp), %rax
	.loc	16 175 1
	movq	(%rax), %rdi
	movq	8(%rax), %rsi
	callq	_ZN5alloc5alloc8box_free17h580d98228cc8416fE
	jmp	.LBB100_2
.Ltmp654:
.LBB100_5:
.Ltmp652:
	.loc	16 0 1
	movq	%rax, 24(%rsp)
	movl	%edx, 32(%rsp)
	jmp	.LBB100_4
.Lfunc_end100:
	.size	_ZN4core3ptr13drop_in_place17he423362ab10962f3E, .Lfunc_end100-_ZN4core3ptr13drop_in_place17he423362ab10962f3E
	.cfi_endproc
	.section	.gcc_except_table,"a",@progbits
	.p2align	2
GCC_except_table100:
.Lexception20:
	.byte	255
	.byte	255
	.byte	1
	.uleb128 .Lcst_end20-.Lcst_begin20
.Lcst_begin20:
	.uleb128 .Ltmp650-.Lfunc_begin100
	.uleb128 .Ltmp651-.Ltmp650
	.uleb128 .Ltmp652-.Lfunc_begin100
	.byte	0
	.uleb128 .Ltmp651-.Lfunc_begin100
	.uleb128 .Lfunc_end100-.Ltmp651
	.byte	0
	.byte	0
.Lcst_end20:
	.p2align	2

	.section	.text._ZN4core3ptr13drop_in_place17he6fb445ec572ed12E,"ax",@progbits
	.p2align	4, 0x90
	.type	_ZN4core3ptr13drop_in_place17he6fb445ec572ed12E,@function
_ZN4core3ptr13drop_in_place17he6fb445ec572ed12E:
.Lfunc_begin101:
	.loc	16 175 0 is_stmt 1
	.cfi_startproc
	.cfi_personality 155, DW.ref.rust_eh_personality
	.cfi_lsda 27, .Lexception21
	subq	$40, %rsp
	.cfi_def_cfa_offset 48
	movq	%rdi, 16(%rsp)
.Ltmp655:
	movq	%rdi, (%rsp)
.Ltmp667:
	.loc	16 175 1 prologue_end
	callq	_ZN4core3ptr13drop_in_place17h008419203b7a330fE
.Ltmp656:
	jmp	.LBB101_10
.LBB101_1:
	movq	24(%rsp), %rdi
	callq	_Unwind_Resume@PLT
	ud2
.LBB101_2:
	addq	$40, %rsp
	.cfi_def_cfa_offset 8
	retq
.LBB101_3:
	.cfi_def_cfa_offset 48
	.loc	16 0 1 is_stmt 0
	movq	(%rsp), %rax
	.loc	16 175 1
	addq	$56, %rax
	movq	%rax, %rdi
	callq	_ZN4core3ptr13drop_in_place17h4c6d8a95856c7a59E
	jmp	.LBB101_1
.LBB101_4:
	.loc	16 0 1
	movq	(%rsp), %rax
	.loc	16 175 1
	addq	$40, %rax
	movq	%rax, %rdi
	callq	_ZN4core3ptr13drop_in_place17heb6952f285b33229E
	jmp	.LBB101_3
.LBB101_5:
	.loc	16 0 1
	movq	(%rsp), %rax
	.loc	16 175 1
	addq	$24, %rax
	movq	%rax, %rdi
	callq	_ZN4core3ptr13drop_in_place17h429f3068f4270bf0E
	jmp	.LBB101_4
.LBB101_6:
	.loc	16 0 1
	movq	(%rsp), %rax
	.loc	16 175 1
	addq	$8, %rax
	movq	%rax, %rdi
	callq	_ZN4core3ptr13drop_in_place17h429f3068f4270bf0E
	jmp	.LBB101_5
.LBB101_7:
	.loc	16 0 1
	movq	(%rsp), %rax
	.loc	16 175 1
	addq	$56, %rax
	movq	%rax, %rdi
	callq	_ZN4core3ptr13drop_in_place17h4c6d8a95856c7a59E
	jmp	.LBB101_2
.LBB101_8:
	.loc	16 0 1
	movq	(%rsp), %rax
	.loc	16 175 1
	addq	$40, %rax
.Ltmp664:
	movq	%rax, %rdi
	callq	_ZN4core3ptr13drop_in_place17heb6952f285b33229E
.Ltmp665:
	jmp	.LBB101_7
.LBB101_9:
	.loc	16 0 1
	movq	(%rsp), %rax
	.loc	16 175 1
	addq	$24, %rax
.Ltmp661:
	movq	%rax, %rdi
	callq	_ZN4core3ptr13drop_in_place17h429f3068f4270bf0E
.Ltmp662:
	jmp	.LBB101_8
.LBB101_10:
	.loc	16 0 1
	movq	(%rsp), %rax
	.loc	16 175 1
	addq	$8, %rax
.Ltmp658:
	movq	%rax, %rdi
	callq	_ZN4core3ptr13drop_in_place17h429f3068f4270bf0E
.Ltmp659:
	jmp	.LBB101_9
.Ltmp668:
.LBB101_11:
.Ltmp657:
	.loc	16 0 1
	movq	%rax, 24(%rsp)
	movl	%edx, 32(%rsp)
	jmp	.LBB101_6
.LBB101_12:
.Ltmp660:
	movq	%rax, 24(%rsp)
	movl	%edx, 32(%rsp)
	jmp	.LBB101_5
.LBB101_13:
.Ltmp663:
	movq	%rax, 24(%rsp)
	movl	%edx, 32(%rsp)
	jmp	.LBB101_4
.LBB101_14:
.Ltmp666:
	movq	%rax, 24(%rsp)
	movl	%edx, 32(%rsp)
	jmp	.LBB101_3
.Lfunc_end101:
	.size	_ZN4core3ptr13drop_in_place17he6fb445ec572ed12E, .Lfunc_end101-_ZN4core3ptr13drop_in_place17he6fb445ec572ed12E
	.cfi_endproc
	.section	.gcc_except_table,"a",@progbits
	.p2align	2
GCC_except_table101:
.Lexception21:
	.byte	255
	.byte	255
	.byte	1
	.uleb128 .Lcst_end21-.Lcst_begin21
.Lcst_begin21:
	.uleb128 .Ltmp655-.Lfunc_begin101
	.uleb128 .Ltmp656-.Ltmp655
	.uleb128 .Ltmp657-.Lfunc_begin101
	.byte	0
	.uleb128 .Ltmp656-.Lfunc_begin101
	.uleb128 .Ltmp664-.Ltmp656
	.byte	0
	.byte	0
	.uleb128 .Ltmp664-.Lfunc_begin101
	.uleb128 .Ltmp665-.Ltmp664
	.uleb128 .Ltmp666-.Lfunc_begin101
	.byte	0
	.uleb128 .Ltmp661-.Lfunc_begin101
	.uleb128 .Ltmp662-.Ltmp661
	.uleb128 .Ltmp663-.Lfunc_begin101
	.byte	0
	.uleb128 .Ltmp658-.Lfunc_begin101
	.uleb128 .Ltmp659-.Ltmp658
	.uleb128 .Ltmp660-.Lfunc_begin101
	.byte	0
.Lcst_end21:
	.p2align	2

	.section	.text._ZN4core3ptr13drop_in_place17heb6952f285b33229E,"ax",@progbits
	.p2align	4, 0x90
	.type	_ZN4core3ptr13drop_in_place17heb6952f285b33229E,@function
_ZN4core3ptr13drop_in_place17heb6952f285b33229E:
.Lfunc_begin102:
	.loc	16 175 0 is_stmt 1
	.cfi_startproc
	.cfi_personality 155, DW.ref.rust_eh_personality
	.cfi_lsda 27, .Lexception22
	subq	$40, %rsp
	.cfi_def_cfa_offset 48
	movq	%rdi, 16(%rsp)
.Ltmp669:
	movq	%rdi, (%rsp)
.Ltmp672:
	.loc	16 175 1 prologue_end
	callq	_ZN4core3ptr13drop_in_place17h84f3e451f42bf74aE
.Ltmp670:
	jmp	.LBB102_4
.LBB102_1:
	movq	24(%rsp), %rdi
	callq	_Unwind_Resume@PLT
	ud2
.LBB102_2:
	addq	$40, %rsp
	.cfi_def_cfa_offset 8
	retq
.LBB102_3:
	.cfi_def_cfa_offset 48
	.loc	16 0 1 is_stmt 0
	movq	(%rsp), %rax
	.loc	16 175 1
	addq	$8, %rax
	movq	%rax, %rdi
	callq	_ZN4core3ptr13drop_in_place17hf33622ee006713ddE
	jmp	.LBB102_1
.LBB102_4:
	.loc	16 0 1
	movq	(%rsp), %rax
	.loc	16 175 1
	addq	$8, %rax
	movq	%rax, %rdi
	callq	_ZN4core3ptr13drop_in_place17hf33622ee006713ddE
	jmp	.LBB102_2
.Ltmp673:
.LBB102_5:
.Ltmp671:
	.loc	16 0 1
	movq	%rax, 24(%rsp)
	movl	%edx, 32(%rsp)
	jmp	.LBB102_3
.Lfunc_end102:
	.size	_ZN4core3ptr13drop_in_place17heb6952f285b33229E, .Lfunc_end102-_ZN4core3ptr13drop_in_place17heb6952f285b33229E
	.cfi_endproc
	.section	.gcc_except_table,"a",@progbits
	.p2align	2
GCC_except_table102:
.Lexception22:
	.byte	255
	.byte	255
	.byte	1
	.uleb128 .Lcst_end22-.Lcst_begin22
.Lcst_begin22:
	.uleb128 .Ltmp669-.Lfunc_begin102
	.uleb128 .Ltmp670-.Ltmp669
	.uleb128 .Ltmp671-.Lfunc_begin102
	.byte	0
	.uleb128 .Ltmp670-.Lfunc_begin102
	.uleb128 .Lfunc_end102-.Ltmp670
	.byte	0
	.byte	0
.Lcst_end22:
	.p2align	2

	.section	.text._ZN4core3ptr13drop_in_place17hf33622ee006713ddE,"ax",@progbits
	.p2align	4, 0x90
	.type	_ZN4core3ptr13drop_in_place17hf33622ee006713ddE,@function
_ZN4core3ptr13drop_in_place17hf33622ee006713ddE:
.Lfunc_begin103:
	.loc	16 175 0 is_stmt 1
	.cfi_startproc
	subq	$24, %rsp
	.cfi_def_cfa_offset 32
	movq	%rdi, 16(%rsp)
.Ltmp674:
	.loc	16 175 1 prologue_end
	callq	_ZN67_$LT$alloc..sync..Arc$LT$T$GT$$u20$as$u20$core..ops..drop..Drop$GT$4drop17h05047004790bd34dE
	addq	$24, %rsp
	.cfi_def_cfa_offset 8
	retq
.Ltmp675:
.Lfunc_end103:
	.size	_ZN4core3ptr13drop_in_place17hf33622ee006713ddE, .Lfunc_end103-_ZN4core3ptr13drop_in_place17hf33622ee006713ddE
	.cfi_endproc

	.section	.text._ZN4core3ptr13drop_in_place17hf4868c2f00912b3eE,"ax",@progbits
	.p2align	4, 0x90
	.type	_ZN4core3ptr13drop_in_place17hf4868c2f00912b3eE,@function
_ZN4core3ptr13drop_in_place17hf4868c2f00912b3eE:
.Lfunc_begin104:
	.loc	16 175 0
	.cfi_startproc
	.cfi_personality 155, DW.ref.rust_eh_personality
	.cfi_lsda 27, .Lexception23
	subq	$40, %rsp
	.cfi_def_cfa_offset 48
	movq	%rdi, 16(%rsp)
.Ltmp679:
	.loc	16 175 1 prologue_end
	movq	(%rdi), %rax
	movq	8(%rdi), %rcx
	movq	(%rcx), %rcx
.Ltmp676:
	movq	%rdi, (%rsp)
	movq	%rax, %rdi
	callq	*%rcx
.Ltmp677:
	jmp	.LBB104_3
.LBB104_1:
	addq	$40, %rsp
	.cfi_def_cfa_offset 8
	retq
.LBB104_2:
	.cfi_def_cfa_offset 48
	movq	24(%rsp), %rdi
	callq	_Unwind_Resume@PLT
	ud2
.LBB104_3:
	.loc	16 0 1 is_stmt 0
	movq	(%rsp), %rax
	.loc	16 175 1
	movq	(%rax), %rdi
	movq	8(%rax), %rsi
	callq	_ZN5alloc5alloc8box_free17h10f889eb2c341ad6E
	jmp	.LBB104_1
.LBB104_4:
	.loc	16 0 1
	movq	(%rsp), %rax
	.loc	16 175 1
	movq	(%rax), %rdi
	movq	8(%rax), %rsi
	callq	_ZN5alloc5alloc8box_free17h10f889eb2c341ad6E
	jmp	.LBB104_2
.Ltmp680:
.LBB104_5:
.Ltmp678:
	.loc	16 0 1
	movq	%rax, 24(%rsp)
	movl	%edx, 32(%rsp)
	jmp	.LBB104_4
.Lfunc_end104:
	.size	_ZN4core3ptr13drop_in_place17hf4868c2f00912b3eE, .Lfunc_end104-_ZN4core3ptr13drop_in_place17hf4868c2f00912b3eE
	.cfi_endproc
	.section	.gcc_except_table,"a",@progbits
	.p2align	2
GCC_except_table104:
.Lexception23:
	.byte	255
	.byte	255
	.byte	1
	.uleb128 .Lcst_end23-.Lcst_begin23
.Lcst_begin23:
	.uleb128 .Ltmp676-.Lfunc_begin104
	.uleb128 .Ltmp677-.Ltmp676
	.uleb128 .Ltmp678-.Lfunc_begin104
	.byte	0
	.uleb128 .Ltmp677-.Lfunc_begin104
	.uleb128 .Lfunc_end104-.Ltmp677
	.byte	0
	.byte	0
.Lcst_end23:
	.p2align	2

	.section	.text._ZN4core3ptr13drop_in_place17hf7951811f6675f9bE,"ax",@progbits
	.p2align	4, 0x90
	.type	_ZN4core3ptr13drop_in_place17hf7951811f6675f9bE,@function
_ZN4core3ptr13drop_in_place17hf7951811f6675f9bE:
.Lfunc_begin105:
	.loc	16 175 0 is_stmt 1
	.cfi_startproc
	subq	$24, %rsp
	.cfi_def_cfa_offset 32
	movq	%rdi, 16(%rsp)
.Ltmp681:
	.loc	16 175 1 prologue_end
	callq	_ZN67_$LT$alloc..sync..Arc$LT$T$GT$$u20$as$u20$core..ops..drop..Drop$GT$4drop17hf3769a8ef5e004aeE
	addq	$24, %rsp
	.cfi_def_cfa_offset 8
	retq
.Ltmp682:
.Lfunc_end105:
	.size	_ZN4core3ptr13drop_in_place17hf7951811f6675f9bE, .Lfunc_end105-_ZN4core3ptr13drop_in_place17hf7951811f6675f9bE
	.cfi_endproc

	.section	.text._ZN4core3ptr19swap_nonoverlapping17ha84f596e73863f25E,"ax",@progbits
	.p2align	4, 0x90
	.type	_ZN4core3ptr19swap_nonoverlapping17ha84f596e73863f25E,@function
_ZN4core3ptr19swap_nonoverlapping17ha84f596e73863f25E:
.Lfunc_begin106:
	.loc	16 428 0
	.cfi_startproc
	subq	$88, %rsp
	.cfi_def_cfa_offset 96
	movq	%rdi, 32(%rsp)
	movq	%rsi, 40(%rsp)
	movq	%rdx, 48(%rsp)
.Ltmp683:
	.loc	16 438 13 prologue_end
	movq	%rdi, 56(%rsp)
.Ltmp684:
	.loc	16 439 13
	movq	%rsi, 64(%rsp)
.Ltmp685:
	.loc	13 304 5
	movq	$24, 80(%rsp)
	movq	80(%rsp), %rax
	movq	%rdx, 24(%rsp)
	movq	%rdi, 16(%rsp)
	movq	%rsi, 8(%rsp)
	movq	%rax, (%rsp)
.Ltmp686:
	.loc	13 0 5 is_stmt 0
	movq	(%rsp), %rax
	movq	24(%rsp), %rcx
	.loc	16 440 15 is_stmt 1
	imulq	%rcx, %rax
	movq	%rax, 72(%rsp)
	movq	16(%rsp), %rdi
	movq	8(%rsp), %rsi
.Ltmp687:
	.loc	16 443 14
	movq	%rax, %rdx
	callq	_ZN4core3ptr25swap_nonoverlapping_bytes17h12db8a3d8febc2d0E
.Ltmp688:
	.loc	16 444 2
	addq	$88, %rsp
	.cfi_def_cfa_offset 8
	retq
.Ltmp689:
.Lfunc_end106:
	.size	_ZN4core3ptr19swap_nonoverlapping17ha84f596e73863f25E, .Lfunc_end106-_ZN4core3ptr19swap_nonoverlapping17ha84f596e73863f25E
	.cfi_endproc

	.section	.text._ZN4core3ptr19swap_nonoverlapping17he2c85a3bb2565515E,"ax",@progbits
	.p2align	4, 0x90
	.type	_ZN4core3ptr19swap_nonoverlapping17he2c85a3bb2565515E,@function
_ZN4core3ptr19swap_nonoverlapping17he2c85a3bb2565515E:
.Lfunc_begin107:
	.loc	16 428 0
	.cfi_startproc
	subq	$88, %rsp
	.cfi_def_cfa_offset 96
	movq	%rdi, 32(%rsp)
	movq	%rsi, 40(%rsp)
	movq	%rdx, 48(%rsp)
.Ltmp690:
	.loc	16 438 13 prologue_end
	movq	%rdi, 56(%rsp)
.Ltmp691:
	.loc	16 439 13
	movq	%rsi, 64(%rsp)
.Ltmp692:
	.loc	13 304 5
	movq	$16, 80(%rsp)
	movq	80(%rsp), %rax
	movq	%rdx, 24(%rsp)
	movq	%rdi, 16(%rsp)
	movq	%rsi, 8(%rsp)
	movq	%rax, (%rsp)
.Ltmp693:
	.loc	13 0 5 is_stmt 0
	movq	(%rsp), %rax
	movq	24(%rsp), %rcx
	.loc	16 440 15 is_stmt 1
	imulq	%rcx, %rax
	movq	%rax, 72(%rsp)
	movq	16(%rsp), %rdi
	movq	8(%rsp), %rsi
.Ltmp694:
	.loc	16 443 14
	movq	%rax, %rdx
	callq	_ZN4core3ptr25swap_nonoverlapping_bytes17h12db8a3d8febc2d0E
.Ltmp695:
	.loc	16 444 2
	addq	$88, %rsp
	.cfi_def_cfa_offset 8
	retq
.Ltmp696:
.Lfunc_end107:
	.size	_ZN4core3ptr19swap_nonoverlapping17he2c85a3bb2565515E, .Lfunc_end107-_ZN4core3ptr19swap_nonoverlapping17he2c85a3bb2565515E
	.cfi_endproc

	.section	.text._ZN4core3ptr23swap_nonoverlapping_one17h23d263dfd3757559E,"ax",@progbits
	.p2align	4, 0x90
	.type	_ZN4core3ptr23swap_nonoverlapping_one17h23d263dfd3757559E,@function
_ZN4core3ptr23swap_nonoverlapping_one17h23d263dfd3757559E:
.Lfunc_begin108:
	.loc	16 447 0
	.cfi_startproc
	.cfi_personality 155, DW.ref.rust_eh_personality
	.cfi_lsda 27, .Lexception24
	subq	$136, %rsp
	.cfi_def_cfa_offset 144
	movq	%rdi, 96(%rsp)
	movq	%rsi, 104(%rsp)
.Ltmp702:
	.loc	16 450 8 prologue_end
	movb	$0, 95(%rsp)
.Ltmp703:
	.loc	13 304 5
	movq	$24, 128(%rsp)
	movq	128(%rsp), %rax
	movq	%rdi, 24(%rsp)
	movq	%rsi, 16(%rsp)
	movq	%rax, 8(%rsp)
.Ltmp704:
	.loc	13 0 5 is_stmt 0
	movq	8(%rsp), %rax
	.loc	16 450 8 is_stmt 1
	cmpq	$32, %rax
	.loc	16 450 5 is_stmt 0
	jb	.LBB108_3
	.loc	16 0 5
	movq	24(%rsp), %rdi
	movq	16(%rsp), %rsi
	.loc	16 460 18 is_stmt 1
	movl	$1, %edx
	callq	_ZN4core3ptr19swap_nonoverlapping17ha84f596e73863f25E
	jmp	.LBB108_7
.LBB108_3:
	.loc	16 454 21
	movb	$1, 95(%rsp)
	leaq	40(%rsp), %rdi
	movq	24(%rsp), %rsi
	callq	_ZN4core3ptr4read17hdde96cf99942ed8aE
.Ltmp697:
	.loc	16 0 21 is_stmt 0
	movl	$1, %edx
	movq	16(%rsp), %rdi
	movq	24(%rsp), %rsi
.Ltmp705:
	.loc	16 455 13 is_stmt 1
	callq	_ZN4core10intrinsics19copy_nonoverlapping17hfaefdfc5a86a5373E
.Ltmp698:
	jmp	.LBB108_5
.LBB108_5:
	.loc	16 456 22
	movb	$0, 95(%rsp)
	movq	56(%rsp), %rax
	movq	%rax, 80(%rsp)
	movups	40(%rsp), %xmm0
	movaps	%xmm0, 64(%rsp)
.Ltmp699:
	leaq	64(%rsp), %rsi
	movq	16(%rsp), %rdi
	.loc	16 456 13 is_stmt 0
	callq	_ZN4core3ptr5write17h68e7dd77973ddfcfE
.Ltmp700:
	jmp	.LBB108_6
.Ltmp706:
.LBB108_6:
	.loc	16 457 9 is_stmt 1
	movb	$0, 95(%rsp)
	.loc	16 450 5
	jmp	.LBB108_8
.LBB108_7:
	jmp	.LBB108_8
.LBB108_8:
	.loc	16 462 2
	addq	$136, %rsp
	.cfi_def_cfa_offset 8
	retq
.LBB108_9:
	.cfi_def_cfa_offset 144
	.loc	16 447 1
	movq	112(%rsp), %rdi
	callq	_Unwind_Resume@PLT
	ud2
.LBB108_10:
	.loc	16 457 9
	leaq	40(%rsp), %rdi
	callq	_ZN4core3ptr13drop_in_place17h6db327b662b53bfcE
	jmp	.LBB108_9
.LBB108_11:
	testb	$1, 95(%rsp)
	jne	.LBB108_10
	jmp	.LBB108_9
.Ltmp707:
.LBB108_12:
.Ltmp701:
	.loc	16 0 9 is_stmt 0
	movq	%rax, 112(%rsp)
	movl	%edx, 120(%rsp)
	jmp	.LBB108_11
.Lfunc_end108:
	.size	_ZN4core3ptr23swap_nonoverlapping_one17h23d263dfd3757559E, .Lfunc_end108-_ZN4core3ptr23swap_nonoverlapping_one17h23d263dfd3757559E
	.cfi_endproc
	.section	.gcc_except_table,"a",@progbits
	.p2align	2
GCC_except_table108:
.Lexception24:
	.byte	255
	.byte	255
	.byte	1
	.uleb128 .Lcst_end24-.Lcst_begin24
.Lcst_begin24:
	.uleb128 .Lfunc_begin108-.Lfunc_begin108
	.uleb128 .Ltmp697-.Lfunc_begin108
	.byte	0
	.byte	0
	.uleb128 .Ltmp697-.Lfunc_begin108
	.uleb128 .Ltmp700-.Ltmp697
	.uleb128 .Ltmp701-.Lfunc_begin108
	.byte	0
	.uleb128 .Ltmp700-.Lfunc_begin108
	.uleb128 .Lfunc_end108-.Ltmp700
	.byte	0
	.byte	0
.Lcst_end24:
	.p2align	2

	.section	.text._ZN4core3ptr23swap_nonoverlapping_one17h6f18ba1f3aebc6a4E,"ax",@progbits
	.p2align	4, 0x90
	.type	_ZN4core3ptr23swap_nonoverlapping_one17h6f18ba1f3aebc6a4E,@function
_ZN4core3ptr23swap_nonoverlapping_one17h6f18ba1f3aebc6a4E:
.Lfunc_begin109:
	.loc	16 447 0 is_stmt 1
	.cfi_startproc
	.cfi_personality 155, DW.ref.rust_eh_personality
	.cfi_lsda 27, .Lexception25
	subq	$104, %rsp
	.cfi_def_cfa_offset 112
	movq	%rdi, 64(%rsp)
	movq	%rsi, 72(%rsp)
.Ltmp713:
	.loc	16 450 8 prologue_end
	movb	$0, 63(%rsp)
.Ltmp714:
	.loc	13 304 5
	movq	$16, 96(%rsp)
	movq	96(%rsp), %rax
	movq	%rdi, 24(%rsp)
	movq	%rsi, 16(%rsp)
	movq	%rax, 8(%rsp)
.Ltmp715:
	.loc	13 0 5 is_stmt 0
	movq	8(%rsp), %rax
	.loc	16 450 8 is_stmt 1
	cmpq	$32, %rax
	.loc	16 450 5 is_stmt 0
	jb	.LBB109_3
	.loc	16 0 5
	movq	24(%rsp), %rdi
	movq	16(%rsp), %rsi
	.loc	16 460 18 is_stmt 1
	movl	$1, %edx
	callq	_ZN4core3ptr19swap_nonoverlapping17he2c85a3bb2565515E
	jmp	.LBB109_7
.LBB109_3:
	.loc	16 454 21
	movb	$1, 63(%rsp)
	movq	24(%rsp), %rdi
	callq	_ZN4core3ptr4read17had86136da61d0a13E
	movq	%rdx, 48(%rsp)
	movq	%rax, 40(%rsp)
.Ltmp708:
	.loc	16 0 21 is_stmt 0
	movl	$1, %edx
	movq	16(%rsp), %rdi
	movq	24(%rsp), %rsi
.Ltmp716:
	.loc	16 455 13 is_stmt 1
	callq	_ZN4core10intrinsics19copy_nonoverlapping17h577dd30b7dc47d5cE
.Ltmp709:
	jmp	.LBB109_5
.LBB109_5:
	.loc	16 456 22
	movb	$0, 63(%rsp)
	movq	40(%rsp), %rsi
	movq	48(%rsp), %rdx
.Ltmp710:
	movq	16(%rsp), %rdi
	.loc	16 456 13 is_stmt 0
	callq	_ZN4core3ptr5write17h480111e19dc8f5deE
.Ltmp711:
	jmp	.LBB109_6
.Ltmp717:
.LBB109_6:
	.loc	16 457 9 is_stmt 1
	movb	$0, 63(%rsp)
	.loc	16 450 5
	jmp	.LBB109_8
.LBB109_7:
	jmp	.LBB109_8
.LBB109_8:
	.loc	16 462 2
	addq	$104, %rsp
	.cfi_def_cfa_offset 8
	retq
.LBB109_9:
	.cfi_def_cfa_offset 112
	.loc	16 447 1
	movq	80(%rsp), %rdi
	callq	_Unwind_Resume@PLT
	ud2
.LBB109_10:
	.loc	16 457 9
	leaq	40(%rsp), %rdi
	callq	_ZN4core3ptr13drop_in_place17h57812f94d899d765E
	jmp	.LBB109_9
.LBB109_11:
	testb	$1, 63(%rsp)
	jne	.LBB109_10
	jmp	.LBB109_9
.Ltmp718:
.LBB109_12:
.Ltmp712:
	.loc	16 0 9 is_stmt 0
	movq	%rax, 80(%rsp)
	movl	%edx, 88(%rsp)
	jmp	.LBB109_11
.Lfunc_end109:
	.size	_ZN4core3ptr23swap_nonoverlapping_one17h6f18ba1f3aebc6a4E, .Lfunc_end109-_ZN4core3ptr23swap_nonoverlapping_one17h6f18ba1f3aebc6a4E
	.cfi_endproc
	.section	.gcc_except_table,"a",@progbits
	.p2align	2
GCC_except_table109:
.Lexception25:
	.byte	255
	.byte	255
	.byte	1
	.uleb128 .Lcst_end25-.Lcst_begin25
.Lcst_begin25:
	.uleb128 .Lfunc_begin109-.Lfunc_begin109
	.uleb128 .Ltmp708-.Lfunc_begin109
	.byte	0
	.byte	0
	.uleb128 .Ltmp708-.Lfunc_begin109
	.uleb128 .Ltmp711-.Ltmp708
	.uleb128 .Ltmp712-.Lfunc_begin109
	.byte	0
	.uleb128 .Ltmp711-.Lfunc_begin109
	.uleb128 .Lfunc_end109-.Ltmp711
	.byte	0
	.byte	0
.Lcst_end25:
	.p2align	2

	.section	.text._ZN4core3ptr24slice_from_raw_parts_mut17h4d65a2e19e4d3da9E,"ax",@progbits
	.p2align	4, 0x90
	.type	_ZN4core3ptr24slice_from_raw_parts_mut17h4d65a2e19e4d3da9E,@function
_ZN4core3ptr24slice_from_raw_parts_mut17h4d65a2e19e4d3da9E:
.Lfunc_begin110:
	.loc	16 300 0 is_stmt 1
	.cfi_startproc
	subq	$48, %rsp
	.cfi_def_cfa_offset 56
	movq	%rdi, 32(%rsp)
	movq	%rsi, 40(%rsp)
.Ltmp719:
	.loc	16 303 26 prologue_end
	movq	%rdi, 16(%rsp)
	movq	%rsi, 24(%rsp)
	.loc	16 303 14 is_stmt 0
	movq	16(%rsp), %rax
	movq	24(%rsp), %rcx
	movq	%rax, (%rsp)
	movq	%rcx, 8(%rsp)
	movq	(%rsp), %rax
	movq	8(%rsp), %rdx
	.loc	16 304 2 is_stmt 1
	addq	$48, %rsp
	.cfi_def_cfa_offset 8
	retq
.Ltmp720:
.Lfunc_end110:
	.size	_ZN4core3ptr24slice_from_raw_parts_mut17h4d65a2e19e4d3da9E, .Lfunc_end110-_ZN4core3ptr24slice_from_raw_parts_mut17h4d65a2e19e4d3da9E
	.cfi_endproc

	.section	.text._ZN4core3ptr25swap_nonoverlapping_bytes17h12db8a3d8febc2d0E,"ax",@progbits
	.p2align	4, 0x90
	.type	_ZN4core3ptr25swap_nonoverlapping_bytes17h12db8a3d8febc2d0E,@function
_ZN4core3ptr25swap_nonoverlapping_bytes17h12db8a3d8febc2d0E:
.Lfunc_begin111:
	.loc	16 465 0
	.cfi_startproc
	pushq	%rbp
	.cfi_def_cfa_offset 16
	.cfi_offset %rbp, -16
	movq	%rsp, %rbp
	.cfi_def_cfa_register %rbp
	andq	$-32, %rsp
	subq	$320, %rsp
	movq	%rdi, 192(%rsp)
	movq	%rsi, 200(%rsp)
	movq	%rdx, 208(%rsp)
.Ltmp721:
	.loc	13 304 5 prologue_end
	movq	$32, 280(%rsp)
	movq	280(%rsp), %rax
.Ltmp722:
	.loc	16 476 22
	movq	%rax, 216(%rsp)
	movq	%rdi, 104(%rsp)
	movq	%rsi, 96(%rsp)
	movq	%rdx, 88(%rsp)
	movq	%rax, 80(%rsp)
.Ltmp723:
	.loc	16 481 17
	movq	$0, 120(%rsp)
.LBB111_2:
	.loc	16 0 17 is_stmt 0
	movq	80(%rsp), %rax
.Ltmp724:
	.loc	16 482 11 is_stmt 1
	addq	120(%rsp), %rax
	movq	88(%rsp), %rcx
	cmpq	%rcx, %rax
	.loc	16 482 5 is_stmt 0
	jbe	.LBB111_4
	.loc	16 0 5
	movq	88(%rsp), %rax
	.loc	16 507 8 is_stmt 1
	cmpq	%rax, 120(%rsp)
	.loc	16 507 5 is_stmt 0
	jb	.LBB111_13
	jmp	.LBB111_12
.LBB111_4:
	.loc	16 0 5
	leaq	128(%rsp), %rax
	movq	%rax, 288(%rsp)
.Ltmp725:
	.loc	16 486 17 is_stmt 1
	leaq	128(%rsp), %rax
	movq	%rax, 224(%rsp)
.Ltmp726:
	.loc	16 495 27
	movq	120(%rsp), %rsi
	movq	104(%rsp), %rdi
	movq	%rax, 72(%rsp)
	.loc	16 495 21 is_stmt 0
	callq	_ZN4core3ptr7mut_ptr31_$LT$impl$u20$$BP$mut$u20$T$GT$3add17h71f7cc97e4ddcd1dE
	movq	%rax, 232(%rsp)
	movq	%rax, 64(%rsp)
.Ltmp727:
	.loc	16 496 27 is_stmt 1
	movq	120(%rsp), %rsi
	movq	96(%rsp), %rdi
	.loc	16 496 21 is_stmt 0
	callq	_ZN4core3ptr7mut_ptr31_$LT$impl$u20$$BP$mut$u20$T$GT$3add17h71f7cc97e4ddcd1dE
	movq	%rax, 240(%rsp)
	movq	%rax, 56(%rsp)
	.loc	16 0 21
	movq	64(%rsp), %rdi
	movq	72(%rsp), %rsi
	movq	80(%rsp), %rdx
.Ltmp728:
	.loc	16 500 13 is_stmt 1
	callq	_ZN4core10intrinsics19copy_nonoverlapping17h98b5fe8f396131a4E
	.loc	16 0 13 is_stmt 0
	movq	56(%rsp), %rdi
	movq	64(%rsp), %rsi
	movq	80(%rsp), %rdx
	.loc	16 501 13 is_stmt 1
	callq	_ZN4core10intrinsics19copy_nonoverlapping17h98b5fe8f396131a4E
	.loc	16 0 13 is_stmt 0
	movq	72(%rsp), %rdi
	movq	56(%rsp), %rsi
	movq	80(%rsp), %rdx
	.loc	16 502 13 is_stmt 1
	callq	_ZN4core10intrinsics19copy_nonoverlapping17h98b5fe8f396131a4E
.Ltmp729:
	.loc	16 0 13 is_stmt 0
	movq	80(%rsp), %rax
	.loc	16 504 9 is_stmt 1
	addq	120(%rsp), %rax
	movq	%rax, 120(%rsp)
.Ltmp730:
	.loc	16 482 5
	jmp	.LBB111_2
.LBB111_12:
	.loc	16 507 5
	jmp	.LBB111_21
.LBB111_13:
	.loc	16 0 5 is_stmt 0
	movq	88(%rsp), %rax
.Ltmp731:
	.loc	16 510 19 is_stmt 1
	subq	120(%rsp), %rax
	movq	%rax, 248(%rsp)
	leaq	160(%rsp), %rcx
	movq	%rcx, 296(%rsp)
	movq	%rax, 48(%rsp)
	movq	%rcx, 40(%rsp)
	.loc	16 0 19 is_stmt 0
	movq	40(%rsp), %rax
.Ltmp732:
	.loc	16 512 17 is_stmt 1
	movq	%rax, 256(%rsp)
.Ltmp733:
	.loc	16 516 27
	movq	120(%rsp), %rsi
	movq	104(%rsp), %rdi
	movq	%rax, 32(%rsp)
	.loc	16 516 21 is_stmt 0
	callq	_ZN4core3ptr7mut_ptr31_$LT$impl$u20$$BP$mut$u20$T$GT$3add17h71f7cc97e4ddcd1dE
	movq	%rax, 264(%rsp)
	movq	%rax, 24(%rsp)
.Ltmp734:
	.loc	16 517 27 is_stmt 1
	movq	120(%rsp), %rsi
	movq	96(%rsp), %rdi
	.loc	16 517 21 is_stmt 0
	callq	_ZN4core3ptr7mut_ptr31_$LT$impl$u20$$BP$mut$u20$T$GT$3add17h71f7cc97e4ddcd1dE
	movq	%rax, 272(%rsp)
	movq	%rax, 16(%rsp)
	.loc	16 0 21
	movq	24(%rsp), %rdi
	movq	32(%rsp), %rsi
	movq	48(%rsp), %rdx
.Ltmp735:
	.loc	16 519 13 is_stmt 1
	callq	_ZN4core10intrinsics19copy_nonoverlapping17h98b5fe8f396131a4E
	.loc	16 0 13 is_stmt 0
	movq	16(%rsp), %rdi
	movq	24(%rsp), %rsi
	movq	48(%rsp), %rdx
	.loc	16 520 13 is_stmt 1
	callq	_ZN4core10intrinsics19copy_nonoverlapping17h98b5fe8f396131a4E
	.loc	16 0 13 is_stmt 0
	movq	32(%rsp), %rdi
	movq	16(%rsp), %rsi
	movq	48(%rsp), %rdx
	.loc	16 521 13 is_stmt 1
	callq	_ZN4core10intrinsics19copy_nonoverlapping17h98b5fe8f396131a4E
.Ltmp736:
	.loc	16 507 5
	jmp	.LBB111_21
.Ltmp737:
.LBB111_21:
	.loc	16 524 2
	movq	%rbp, %rsp
	popq	%rbp
	.cfi_def_cfa %rsp, 8
	retq
.Ltmp738:
.Lfunc_end111:
	.size	_ZN4core3ptr25swap_nonoverlapping_bytes17h12db8a3d8febc2d0E, .Lfunc_end111-_ZN4core3ptr25swap_nonoverlapping_bytes17h12db8a3d8febc2d0E
	.cfi_endproc

	.section	.text._ZN4core3ptr4read17had86136da61d0a13E,"ax",@progbits
	.p2align	4, 0x90
	.type	_ZN4core3ptr4read17had86136da61d0a13E,@function
_ZN4core3ptr4read17had86136da61d0a13E:
.Lfunc_begin112:
	.loc	16 684 0
	.cfi_startproc
	subq	$104, %rsp
	.cfi_def_cfa_offset 112
	movq	%rdi, 40(%rsp)
.Ltmp739:
	.file	17 "/rustc/e1884a8e3c3e813aada8254edfa120e85bf5ffca/library/core/src/mem/maybe_uninit.rs"
	.loc	17 285 6 prologue_end
	movq	48(%rsp), %rax
	movq	56(%rsp), %rcx
.Ltmp740:
	.loc	16 686 19
	movq	%rcx, 32(%rsp)
	movq	%rax, 24(%rsp)
	movq	%rdi, 16(%rsp)
	.loc	16 0 19 is_stmt 0
	leaq	24(%rsp), %rax
	movq	%rax, 96(%rsp)
	movq	16(%rsp), %rdi
.Ltmp741:
	.loc	16 694 9 is_stmt 1
	leaq	24(%rsp), %rsi
	movl	$1, %edx
	callq	_ZN4core10intrinsics19copy_nonoverlapping17h577dd30b7dc47d5cE
	.loc	16 695 9
	movq	24(%rsp), %rax
	movq	32(%rsp), %rcx
	movq	%rax, 64(%rsp)
	movq	%rcx, 72(%rsp)
	movq	%rax, 80(%rsp)
	movq	%rcx, 88(%rsp)
	movq	%rax, 8(%rsp)
	movq	%rcx, (%rsp)
.Ltmp742:
	.loc	16 0 9 is_stmt 0
	movq	8(%rsp), %rax
	movq	(%rsp), %rdx
	.loc	16 697 2 is_stmt 1
	addq	$104, %rsp
	.cfi_def_cfa_offset 8
	retq
.Ltmp743:
.Lfunc_end112:
	.size	_ZN4core3ptr4read17had86136da61d0a13E, .Lfunc_end112-_ZN4core3ptr4read17had86136da61d0a13E
	.cfi_endproc

	.section	.text._ZN4core3ptr4read17hd2e252c5d90d0a48E,"ax",@progbits
	.p2align	4, 0x90
	.type	_ZN4core3ptr4read17hd2e252c5d90d0a48E,@function
_ZN4core3ptr4read17hd2e252c5d90d0a48E:
.Lfunc_begin113:
	.loc	16 684 0
	.cfi_startproc
	subq	$120, %rsp
	.cfi_def_cfa_offset 128
	movq	%rdi, 56(%rsp)
.Ltmp744:
	.loc	17 285 6 prologue_end
	movq	64(%rsp), %rax
	movq	72(%rsp), %rcx
.Ltmp745:
	.loc	16 686 19
	movq	%rcx, 48(%rsp)
	movq	%rax, 40(%rsp)
	movq	%rdi, 32(%rsp)
	.loc	16 0 19 is_stmt 0
	leaq	40(%rsp), %rax
	movq	%rax, 112(%rsp)
	movq	%rax, 24(%rsp)
	movq	32(%rsp), %rdi
	movq	24(%rsp), %rsi
.Ltmp746:
	.loc	16 694 9 is_stmt 1
	movl	$1, %edx
	callq	_ZN4core10intrinsics19copy_nonoverlapping17hbedb53e473fce522E
	.loc	16 695 9
	movq	40(%rsp), %rax
	movq	48(%rsp), %rcx
	movq	%rax, 80(%rsp)
	movq	%rcx, 88(%rsp)
	movq	%rax, 96(%rsp)
	movq	%rcx, 104(%rsp)
	movq	%rax, 16(%rsp)
	movq	%rcx, 8(%rsp)
.Ltmp747:
	.loc	16 0 9 is_stmt 0
	movq	16(%rsp), %rax
	movq	8(%rsp), %rdx
	.loc	16 697 2 is_stmt 1
	addq	$120, %rsp
	.cfi_def_cfa_offset 8
	retq
.Ltmp748:
.Lfunc_end113:
	.size	_ZN4core3ptr4read17hd2e252c5d90d0a48E, .Lfunc_end113-_ZN4core3ptr4read17hd2e252c5d90d0a48E
	.cfi_endproc

	.section	.text._ZN4core3ptr4read17hdde96cf99942ed8aE,"ax",@progbits
	.p2align	4, 0x90
	.type	_ZN4core3ptr4read17hdde96cf99942ed8aE,@function
_ZN4core3ptr4read17hdde96cf99942ed8aE:
.Lfunc_begin114:
	.loc	16 684 0
	.cfi_startproc
	subq	$120, %rsp
	.cfi_def_cfa_offset 128
	movq	%rdi, %rax
	movq	%rsi, 80(%rsp)
	movq	%rsi, 24(%rsp)
	movq	%rdi, 16(%rsp)
	movq	%rax, 8(%rsp)
	leaq	32(%rsp), %rax
	movq	%rax, 112(%rsp)
	movq	%rax, (%rsp)
	movq	24(%rsp), %rdi
	movq	(%rsp), %rsi
.Ltmp749:
	.loc	16 694 9 prologue_end
	movl	$1, %edx
	callq	_ZN4core10intrinsics19copy_nonoverlapping17hfaefdfc5a86a5373E
	.loc	16 695 9
	movq	32(%rsp), %rax
	movq	%rax, 56(%rsp)
	movq	40(%rsp), %rax
	movq	%rax, 64(%rsp)
	movq	48(%rsp), %rax
	movq	%rax, 72(%rsp)
.Ltmp750:
	.loc	17 513 38
	movq	56(%rsp), %rax
	movq	%rax, 88(%rsp)
	movq	64(%rsp), %rax
	movq	%rax, 96(%rsp)
	movq	72(%rsp), %rax
	movq	%rax, 104(%rsp)
.Ltmp751:
	.loc	9 88 9
	movq	88(%rsp), %rax
	movq	16(%rsp), %rcx
	movq	%rax, (%rcx)
	movq	96(%rsp), %rax
	movq	%rax, 8(%rcx)
	movq	104(%rsp), %rax
	movq	%rax, 16(%rcx)
.Ltmp752:
	.loc	9 0 9 is_stmt 0
	movq	8(%rsp), %rax
	.loc	16 697 2 is_stmt 1
	addq	$120, %rsp
	.cfi_def_cfa_offset 8
	retq
.Ltmp753:
.Lfunc_end114:
	.size	_ZN4core3ptr4read17hdde96cf99942ed8aE, .Lfunc_end114-_ZN4core3ptr4read17hdde96cf99942ed8aE
	.cfi_endproc

	.section	.text._ZN4core3ptr4read17hf77bba6e450c5cd5E,"ax",@progbits
	.p2align	4, 0x90
	.type	_ZN4core3ptr4read17hf77bba6e450c5cd5E,@function
_ZN4core3ptr4read17hf77bba6e450c5cd5E:
.Lfunc_begin115:
	.loc	16 684 0
	.cfi_startproc
	subq	$120, %rsp
	.cfi_def_cfa_offset 128
	movq	%rdi, 56(%rsp)
.Ltmp754:
	.loc	17 285 6 prologue_end
	movq	64(%rsp), %rax
	movq	72(%rsp), %rcx
.Ltmp755:
	.loc	16 686 19
	movq	%rcx, 48(%rsp)
	movq	%rax, 40(%rsp)
	movq	%rdi, 32(%rsp)
	.loc	16 0 19 is_stmt 0
	leaq	40(%rsp), %rax
	movq	%rax, 112(%rsp)
	movq	%rax, 24(%rsp)
	movq	32(%rsp), %rdi
	movq	24(%rsp), %rsi
.Ltmp756:
	.loc	16 694 9 is_stmt 1
	movl	$1, %edx
	callq	_ZN4core10intrinsics19copy_nonoverlapping17h936763de65706c73E
	.loc	16 695 9
	movq	40(%rsp), %rax
	movq	48(%rsp), %rcx
	movq	%rax, 80(%rsp)
	movq	%rcx, 88(%rsp)
	movq	%rax, 96(%rsp)
	movq	%rcx, 104(%rsp)
	movq	%rax, 16(%rsp)
	movq	%rcx, 8(%rsp)
.Ltmp757:
	.loc	16 0 9 is_stmt 0
	movq	16(%rsp), %rax
	movq	8(%rsp), %rdx
	.loc	16 697 2 is_stmt 1
	addq	$120, %rsp
	.cfi_def_cfa_offset 8
	retq
.Ltmp758:
.Lfunc_end115:
	.size	_ZN4core3ptr4read17hf77bba6e450c5cd5E, .Lfunc_end115-_ZN4core3ptr4read17hf77bba6e450c5cd5E
	.cfi_endproc

	.section	.text._ZN4core3ptr5write17h480111e19dc8f5deE,"ax",@progbits
	.p2align	4, 0x90
	.type	_ZN4core3ptr5write17h480111e19dc8f5deE,@function
_ZN4core3ptr5write17h480111e19dc8f5deE:
.Lfunc_begin116:
	.loc	16 879 0
	.cfi_startproc
	subq	$32, %rsp
	.cfi_def_cfa_offset 40
	movq	%rdi, 8(%rsp)
	movq	%rsi, 16(%rsp)
	movq	%rdx, 24(%rsp)
.Ltmp759:
	.loc	16 885 51 prologue_end
	movq	%rsi, (%rdi)
	movq	%rdx, 8(%rdi)
	.loc	16 886 2
	addq	$32, %rsp
	.cfi_def_cfa_offset 8
	retq
.Ltmp760:
.Lfunc_end116:
	.size	_ZN4core3ptr5write17h480111e19dc8f5deE, .Lfunc_end116-_ZN4core3ptr5write17h480111e19dc8f5deE
	.cfi_endproc

	.section	.text._ZN4core3ptr5write17h68e7dd77973ddfcfE,"ax",@progbits
	.p2align	4, 0x90
	.type	_ZN4core3ptr5write17h68e7dd77973ddfcfE,@function
_ZN4core3ptr5write17h68e7dd77973ddfcfE:
.Lfunc_begin117:
	.loc	16 879 0
	.cfi_startproc
	subq	$16, %rsp
	.cfi_def_cfa_offset 24
	movq	%rdi, 8(%rsp)
.Ltmp761:
	.loc	16 885 51 prologue_end
	movq	(%rsi), %rax
	movq	%rax, (%rdi)
	movq	8(%rsi), %rax
	movq	%rax, 8(%rdi)
	movq	16(%rsi), %rax
	movq	%rax, 16(%rdi)
	.loc	16 886 2
	addq	$16, %rsp
	.cfi_def_cfa_offset 8
	retq
.Ltmp762:
.Lfunc_end117:
	.size	_ZN4core3ptr5write17h68e7dd77973ddfcfE, .Lfunc_end117-_ZN4core3ptr5write17h68e7dd77973ddfcfE
	.cfi_endproc

	.section	".text._ZN4core3ptr6unique15Unique$LT$T$GT$13new_unchecked17h54b596382d5a9f50E","ax",@progbits
	.p2align	4, 0x90
	.type	_ZN4core3ptr6unique15Unique$LT$T$GT$13new_unchecked17h54b596382d5a9f50E,@function
_ZN4core3ptr6unique15Unique$LT$T$GT$13new_unchecked17h54b596382d5a9f50E:
.Lfunc_begin118:
	.file	18 "/rustc/e1884a8e3c3e813aada8254edfa120e85bf5ffca/library/core/src/ptr/unique.rs"
	.loc	18 87 0
	.cfi_startproc
	subq	$24, %rsp
	.cfi_def_cfa_offset 32
	movq	%rdi, 16(%rsp)
.Ltmp763:
	.loc	18 89 18 prologue_end
	movq	%rdi, (%rsp)
	.loc	18 90 6
	movq	(%rsp), %rax
	addq	$24, %rsp
	.cfi_def_cfa_offset 8
	retq
.Ltmp764:
.Lfunc_end118:
	.size	_ZN4core3ptr6unique15Unique$LT$T$GT$13new_unchecked17h54b596382d5a9f50E, .Lfunc_end118-_ZN4core3ptr6unique15Unique$LT$T$GT$13new_unchecked17h54b596382d5a9f50E
	.cfi_endproc

	.section	".text._ZN4core3ptr6unique15Unique$LT$T$GT$4cast17h07399e165af05ecaE","ax",@progbits
	.p2align	4, 0x90
	.type	_ZN4core3ptr6unique15Unique$LT$T$GT$4cast17h07399e165af05ecaE,@function
_ZN4core3ptr6unique15Unique$LT$T$GT$4cast17h07399e165af05ecaE:
.Lfunc_begin119:
	.loc	18 135 0
	.cfi_startproc
	subq	$40, %rsp
	.cfi_def_cfa_offset 48
	movq	%rdi, 24(%rsp)
	movq	%rsi, 32(%rsp)
.Ltmp765:
	.loc	18 139 40 prologue_end
	callq	_ZN4core3ptr6unique15Unique$LT$T$GT$6as_ptr17hdd0639387e3204d9E
	movq	%rax, 16(%rsp)
	.loc	18 0 40 is_stmt 0
	movq	16(%rsp), %rax
	.loc	18 139 18
	movq	%rax, %rdi
	callq	_ZN4core3ptr6unique15Unique$LT$T$GT$13new_unchecked17h54b596382d5a9f50E
	movq	%rax, 8(%rsp)
	.loc	18 0 18
	movq	8(%rsp), %rax
	.loc	18 140 6 is_stmt 1
	addq	$40, %rsp
	.cfi_def_cfa_offset 8
	retq
.Ltmp766:
.Lfunc_end119:
	.size	_ZN4core3ptr6unique15Unique$LT$T$GT$4cast17h07399e165af05ecaE, .Lfunc_end119-_ZN4core3ptr6unique15Unique$LT$T$GT$4cast17h07399e165af05ecaE
	.cfi_endproc

	.section	".text._ZN4core3ptr6unique15Unique$LT$T$GT$4cast17h5ae3773b30ffa31cE","ax",@progbits
	.p2align	4, 0x90
	.type	_ZN4core3ptr6unique15Unique$LT$T$GT$4cast17h5ae3773b30ffa31cE,@function
_ZN4core3ptr6unique15Unique$LT$T$GT$4cast17h5ae3773b30ffa31cE:
.Lfunc_begin120:
	.loc	18 135 0
	.cfi_startproc
	subq	$40, %rsp
	.cfi_def_cfa_offset 48
	movq	%rdi, 24(%rsp)
	movq	%rsi, 32(%rsp)
.Ltmp767:
	.loc	18 139 40 prologue_end
	callq	_ZN4core3ptr6unique15Unique$LT$T$GT$6as_ptr17h017bd825213f47bcE
	movq	%rax, 16(%rsp)
	.loc	18 0 40 is_stmt 0
	movq	16(%rsp), %rax
	.loc	18 139 18
	movq	%rax, %rdi
	callq	_ZN4core3ptr6unique15Unique$LT$T$GT$13new_unchecked17h54b596382d5a9f50E
	movq	%rax, 8(%rsp)
	.loc	18 0 18
	movq	8(%rsp), %rax
	.loc	18 140 6 is_stmt 1
	addq	$40, %rsp
	.cfi_def_cfa_offset 8
	retq
.Ltmp768:
.Lfunc_end120:
	.size	_ZN4core3ptr6unique15Unique$LT$T$GT$4cast17h5ae3773b30ffa31cE, .Lfunc_end120-_ZN4core3ptr6unique15Unique$LT$T$GT$4cast17h5ae3773b30ffa31cE
	.cfi_endproc

	.section	".text._ZN4core3ptr6unique15Unique$LT$T$GT$4cast17h610bc8e6f72d0f8eE","ax",@progbits
	.p2align	4, 0x90
	.type	_ZN4core3ptr6unique15Unique$LT$T$GT$4cast17h610bc8e6f72d0f8eE,@function
_ZN4core3ptr6unique15Unique$LT$T$GT$4cast17h610bc8e6f72d0f8eE:
.Lfunc_begin121:
	.loc	18 135 0
	.cfi_startproc
	subq	$24, %rsp
	.cfi_def_cfa_offset 32
	movq	%rdi, 16(%rsp)
.Ltmp769:
	.loc	18 139 40 prologue_end
	callq	_ZN4core3ptr6unique15Unique$LT$T$GT$6as_ptr17hd2304c14e335b3a6E
	movq	%rax, 8(%rsp)
	.loc	18 0 40 is_stmt 0
	movq	8(%rsp), %rax
	.loc	18 139 18
	movq	%rax, %rdi
	callq	_ZN4core3ptr6unique15Unique$LT$T$GT$13new_unchecked17h54b596382d5a9f50E
	movq	%rax, (%rsp)
	.loc	18 0 18
	movq	(%rsp), %rax
	.loc	18 140 6 is_stmt 1
	addq	$24, %rsp
	.cfi_def_cfa_offset 8
	retq
.Ltmp770:
.Lfunc_end121:
	.size	_ZN4core3ptr6unique15Unique$LT$T$GT$4cast17h610bc8e6f72d0f8eE, .Lfunc_end121-_ZN4core3ptr6unique15Unique$LT$T$GT$4cast17h610bc8e6f72d0f8eE
	.cfi_endproc

	.section	".text._ZN4core3ptr6unique15Unique$LT$T$GT$4cast17h611312dc9f532d51E","ax",@progbits
	.p2align	4, 0x90
	.type	_ZN4core3ptr6unique15Unique$LT$T$GT$4cast17h611312dc9f532d51E,@function
_ZN4core3ptr6unique15Unique$LT$T$GT$4cast17h611312dc9f532d51E:
.Lfunc_begin122:
	.loc	18 135 0
	.cfi_startproc
	subq	$24, %rsp
	.cfi_def_cfa_offset 32
	movq	%rdi, 16(%rsp)
.Ltmp771:
	.loc	18 139 40 prologue_end
	callq	_ZN4core3ptr6unique15Unique$LT$T$GT$6as_ptr17h00d392cebce3bb6cE
	movq	%rax, 8(%rsp)
	.loc	18 0 40 is_stmt 0
	movq	8(%rsp), %rax
	.loc	18 139 18
	movq	%rax, %rdi
	callq	_ZN4core3ptr6unique15Unique$LT$T$GT$13new_unchecked17h54b596382d5a9f50E
	movq	%rax, (%rsp)
	.loc	18 0 18
	movq	(%rsp), %rax
	.loc	18 140 6 is_stmt 1
	addq	$24, %rsp
	.cfi_def_cfa_offset 8
	retq
.Ltmp772:
.Lfunc_end122:
	.size	_ZN4core3ptr6unique15Unique$LT$T$GT$4cast17h611312dc9f532d51E, .Lfunc_end122-_ZN4core3ptr6unique15Unique$LT$T$GT$4cast17h611312dc9f532d51E
	.cfi_endproc

	.section	".text._ZN4core3ptr6unique15Unique$LT$T$GT$4cast17ha329b3e121c019bbE","ax",@progbits
	.p2align	4, 0x90
	.type	_ZN4core3ptr6unique15Unique$LT$T$GT$4cast17ha329b3e121c019bbE,@function
_ZN4core3ptr6unique15Unique$LT$T$GT$4cast17ha329b3e121c019bbE:
.Lfunc_begin123:
	.loc	18 135 0
	.cfi_startproc
	subq	$24, %rsp
	.cfi_def_cfa_offset 32
	movq	%rdi, 16(%rsp)
.Ltmp773:
	.loc	18 139 40 prologue_end
	callq	_ZN4core3ptr6unique15Unique$LT$T$GT$6as_ptr17h355aeef77057d18cE
	movq	%rax, 8(%rsp)
	.loc	18 0 40 is_stmt 0
	movq	8(%rsp), %rax
	.loc	18 139 18
	movq	%rax, %rdi
	callq	_ZN4core3ptr6unique15Unique$LT$T$GT$13new_unchecked17h54b596382d5a9f50E
	movq	%rax, (%rsp)
	.loc	18 0 18
	movq	(%rsp), %rax
	.loc	18 140 6 is_stmt 1
	addq	$24, %rsp
	.cfi_def_cfa_offset 8
	retq
.Ltmp774:
.Lfunc_end123:
	.size	_ZN4core3ptr6unique15Unique$LT$T$GT$4cast17ha329b3e121c019bbE, .Lfunc_end123-_ZN4core3ptr6unique15Unique$LT$T$GT$4cast17ha329b3e121c019bbE
	.cfi_endproc

	.section	".text._ZN4core3ptr6unique15Unique$LT$T$GT$4cast17hab7c78f0f0eae37eE","ax",@progbits
	.p2align	4, 0x90
	.type	_ZN4core3ptr6unique15Unique$LT$T$GT$4cast17hab7c78f0f0eae37eE,@function
_ZN4core3ptr6unique15Unique$LT$T$GT$4cast17hab7c78f0f0eae37eE:
.Lfunc_begin124:
	.loc	18 135 0
	.cfi_startproc
	subq	$40, %rsp
	.cfi_def_cfa_offset 48
	movq	%rdi, 24(%rsp)
	movq	%rsi, 32(%rsp)
.Ltmp775:
	.loc	18 139 40 prologue_end
	callq	_ZN4core3ptr6unique15Unique$LT$T$GT$6as_ptr17hc0c32a619da91621E
	movq	%rax, 16(%rsp)
	.loc	18 0 40 is_stmt 0
	movq	16(%rsp), %rax
	.loc	18 139 18
	movq	%rax, %rdi
	callq	_ZN4core3ptr6unique15Unique$LT$T$GT$13new_unchecked17h54b596382d5a9f50E
	movq	%rax, 8(%rsp)
	.loc	18 0 18
	movq	8(%rsp), %rax
	.loc	18 140 6 is_stmt 1
	addq	$40, %rsp
	.cfi_def_cfa_offset 8
	retq
.Ltmp776:
.Lfunc_end124:
	.size	_ZN4core3ptr6unique15Unique$LT$T$GT$4cast17hab7c78f0f0eae37eE, .Lfunc_end124-_ZN4core3ptr6unique15Unique$LT$T$GT$4cast17hab7c78f0f0eae37eE
	.cfi_endproc

	.section	".text._ZN4core3ptr6unique15Unique$LT$T$GT$4cast17hca11f17b9d50178cE","ax",@progbits
	.p2align	4, 0x90
	.type	_ZN4core3ptr6unique15Unique$LT$T$GT$4cast17hca11f17b9d50178cE,@function
_ZN4core3ptr6unique15Unique$LT$T$GT$4cast17hca11f17b9d50178cE:
.Lfunc_begin125:
	.loc	18 135 0
	.cfi_startproc
	subq	$24, %rsp
	.cfi_def_cfa_offset 32
	movq	%rdi, 16(%rsp)
.Ltmp777:
	.loc	18 139 40 prologue_end
	callq	_ZN4core3ptr6unique15Unique$LT$T$GT$6as_ptr17h22e05ec35842233fE
	movq	%rax, 8(%rsp)
	.loc	18 0 40 is_stmt 0
	movq	8(%rsp), %rdi
	.loc	18 139 18
	callq	_ZN4core3ptr6unique15Unique$LT$T$GT$13new_unchecked17h54b596382d5a9f50E
	movq	%rax, (%rsp)
	.loc	18 0 18
	movq	(%rsp), %rax
	.loc	18 140 6 is_stmt 1
	addq	$24, %rsp
	.cfi_def_cfa_offset 8
	retq
.Ltmp778:
.Lfunc_end125:
	.size	_ZN4core3ptr6unique15Unique$LT$T$GT$4cast17hca11f17b9d50178cE, .Lfunc_end125-_ZN4core3ptr6unique15Unique$LT$T$GT$4cast17hca11f17b9d50178cE
	.cfi_endproc

	.section	".text._ZN4core3ptr6unique15Unique$LT$T$GT$4cast17hdc1f7aff57e8266cE","ax",@progbits
	.p2align	4, 0x90
	.type	_ZN4core3ptr6unique15Unique$LT$T$GT$4cast17hdc1f7aff57e8266cE,@function
_ZN4core3ptr6unique15Unique$LT$T$GT$4cast17hdc1f7aff57e8266cE:
.Lfunc_begin126:
	.loc	18 135 0
	.cfi_startproc
	subq	$24, %rsp
	.cfi_def_cfa_offset 32
	movq	%rdi, 16(%rsp)
.Ltmp779:
	.loc	18 139 40 prologue_end
	callq	_ZN4core3ptr6unique15Unique$LT$T$GT$6as_ptr17h50662d28a94e2a12E
	movq	%rax, 8(%rsp)
	.loc	18 0 40 is_stmt 0
	movq	8(%rsp), %rax
	.loc	18 139 18
	movq	%rax, %rdi
	callq	_ZN4core3ptr6unique15Unique$LT$T$GT$13new_unchecked17h54b596382d5a9f50E
	movq	%rax, (%rsp)
	.loc	18 0 18
	movq	(%rsp), %rax
	.loc	18 140 6 is_stmt 1
	addq	$24, %rsp
	.cfi_def_cfa_offset 8
	retq
.Ltmp780:
.Lfunc_end126:
	.size	_ZN4core3ptr6unique15Unique$LT$T$GT$4cast17hdc1f7aff57e8266cE, .Lfunc_end126-_ZN4core3ptr6unique15Unique$LT$T$GT$4cast17hdc1f7aff57e8266cE
	.cfi_endproc

	.section	".text._ZN4core3ptr6unique15Unique$LT$T$GT$4cast17he12d31d01e5505c5E","ax",@progbits
	.p2align	4, 0x90
	.type	_ZN4core3ptr6unique15Unique$LT$T$GT$4cast17he12d31d01e5505c5E,@function
_ZN4core3ptr6unique15Unique$LT$T$GT$4cast17he12d31d01e5505c5E:
.Lfunc_begin127:
	.loc	18 135 0
	.cfi_startproc
	subq	$40, %rsp
	.cfi_def_cfa_offset 48
	movq	%rdi, 24(%rsp)
	movq	%rsi, 32(%rsp)
.Ltmp781:
	.loc	18 139 40 prologue_end
	callq	_ZN4core3ptr6unique15Unique$LT$T$GT$6as_ptr17hbdca8e89f5aebff5E
	movq	%rax, 16(%rsp)
	.loc	18 0 40 is_stmt 0
	movq	16(%rsp), %rax
	.loc	18 139 18
	movq	%rax, %rdi
	callq	_ZN4core3ptr6unique15Unique$LT$T$GT$13new_unchecked17h54b596382d5a9f50E
	movq	%rax, 8(%rsp)
	.loc	18 0 18
	movq	8(%rsp), %rax
	.loc	18 140 6 is_stmt 1
	addq	$40, %rsp
	.cfi_def_cfa_offset 8
	retq
.Ltmp782:
.Lfunc_end127:
	.size	_ZN4core3ptr6unique15Unique$LT$T$GT$4cast17he12d31d01e5505c5E, .Lfunc_end127-_ZN4core3ptr6unique15Unique$LT$T$GT$4cast17he12d31d01e5505c5E
	.cfi_endproc

	.section	".text._ZN4core3ptr6unique15Unique$LT$T$GT$6as_ptr17h00d392cebce3bb6cE","ax",@progbits
	.p2align	4, 0x90
	.type	_ZN4core3ptr6unique15Unique$LT$T$GT$6as_ptr17h00d392cebce3bb6cE,@function
_ZN4core3ptr6unique15Unique$LT$T$GT$6as_ptr17h00d392cebce3bb6cE:
.Lfunc_begin128:
	.loc	18 105 0
	.cfi_startproc
	pushq	%rax
	.cfi_def_cfa_offset 16
	movq	%rdi, (%rsp)
.Ltmp783:
	.loc	18 107 6 prologue_end
	movq	%rdi, %rax
	popq	%rcx
	.cfi_def_cfa_offset 8
	retq
.Ltmp784:
.Lfunc_end128:
	.size	_ZN4core3ptr6unique15Unique$LT$T$GT$6as_ptr17h00d392cebce3bb6cE, .Lfunc_end128-_ZN4core3ptr6unique15Unique$LT$T$GT$6as_ptr17h00d392cebce3bb6cE
	.cfi_endproc

	.section	".text._ZN4core3ptr6unique15Unique$LT$T$GT$6as_ptr17h017bd825213f47bcE","ax",@progbits
	.p2align	4, 0x90
	.type	_ZN4core3ptr6unique15Unique$LT$T$GT$6as_ptr17h017bd825213f47bcE,@function
_ZN4core3ptr6unique15Unique$LT$T$GT$6as_ptr17h017bd825213f47bcE:
.Lfunc_begin129:
	.loc	18 105 0
	.cfi_startproc
	subq	$16, %rsp
	.cfi_def_cfa_offset 24
	movq	%rdi, (%rsp)
	movq	%rsi, 8(%rsp)
.Ltmp785:
	.loc	18 107 6 prologue_end
	movq	%rdi, %rax
	movq	%rsi, %rdx
	addq	$16, %rsp
	.cfi_def_cfa_offset 8
	retq
.Ltmp786:
.Lfunc_end129:
	.size	_ZN4core3ptr6unique15Unique$LT$T$GT$6as_ptr17h017bd825213f47bcE, .Lfunc_end129-_ZN4core3ptr6unique15Unique$LT$T$GT$6as_ptr17h017bd825213f47bcE
	.cfi_endproc

	.section	".text._ZN4core3ptr6unique15Unique$LT$T$GT$6as_ptr17h22e05ec35842233fE","ax",@progbits
	.p2align	4, 0x90
	.type	_ZN4core3ptr6unique15Unique$LT$T$GT$6as_ptr17h22e05ec35842233fE,@function
_ZN4core3ptr6unique15Unique$LT$T$GT$6as_ptr17h22e05ec35842233fE:
.Lfunc_begin130:
	.loc	18 105 0
	.cfi_startproc
	pushq	%rax
	.cfi_def_cfa_offset 16
	movq	%rdi, (%rsp)
.Ltmp787:
	.loc	18 107 6 prologue_end
	movq	%rdi, %rax
	popq	%rcx
	.cfi_def_cfa_offset 8
	retq
.Ltmp788:
.Lfunc_end130:
	.size	_ZN4core3ptr6unique15Unique$LT$T$GT$6as_ptr17h22e05ec35842233fE, .Lfunc_end130-_ZN4core3ptr6unique15Unique$LT$T$GT$6as_ptr17h22e05ec35842233fE
	.cfi_endproc

	.section	".text._ZN4core3ptr6unique15Unique$LT$T$GT$6as_ptr17h355aeef77057d18cE","ax",@progbits
	.p2align	4, 0x90
	.type	_ZN4core3ptr6unique15Unique$LT$T$GT$6as_ptr17h355aeef77057d18cE,@function
_ZN4core3ptr6unique15Unique$LT$T$GT$6as_ptr17h355aeef77057d18cE:
.Lfunc_begin131:
	.loc	18 105 0
	.cfi_startproc
	pushq	%rax
	.cfi_def_cfa_offset 16
	movq	%rdi, (%rsp)
.Ltmp789:
	.loc	18 107 6 prologue_end
	movq	%rdi, %rax
	popq	%rcx
	.cfi_def_cfa_offset 8
	retq
.Ltmp790:
.Lfunc_end131:
	.size	_ZN4core3ptr6unique15Unique$LT$T$GT$6as_ptr17h355aeef77057d18cE, .Lfunc_end131-_ZN4core3ptr6unique15Unique$LT$T$GT$6as_ptr17h355aeef77057d18cE
	.cfi_endproc

	.section	".text._ZN4core3ptr6unique15Unique$LT$T$GT$6as_ptr17h50662d28a94e2a12E","ax",@progbits
	.p2align	4, 0x90
	.type	_ZN4core3ptr6unique15Unique$LT$T$GT$6as_ptr17h50662d28a94e2a12E,@function
_ZN4core3ptr6unique15Unique$LT$T$GT$6as_ptr17h50662d28a94e2a12E:
.Lfunc_begin132:
	.loc	18 105 0
	.cfi_startproc
	pushq	%rax
	.cfi_def_cfa_offset 16
	movq	%rdi, (%rsp)
.Ltmp791:
	.loc	18 107 6 prologue_end
	movq	%rdi, %rax
	popq	%rcx
	.cfi_def_cfa_offset 8
	retq
.Ltmp792:
.Lfunc_end132:
	.size	_ZN4core3ptr6unique15Unique$LT$T$GT$6as_ptr17h50662d28a94e2a12E, .Lfunc_end132-_ZN4core3ptr6unique15Unique$LT$T$GT$6as_ptr17h50662d28a94e2a12E
	.cfi_endproc

	.section	".text._ZN4core3ptr6unique15Unique$LT$T$GT$6as_ptr17hbdca8e89f5aebff5E","ax",@progbits
	.p2align	4, 0x90
	.type	_ZN4core3ptr6unique15Unique$LT$T$GT$6as_ptr17hbdca8e89f5aebff5E,@function
_ZN4core3ptr6unique15Unique$LT$T$GT$6as_ptr17hbdca8e89f5aebff5E:
.Lfunc_begin133:
	.loc	18 105 0
	.cfi_startproc
	subq	$16, %rsp
	.cfi_def_cfa_offset 24
	movq	%rdi, (%rsp)
	movq	%rsi, 8(%rsp)
.Ltmp793:
	.loc	18 107 6 prologue_end
	movq	%rdi, %rax
	movq	%rsi, %rdx
	addq	$16, %rsp
	.cfi_def_cfa_offset 8
	retq
.Ltmp794:
.Lfunc_end133:
	.size	_ZN4core3ptr6unique15Unique$LT$T$GT$6as_ptr17hbdca8e89f5aebff5E, .Lfunc_end133-_ZN4core3ptr6unique15Unique$LT$T$GT$6as_ptr17hbdca8e89f5aebff5E
	.cfi_endproc

	.section	".text._ZN4core3ptr6unique15Unique$LT$T$GT$6as_ptr17hc0c32a619da91621E","ax",@progbits
	.p2align	4, 0x90
	.type	_ZN4core3ptr6unique15Unique$LT$T$GT$6as_ptr17hc0c32a619da91621E,@function
_ZN4core3ptr6unique15Unique$LT$T$GT$6as_ptr17hc0c32a619da91621E:
.Lfunc_begin134:
	.loc	18 105 0
	.cfi_startproc
	subq	$16, %rsp
	.cfi_def_cfa_offset 24
	movq	%rdi, (%rsp)
	movq	%rsi, 8(%rsp)
.Ltmp795:
	.loc	18 107 6 prologue_end
	movq	%rdi, %rax
	movq	%rsi, %rdx
	addq	$16, %rsp
	.cfi_def_cfa_offset 8
	retq
.Ltmp796:
.Lfunc_end134:
	.size	_ZN4core3ptr6unique15Unique$LT$T$GT$6as_ptr17hc0c32a619da91621E, .Lfunc_end134-_ZN4core3ptr6unique15Unique$LT$T$GT$6as_ptr17hc0c32a619da91621E
	.cfi_endproc

	.section	".text._ZN4core3ptr6unique15Unique$LT$T$GT$6as_ptr17hd2304c14e335b3a6E","ax",@progbits
	.p2align	4, 0x90
	.type	_ZN4core3ptr6unique15Unique$LT$T$GT$6as_ptr17hd2304c14e335b3a6E,@function
_ZN4core3ptr6unique15Unique$LT$T$GT$6as_ptr17hd2304c14e335b3a6E:
.Lfunc_begin135:
	.loc	18 105 0
	.cfi_startproc
	pushq	%rax
	.cfi_def_cfa_offset 16
	movq	%rdi, (%rsp)
.Ltmp797:
	.loc	18 107 6 prologue_end
	movq	%rdi, %rax
	popq	%rcx
	.cfi_def_cfa_offset 8
	retq
.Ltmp798:
.Lfunc_end135:
	.size	_ZN4core3ptr6unique15Unique$LT$T$GT$6as_ptr17hd2304c14e335b3a6E, .Lfunc_end135-_ZN4core3ptr6unique15Unique$LT$T$GT$6as_ptr17hd2304c14e335b3a6E
	.cfi_endproc

	.section	".text._ZN4core3ptr6unique15Unique$LT$T$GT$6as_ptr17hdd0639387e3204d9E","ax",@progbits
	.p2align	4, 0x90
	.type	_ZN4core3ptr6unique15Unique$LT$T$GT$6as_ptr17hdd0639387e3204d9E,@function
_ZN4core3ptr6unique15Unique$LT$T$GT$6as_ptr17hdd0639387e3204d9E:
.Lfunc_begin136:
	.loc	18 105 0
	.cfi_startproc
	subq	$16, %rsp
	.cfi_def_cfa_offset 24
	movq	%rdi, (%rsp)
	movq	%rsi, 8(%rsp)
.Ltmp799:
	.loc	18 107 6 prologue_end
	movq	%rdi, %rax
	movq	%rsi, %rdx
	addq	$16, %rsp
	.cfi_def_cfa_offset 8
	retq
.Ltmp800:
.Lfunc_end136:
	.size	_ZN4core3ptr6unique15Unique$LT$T$GT$6as_ptr17hdd0639387e3204d9E, .Lfunc_end136-_ZN4core3ptr6unique15Unique$LT$T$GT$6as_ptr17hdd0639387e3204d9E
	.cfi_endproc

	.section	".text._ZN4core3ptr6unique15Unique$LT$T$GT$6as_ref17h2dc043771a61f540E","ax",@progbits
	.p2align	4, 0x90
	.type	_ZN4core3ptr6unique15Unique$LT$T$GT$6as_ref17h2dc043771a61f540E,@function
_ZN4core3ptr6unique15Unique$LT$T$GT$6as_ref17h2dc043771a61f540E:
.Lfunc_begin137:
	.loc	18 115 0
	.cfi_startproc
	subq	$24, %rsp
	.cfi_def_cfa_offset 32
	movq	%rdi, 16(%rsp)
.Ltmp801:
	.loc	18 118 20 prologue_end
	movq	(%rdi), %rdi
	callq	_ZN4core3ptr6unique15Unique$LT$T$GT$6as_ptr17h355aeef77057d18cE
	movq	%rax, 8(%rsp)
	.loc	18 0 20 is_stmt 0
	movq	8(%rsp), %rax
	.loc	18 119 6 is_stmt 1
	addq	$24, %rsp
	.cfi_def_cfa_offset 8
	retq
.Ltmp802:
.Lfunc_end137:
	.size	_ZN4core3ptr6unique15Unique$LT$T$GT$6as_ref17h2dc043771a61f540E, .Lfunc_end137-_ZN4core3ptr6unique15Unique$LT$T$GT$6as_ref17h2dc043771a61f540E
	.cfi_endproc

	.section	".text._ZN4core3ptr6unique15Unique$LT$T$GT$6as_ref17h59abedc4f43cd6b8E","ax",@progbits
	.p2align	4, 0x90
	.type	_ZN4core3ptr6unique15Unique$LT$T$GT$6as_ref17h59abedc4f43cd6b8E,@function
_ZN4core3ptr6unique15Unique$LT$T$GT$6as_ref17h59abedc4f43cd6b8E:
.Lfunc_begin138:
	.loc	18 115 0
	.cfi_startproc
	subq	$24, %rsp
	.cfi_def_cfa_offset 32
	movq	%rdi, 16(%rsp)
.Ltmp803:
	.loc	18 118 20 prologue_end
	movq	(%rdi), %rax
	movq	8(%rdi), %rsi
	movq	%rax, %rdi
	callq	_ZN4core3ptr6unique15Unique$LT$T$GT$6as_ptr17hc0c32a619da91621E
	movq	%rax, 8(%rsp)
	movq	%rdx, (%rsp)
	.loc	18 0 20 is_stmt 0
	movq	8(%rsp), %rax
	movq	(%rsp), %rdx
	.loc	18 119 6 is_stmt 1
	addq	$24, %rsp
	.cfi_def_cfa_offset 8
	retq
.Ltmp804:
.Lfunc_end138:
	.size	_ZN4core3ptr6unique15Unique$LT$T$GT$6as_ref17h59abedc4f43cd6b8E, .Lfunc_end138-_ZN4core3ptr6unique15Unique$LT$T$GT$6as_ref17h59abedc4f43cd6b8E
	.cfi_endproc

	.section	".text._ZN4core3ptr6unique15Unique$LT$T$GT$6as_ref17h73d117ad9463f776E","ax",@progbits
	.p2align	4, 0x90
	.type	_ZN4core3ptr6unique15Unique$LT$T$GT$6as_ref17h73d117ad9463f776E,@function
_ZN4core3ptr6unique15Unique$LT$T$GT$6as_ref17h73d117ad9463f776E:
.Lfunc_begin139:
	.loc	18 115 0
	.cfi_startproc
	subq	$24, %rsp
	.cfi_def_cfa_offset 32
	movq	%rdi, 16(%rsp)
.Ltmp805:
	.loc	18 118 20 prologue_end
	movq	(%rdi), %rdi
	callq	_ZN4core3ptr6unique15Unique$LT$T$GT$6as_ptr17h00d392cebce3bb6cE
	movq	%rax, 8(%rsp)
	.loc	18 0 20 is_stmt 0
	movq	8(%rsp), %rax
	.loc	18 119 6 is_stmt 1
	addq	$24, %rsp
	.cfi_def_cfa_offset 8
	retq
.Ltmp806:
.Lfunc_end139:
	.size	_ZN4core3ptr6unique15Unique$LT$T$GT$6as_ref17h73d117ad9463f776E, .Lfunc_end139-_ZN4core3ptr6unique15Unique$LT$T$GT$6as_ref17h73d117ad9463f776E
	.cfi_endproc

	.section	".text._ZN4core3ptr6unique15Unique$LT$T$GT$6as_ref17hb4f11ad277297ea6E","ax",@progbits
	.p2align	4, 0x90
	.type	_ZN4core3ptr6unique15Unique$LT$T$GT$6as_ref17hb4f11ad277297ea6E,@function
_ZN4core3ptr6unique15Unique$LT$T$GT$6as_ref17hb4f11ad277297ea6E:
.Lfunc_begin140:
	.loc	18 115 0
	.cfi_startproc
	subq	$24, %rsp
	.cfi_def_cfa_offset 32
	movq	%rdi, 16(%rsp)
.Ltmp807:
	.loc	18 118 20 prologue_end
	movq	(%rdi), %rax
	movq	8(%rdi), %rsi
	movq	%rax, %rdi
	callq	_ZN4core3ptr6unique15Unique$LT$T$GT$6as_ptr17hbdca8e89f5aebff5E
	movq	%rax, 8(%rsp)
	movq	%rdx, (%rsp)
	.loc	18 0 20 is_stmt 0
	movq	8(%rsp), %rax
	movq	(%rsp), %rdx
	.loc	18 119 6 is_stmt 1
	addq	$24, %rsp
	.cfi_def_cfa_offset 8
	retq
.Ltmp808:
.Lfunc_end140:
	.size	_ZN4core3ptr6unique15Unique$LT$T$GT$6as_ref17hb4f11ad277297ea6E, .Lfunc_end140-_ZN4core3ptr6unique15Unique$LT$T$GT$6as_ref17hb4f11ad277297ea6E
	.cfi_endproc

	.section	".text._ZN4core3ptr6unique15Unique$LT$T$GT$6as_ref17hcfc95ae453ad2c4aE","ax",@progbits
	.p2align	4, 0x90
	.type	_ZN4core3ptr6unique15Unique$LT$T$GT$6as_ref17hcfc95ae453ad2c4aE,@function
_ZN4core3ptr6unique15Unique$LT$T$GT$6as_ref17hcfc95ae453ad2c4aE:
.Lfunc_begin141:
	.loc	18 115 0
	.cfi_startproc
	subq	$24, %rsp
	.cfi_def_cfa_offset 32
	movq	%rdi, 16(%rsp)
.Ltmp809:
	.loc	18 118 20 prologue_end
	movq	(%rdi), %rax
	movq	8(%rdi), %rsi
	movq	%rax, %rdi
	callq	_ZN4core3ptr6unique15Unique$LT$T$GT$6as_ptr17hdd0639387e3204d9E
	movq	%rax, 8(%rsp)
	movq	%rdx, (%rsp)
	.loc	18 0 20 is_stmt 0
	movq	8(%rsp), %rax
	movq	(%rsp), %rdx
	.loc	18 119 6 is_stmt 1
	addq	$24, %rsp
	.cfi_def_cfa_offset 8
	retq
.Ltmp810:
.Lfunc_end141:
	.size	_ZN4core3ptr6unique15Unique$LT$T$GT$6as_ref17hcfc95ae453ad2c4aE, .Lfunc_end141-_ZN4core3ptr6unique15Unique$LT$T$GT$6as_ref17hcfc95ae453ad2c4aE
	.cfi_endproc

	.section	".text._ZN4core3ptr6unique15Unique$LT$T$GT$6as_ref17hdee4e90973970f22E","ax",@progbits
	.p2align	4, 0x90
	.type	_ZN4core3ptr6unique15Unique$LT$T$GT$6as_ref17hdee4e90973970f22E,@function
_ZN4core3ptr6unique15Unique$LT$T$GT$6as_ref17hdee4e90973970f22E:
.Lfunc_begin142:
	.loc	18 115 0
	.cfi_startproc
	subq	$24, %rsp
	.cfi_def_cfa_offset 32
	movq	%rdi, 16(%rsp)
.Ltmp811:
	.loc	18 118 20 prologue_end
	movq	(%rdi), %rdi
	callq	_ZN4core3ptr6unique15Unique$LT$T$GT$6as_ptr17h50662d28a94e2a12E
	movq	%rax, 8(%rsp)
	.loc	18 0 20 is_stmt 0
	movq	8(%rsp), %rax
	.loc	18 119 6 is_stmt 1
	addq	$24, %rsp
	.cfi_def_cfa_offset 8
	retq
.Ltmp812:
.Lfunc_end142:
	.size	_ZN4core3ptr6unique15Unique$LT$T$GT$6as_ref17hdee4e90973970f22E, .Lfunc_end142-_ZN4core3ptr6unique15Unique$LT$T$GT$6as_ref17hdee4e90973970f22E
	.cfi_endproc

	.section	".text._ZN4core3ptr6unique15Unique$LT$T$GT$6as_ref17he72dee258df414ffE","ax",@progbits
	.p2align	4, 0x90
	.type	_ZN4core3ptr6unique15Unique$LT$T$GT$6as_ref17he72dee258df414ffE,@function
_ZN4core3ptr6unique15Unique$LT$T$GT$6as_ref17he72dee258df414ffE:
.Lfunc_begin143:
	.loc	18 115 0
	.cfi_startproc
	subq	$24, %rsp
	.cfi_def_cfa_offset 32
	movq	%rdi, 16(%rsp)
.Ltmp813:
	.loc	18 118 20 prologue_end
	movq	(%rdi), %rdi
	callq	_ZN4core3ptr6unique15Unique$LT$T$GT$6as_ptr17hd2304c14e335b3a6E
	movq	%rax, 8(%rsp)
	.loc	18 0 20 is_stmt 0
	movq	8(%rsp), %rax
	.loc	18 119 6 is_stmt 1
	addq	$24, %rsp
	.cfi_def_cfa_offset 8
	retq
.Ltmp814:
.Lfunc_end143:
	.size	_ZN4core3ptr6unique15Unique$LT$T$GT$6as_ref17he72dee258df414ffE, .Lfunc_end143-_ZN4core3ptr6unique15Unique$LT$T$GT$6as_ref17he72dee258df414ffE
	.cfi_endproc

	.section	".text._ZN4core3ptr6unique15Unique$LT$T$GT$6as_ref17hf2229f5997977f79E","ax",@progbits
	.p2align	4, 0x90
	.type	_ZN4core3ptr6unique15Unique$LT$T$GT$6as_ref17hf2229f5997977f79E,@function
_ZN4core3ptr6unique15Unique$LT$T$GT$6as_ref17hf2229f5997977f79E:
.Lfunc_begin144:
	.loc	18 115 0
	.cfi_startproc
	subq	$24, %rsp
	.cfi_def_cfa_offset 32
	movq	%rdi, 16(%rsp)
.Ltmp815:
	.loc	18 118 20 prologue_end
	movq	(%rdi), %rax
	movq	8(%rdi), %rsi
	movq	%rax, %rdi
	callq	_ZN4core3ptr6unique15Unique$LT$T$GT$6as_ptr17h017bd825213f47bcE
	movq	%rax, 8(%rsp)
	movq	%rdx, (%rsp)
	.loc	18 0 20 is_stmt 0
	movq	8(%rsp), %rax
	movq	(%rsp), %rdx
	.loc	18 119 6 is_stmt 1
	addq	$24, %rsp
	.cfi_def_cfa_offset 8
	retq
.Ltmp816:
.Lfunc_end144:
	.size	_ZN4core3ptr6unique15Unique$LT$T$GT$6as_ref17hf2229f5997977f79E, .Lfunc_end144-_ZN4core3ptr6unique15Unique$LT$T$GT$6as_ref17hf2229f5997977f79E
	.cfi_endproc

	.section	".text._ZN4core3ptr7mut_ptr31_$LT$impl$u20$$BP$mut$u20$T$GT$13guaranteed_eq17hcd5e0318efc31732E","ax",@progbits
	.p2align	4, 0x90
	.type	_ZN4core3ptr7mut_ptr31_$LT$impl$u20$$BP$mut$u20$T$GT$13guaranteed_eq17hcd5e0318efc31732E,@function
_ZN4core3ptr7mut_ptr31_$LT$impl$u20$$BP$mut$u20$T$GT$13guaranteed_eq17hcd5e0318efc31732E:
.Lfunc_begin145:
	.file	19 "/rustc/e1884a8e3c3e813aada8254edfa120e85bf5ffca/library/core/src/ptr/mut_ptr.rs"
	.loc	19 422 0
	.cfi_startproc
	subq	$32, %rsp
	.cfi_def_cfa_offset 40
	movq	%rdi, 8(%rsp)
	movq	%rsi, 16(%rsp)
.Ltmp817:
	.loc	19 426 9 prologue_end
	cmpq	%rsi, %rdi
	sete	%al
	andb	$1, %al
	movb	%al, 31(%rsp)
	movb	31(%rsp), %al
	movb	%al, 7(%rsp)
	.loc	19 0 9 is_stmt 0
	movb	7(%rsp), %al
	.loc	19 427 6 is_stmt 1
	andb	$1, %al
	movzbl	%al, %eax
	addq	$32, %rsp
	.cfi_def_cfa_offset 8
	retq
.Ltmp818:
.Lfunc_end145:
	.size	_ZN4core3ptr7mut_ptr31_$LT$impl$u20$$BP$mut$u20$T$GT$13guaranteed_eq17hcd5e0318efc31732E, .Lfunc_end145-_ZN4core3ptr7mut_ptr31_$LT$impl$u20$$BP$mut$u20$T$GT$13guaranteed_eq17hcd5e0318efc31732E
	.cfi_endproc

	.section	".text._ZN4core3ptr7mut_ptr31_$LT$impl$u20$$BP$mut$u20$T$GT$3add17h71f7cc97e4ddcd1dE","ax",@progbits
	.p2align	4, 0x90
	.type	_ZN4core3ptr7mut_ptr31_$LT$impl$u20$$BP$mut$u20$T$GT$3add17h71f7cc97e4ddcd1dE,@function
_ZN4core3ptr7mut_ptr31_$LT$impl$u20$$BP$mut$u20$T$GT$3add17h71f7cc97e4ddcd1dE:
.Lfunc_begin146:
	.loc	19 601 0
	.cfi_startproc
	subq	$24, %rsp
	.cfi_def_cfa_offset 32
	movq	%rdi, 8(%rsp)
	movq	%rsi, 16(%rsp)
.Ltmp819:
	.loc	19 606 18 prologue_end
	callq	_ZN4core3ptr7mut_ptr31_$LT$impl$u20$$BP$mut$u20$T$GT$6offset17hc9f74cfd405f3ffbE
	movq	%rax, (%rsp)
	.loc	19 0 18 is_stmt 0
	movq	(%rsp), %rax
	.loc	19 607 6 is_stmt 1
	addq	$24, %rsp
	.cfi_def_cfa_offset 8
	retq
.Ltmp820:
.Lfunc_end146:
	.size	_ZN4core3ptr7mut_ptr31_$LT$impl$u20$$BP$mut$u20$T$GT$3add17h71f7cc97e4ddcd1dE, .Lfunc_end146-_ZN4core3ptr7mut_ptr31_$LT$impl$u20$$BP$mut$u20$T$GT$3add17h71f7cc97e4ddcd1dE
	.cfi_endproc

	.section	".text._ZN4core3ptr7mut_ptr31_$LT$impl$u20$$BP$mut$u20$T$GT$6offset17hc9f74cfd405f3ffbE","ax",@progbits
	.p2align	4, 0x90
	.type	_ZN4core3ptr7mut_ptr31_$LT$impl$u20$$BP$mut$u20$T$GT$6offset17hc9f74cfd405f3ffbE,@function
_ZN4core3ptr7mut_ptr31_$LT$impl$u20$$BP$mut$u20$T$GT$6offset17hc9f74cfd405f3ffbE:
.Lfunc_begin147:
	.loc	19 225 0
	.cfi_startproc
	subq	$32, %rsp
	.cfi_def_cfa_offset 40
	movq	%rdi, 8(%rsp)
	movq	%rsi, 16(%rsp)
.Ltmp821:
	.loc	19 232 18 prologue_end
	addq	%rsi, %rdi
	movq	%rdi, 24(%rsp)
	movq	24(%rsp), %rax
	movq	%rax, (%rsp)
	.loc	19 0 18 is_stmt 0
	movq	(%rsp), %rax
	.loc	19 233 6 is_stmt 1
	addq	$32, %rsp
	.cfi_def_cfa_offset 8
	retq
.Ltmp822:
.Lfunc_end147:
	.size	_ZN4core3ptr7mut_ptr31_$LT$impl$u20$$BP$mut$u20$T$GT$6offset17hc9f74cfd405f3ffbE, .Lfunc_end147-_ZN4core3ptr7mut_ptr31_$LT$impl$u20$$BP$mut$u20$T$GT$6offset17hc9f74cfd405f3ffbE
	.cfi_endproc

	.section	".text._ZN4core3ptr7mut_ptr31_$LT$impl$u20$$BP$mut$u20$T$GT$7is_null17hb5d1911791f079c0E","ax",@progbits
	.p2align	4, 0x90
	.type	_ZN4core3ptr7mut_ptr31_$LT$impl$u20$$BP$mut$u20$T$GT$7is_null17hb5d1911791f079c0E,@function
_ZN4core3ptr7mut_ptr31_$LT$impl$u20$$BP$mut$u20$T$GT$7is_null17hb5d1911791f079c0E:
.Lfunc_begin148:
	.loc	19 36 0
	.cfi_startproc
	subq	$24, %rsp
	.cfi_def_cfa_offset 32
	movq	%rdi, 16(%rsp)
	movq	%rdi, 8(%rsp)
	xorl	%eax, %eax
	movl	%eax, %esi
	movq	8(%rsp), %rdi
.Ltmp823:
	.loc	19 39 9 prologue_end
	callq	_ZN4core3ptr7mut_ptr31_$LT$impl$u20$$BP$mut$u20$T$GT$13guaranteed_eq17hcd5e0318efc31732E
	movb	%al, 7(%rsp)
	.loc	19 0 9 is_stmt 0
	movb	7(%rsp), %al
	.loc	19 40 6 is_stmt 1
	andb	$1, %al
	movzbl	%al, %eax
	addq	$24, %rsp
	.cfi_def_cfa_offset 8
	retq
.Ltmp824:
.Lfunc_end148:
	.size	_ZN4core3ptr7mut_ptr31_$LT$impl$u20$$BP$mut$u20$T$GT$7is_null17hb5d1911791f079c0E, .Lfunc_end148-_ZN4core3ptr7mut_ptr31_$LT$impl$u20$$BP$mut$u20$T$GT$7is_null17hb5d1911791f079c0E
	.cfi_endproc

	.section	".text._ZN4core3ptr7mut_ptr41_$LT$impl$u20$$BP$mut$u20$$u5b$T$u5d$$GT$10as_mut_ptr17h155ecc13605d53b0E","ax",@progbits
	.p2align	4, 0x90
	.type	_ZN4core3ptr7mut_ptr41_$LT$impl$u20$$BP$mut$u20$$u5b$T$u5d$$GT$10as_mut_ptr17h155ecc13605d53b0E,@function
_ZN4core3ptr7mut_ptr41_$LT$impl$u20$$BP$mut$u20$$u5b$T$u5d$$GT$10as_mut_ptr17h155ecc13605d53b0E:
.Lfunc_begin149:
	.loc	19 1164 0
	.cfi_startproc
	subq	$16, %rsp
	.cfi_def_cfa_offset 24
	movq	%rdi, (%rsp)
	movq	%rsi, 8(%rsp)
.Ltmp825:
	.loc	19 1166 6 prologue_end
	movq	%rdi, %rax
	addq	$16, %rsp
	.cfi_def_cfa_offset 8
	retq
.Ltmp826:
.Lfunc_end149:
	.size	_ZN4core3ptr7mut_ptr41_$LT$impl$u20$$BP$mut$u20$$u5b$T$u5d$$GT$10as_mut_ptr17h155ecc13605d53b0E, .Lfunc_end149-_ZN4core3ptr7mut_ptr41_$LT$impl$u20$$BP$mut$u20$$u5b$T$u5d$$GT$10as_mut_ptr17h155ecc13605d53b0E
	.cfi_endproc

	.section	".text._ZN4core3ptr8non_null16NonNull$LT$T$GT$13new_unchecked17hbe0716788325a631E","ax",@progbits
	.p2align	4, 0x90
	.type	_ZN4core3ptr8non_null16NonNull$LT$T$GT$13new_unchecked17hbe0716788325a631E,@function
_ZN4core3ptr8non_null16NonNull$LT$T$GT$13new_unchecked17hbe0716788325a631E:
.Lfunc_begin150:
	.loc	2 154 0
	.cfi_startproc
	subq	$16, %rsp
	.cfi_def_cfa_offset 24
	movq	%rdi, 8(%rsp)
.Ltmp827:
	.loc	2 156 18 prologue_end
	movq	%rdi, (%rsp)
	.loc	2 157 6
	movq	(%rsp), %rax
	addq	$16, %rsp
	.cfi_def_cfa_offset 8
	retq
.Ltmp828:
.Lfunc_end150:
	.size	_ZN4core3ptr8non_null16NonNull$LT$T$GT$13new_unchecked17hbe0716788325a631E, .Lfunc_end150-_ZN4core3ptr8non_null16NonNull$LT$T$GT$13new_unchecked17hbe0716788325a631E
	.cfi_endproc

	.section	".text._ZN4core3ptr8non_null16NonNull$LT$T$GT$13new_unchecked17hf8b94f2082b35f3fE","ax",@progbits
	.p2align	4, 0x90
	.type	_ZN4core3ptr8non_null16NonNull$LT$T$GT$13new_unchecked17hf8b94f2082b35f3fE,@function
_ZN4core3ptr8non_null16NonNull$LT$T$GT$13new_unchecked17hf8b94f2082b35f3fE:
.Lfunc_begin151:
	.loc	2 154 0
	.cfi_startproc
	subq	$32, %rsp
	.cfi_def_cfa_offset 40
	movq	%rdi, 16(%rsp)
	movq	%rsi, 24(%rsp)
.Ltmp829:
	.loc	2 156 18 prologue_end
	movq	%rdi, (%rsp)
	movq	%rsi, 8(%rsp)
	.loc	2 157 6
	movq	(%rsp), %rax
	movq	8(%rsp), %rdx
	addq	$32, %rsp
	.cfi_def_cfa_offset 8
	retq
.Ltmp830:
.Lfunc_end151:
	.size	_ZN4core3ptr8non_null16NonNull$LT$T$GT$13new_unchecked17hf8b94f2082b35f3fE, .Lfunc_end151-_ZN4core3ptr8non_null16NonNull$LT$T$GT$13new_unchecked17hf8b94f2082b35f3fE
	.cfi_endproc

	.section	".text._ZN4core3ptr8non_null16NonNull$LT$T$GT$3new17hdf88948642918456E","ax",@progbits
	.p2align	4, 0x90
	.type	_ZN4core3ptr8non_null16NonNull$LT$T$GT$3new17hdf88948642918456E,@function
_ZN4core3ptr8non_null16NonNull$LT$T$GT$3new17hdf88948642918456E:
.Lfunc_begin152:
	.loc	2 162 0
	.cfi_startproc
	subq	$40, %rsp
	.cfi_def_cfa_offset 48
	movq	%rdi, 32(%rsp)
	movq	%rdi, 16(%rsp)
.Ltmp831:
	.loc	2 163 13 prologue_end
	callq	_ZN4core3ptr7mut_ptr31_$LT$impl$u20$$BP$mut$u20$T$GT$7is_null17hb5d1911791f079c0E
	movb	%al, 15(%rsp)
	.loc	2 0 13 is_stmt 0
	movb	15(%rsp), %al
	.loc	2 163 12
	xorb	$-1, %al
	.loc	2 163 9
	testb	$1, %al
	jne	.LBB152_3
	.loc	2 167 13 is_stmt 1
	movq	$0, 24(%rsp)
	.loc	2 163 9
	jmp	.LBB152_5
.LBB152_3:
	.loc	2 0 9 is_stmt 0
	movq	16(%rsp), %rdi
	.loc	2 165 27 is_stmt 1
	callq	_ZN4core3ptr8non_null16NonNull$LT$T$GT$13new_unchecked17hbe0716788325a631E
	movq	%rax, (%rsp)
	.loc	2 0 27 is_stmt 0
	movq	(%rsp), %rax
	.loc	2 165 13
	movq	%rax, 24(%rsp)
.LBB152_5:
	.loc	2 169 6 is_stmt 1
	movq	24(%rsp), %rax
	addq	$40, %rsp
	.cfi_def_cfa_offset 8
	retq
.Ltmp832:
.Lfunc_end152:
	.size	_ZN4core3ptr8non_null16NonNull$LT$T$GT$3new17hdf88948642918456E, .Lfunc_end152-_ZN4core3ptr8non_null16NonNull$LT$T$GT$3new17hdf88948642918456E
	.cfi_endproc

	.section	".text._ZN4core3ptr8non_null16NonNull$LT$T$GT$4cast17h2297556b69f82bb1E","ax",@progbits
	.p2align	4, 0x90
	.type	_ZN4core3ptr8non_null16NonNull$LT$T$GT$4cast17h2297556b69f82bb1E,@function
_ZN4core3ptr8non_null16NonNull$LT$T$GT$4cast17h2297556b69f82bb1E:
.Lfunc_begin153:
	.loc	2 255 0
	.cfi_startproc
	subq	$24, %rsp
	.cfi_def_cfa_offset 32
	movq	%rdi, 16(%rsp)
.Ltmp833:
	.loc	2 257 41 prologue_end
	callq	_ZN4core3ptr8non_null16NonNull$LT$T$GT$6as_ptr17h94f6fa77865cdc8aE
	movq	%rax, 8(%rsp)
	.loc	2 0 41 is_stmt 0
	movq	8(%rsp), %rax
	.loc	2 257 18
	movq	%rax, %rdi
	callq	_ZN4core3ptr8non_null16NonNull$LT$T$GT$13new_unchecked17hbe0716788325a631E
	movq	%rax, (%rsp)
	.loc	2 0 18
	movq	(%rsp), %rax
	.loc	2 258 6 is_stmt 1
	addq	$24, %rsp
	.cfi_def_cfa_offset 8
	retq
.Ltmp834:
.Lfunc_end153:
	.size	_ZN4core3ptr8non_null16NonNull$LT$T$GT$4cast17h2297556b69f82bb1E, .Lfunc_end153-_ZN4core3ptr8non_null16NonNull$LT$T$GT$4cast17h2297556b69f82bb1E
	.cfi_endproc

	.section	".text._ZN4core3ptr8non_null16NonNull$LT$T$GT$4cast17h380c2ac96ea0fb84E","ax",@progbits
	.p2align	4, 0x90
	.type	_ZN4core3ptr8non_null16NonNull$LT$T$GT$4cast17h380c2ac96ea0fb84E,@function
_ZN4core3ptr8non_null16NonNull$LT$T$GT$4cast17h380c2ac96ea0fb84E:
.Lfunc_begin154:
	.loc	2 255 0
	.cfi_startproc
	subq	$24, %rsp
	.cfi_def_cfa_offset 32
	movq	%rdi, 16(%rsp)
.Ltmp835:
	.loc	2 257 41 prologue_end
	callq	_ZN4core3ptr8non_null16NonNull$LT$T$GT$6as_ptr17hb50fa993574df13fE
	movq	%rax, 8(%rsp)
	.loc	2 0 41 is_stmt 0
	movq	8(%rsp), %rax
	.loc	2 257 18
	movq	%rax, %rdi
	callq	_ZN4core3ptr8non_null16NonNull$LT$T$GT$13new_unchecked17hbe0716788325a631E
	movq	%rax, (%rsp)
	.loc	2 0 18
	movq	(%rsp), %rax
	.loc	2 258 6 is_stmt 1
	addq	$24, %rsp
	.cfi_def_cfa_offset 8
	retq
.Ltmp836:
.Lfunc_end154:
	.size	_ZN4core3ptr8non_null16NonNull$LT$T$GT$4cast17h380c2ac96ea0fb84E, .Lfunc_end154-_ZN4core3ptr8non_null16NonNull$LT$T$GT$4cast17h380c2ac96ea0fb84E
	.cfi_endproc

	.section	".text._ZN4core3ptr8non_null16NonNull$LT$T$GT$4cast17h45211a608c747831E","ax",@progbits
	.p2align	4, 0x90
	.type	_ZN4core3ptr8non_null16NonNull$LT$T$GT$4cast17h45211a608c747831E,@function
_ZN4core3ptr8non_null16NonNull$LT$T$GT$4cast17h45211a608c747831E:
.Lfunc_begin155:
	.loc	2 255 0
	.cfi_startproc
	subq	$24, %rsp
	.cfi_def_cfa_offset 32
	movq	%rdi, 16(%rsp)
.Ltmp837:
	.loc	2 257 41 prologue_end
	callq	_ZN4core3ptr8non_null16NonNull$LT$T$GT$6as_ptr17h76b9d12e200f64a4E
	movq	%rax, 8(%rsp)
	.loc	2 0 41 is_stmt 0
	movq	8(%rsp), %rax
	.loc	2 257 18
	movq	%rax, %rdi
	callq	_ZN4core3ptr8non_null16NonNull$LT$T$GT$13new_unchecked17hbe0716788325a631E
	movq	%rax, (%rsp)
	.loc	2 0 18
	movq	(%rsp), %rax
	.loc	2 258 6 is_stmt 1
	addq	$24, %rsp
	.cfi_def_cfa_offset 8
	retq
.Ltmp838:
.Lfunc_end155:
	.size	_ZN4core3ptr8non_null16NonNull$LT$T$GT$4cast17h45211a608c747831E, .Lfunc_end155-_ZN4core3ptr8non_null16NonNull$LT$T$GT$4cast17h45211a608c747831E
	.cfi_endproc

	.section	".text._ZN4core3ptr8non_null16NonNull$LT$T$GT$4cast17hf27ae20d45c03a75E","ax",@progbits
	.p2align	4, 0x90
	.type	_ZN4core3ptr8non_null16NonNull$LT$T$GT$4cast17hf27ae20d45c03a75E,@function
_ZN4core3ptr8non_null16NonNull$LT$T$GT$4cast17hf27ae20d45c03a75E:
.Lfunc_begin156:
	.loc	2 255 0
	.cfi_startproc
	subq	$24, %rsp
	.cfi_def_cfa_offset 32
	movq	%rdi, 16(%rsp)
.Ltmp839:
	.loc	2 257 41 prologue_end
	callq	_ZN4core3ptr8non_null16NonNull$LT$T$GT$6as_ptr17h15acdc970069e9c9E
	movq	%rax, 8(%rsp)
	.loc	2 0 41 is_stmt 0
	movq	8(%rsp), %rax
	.loc	2 257 18
	movq	%rax, %rdi
	callq	_ZN4core3ptr8non_null16NonNull$LT$T$GT$13new_unchecked17hbe0716788325a631E
	movq	%rax, (%rsp)
	.loc	2 0 18
	movq	(%rsp), %rax
	.loc	2 258 6 is_stmt 1
	addq	$24, %rsp
	.cfi_def_cfa_offset 8
	retq
.Ltmp840:
.Lfunc_end156:
	.size	_ZN4core3ptr8non_null16NonNull$LT$T$GT$4cast17hf27ae20d45c03a75E, .Lfunc_end156-_ZN4core3ptr8non_null16NonNull$LT$T$GT$4cast17hf27ae20d45c03a75E
	.cfi_endproc

	.section	".text._ZN4core3ptr8non_null16NonNull$LT$T$GT$6as_ptr17h15acdc970069e9c9E","ax",@progbits
	.p2align	4, 0x90
	.type	_ZN4core3ptr8non_null16NonNull$LT$T$GT$6as_ptr17h15acdc970069e9c9E,@function
_ZN4core3ptr8non_null16NonNull$LT$T$GT$6as_ptr17h15acdc970069e9c9E:
.Lfunc_begin157:
	.loc	2 175 0
	.cfi_startproc
	pushq	%rax
	.cfi_def_cfa_offset 16
	movq	%rdi, (%rsp)
.Ltmp841:
	.loc	2 177 6 prologue_end
	movq	%rdi, %rax
	popq	%rcx
	.cfi_def_cfa_offset 8
	retq
.Ltmp842:
.Lfunc_end157:
	.size	_ZN4core3ptr8non_null16NonNull$LT$T$GT$6as_ptr17h15acdc970069e9c9E, .Lfunc_end157-_ZN4core3ptr8non_null16NonNull$LT$T$GT$6as_ptr17h15acdc970069e9c9E
	.cfi_endproc

	.section	".text._ZN4core3ptr8non_null16NonNull$LT$T$GT$6as_ptr17h54277ec08fa3e972E","ax",@progbits
	.p2align	4, 0x90
	.type	_ZN4core3ptr8non_null16NonNull$LT$T$GT$6as_ptr17h54277ec08fa3e972E,@function
_ZN4core3ptr8non_null16NonNull$LT$T$GT$6as_ptr17h54277ec08fa3e972E:
.Lfunc_begin158:
	.loc	2 175 0
	.cfi_startproc
	subq	$16, %rsp
	.cfi_def_cfa_offset 24
	movq	%rdi, (%rsp)
	movq	%rsi, 8(%rsp)
.Ltmp843:
	.loc	2 177 6 prologue_end
	movq	%rdi, %rax
	movq	%rsi, %rdx
	addq	$16, %rsp
	.cfi_def_cfa_offset 8
	retq
.Ltmp844:
.Lfunc_end158:
	.size	_ZN4core3ptr8non_null16NonNull$LT$T$GT$6as_ptr17h54277ec08fa3e972E, .Lfunc_end158-_ZN4core3ptr8non_null16NonNull$LT$T$GT$6as_ptr17h54277ec08fa3e972E
	.cfi_endproc

	.section	".text._ZN4core3ptr8non_null16NonNull$LT$T$GT$6as_ptr17h76b9d12e200f64a4E","ax",@progbits
	.p2align	4, 0x90
	.type	_ZN4core3ptr8non_null16NonNull$LT$T$GT$6as_ptr17h76b9d12e200f64a4E,@function
_ZN4core3ptr8non_null16NonNull$LT$T$GT$6as_ptr17h76b9d12e200f64a4E:
.Lfunc_begin159:
	.loc	2 175 0
	.cfi_startproc
	pushq	%rax
	.cfi_def_cfa_offset 16
	movq	%rdi, (%rsp)
.Ltmp845:
	.loc	2 177 6 prologue_end
	movq	%rdi, %rax
	popq	%rcx
	.cfi_def_cfa_offset 8
	retq
.Ltmp846:
.Lfunc_end159:
	.size	_ZN4core3ptr8non_null16NonNull$LT$T$GT$6as_ptr17h76b9d12e200f64a4E, .Lfunc_end159-_ZN4core3ptr8non_null16NonNull$LT$T$GT$6as_ptr17h76b9d12e200f64a4E
	.cfi_endproc

	.section	".text._ZN4core3ptr8non_null16NonNull$LT$T$GT$6as_ptr17h807f960bbfc46332E","ax",@progbits
	.p2align	4, 0x90
	.type	_ZN4core3ptr8non_null16NonNull$LT$T$GT$6as_ptr17h807f960bbfc46332E,@function
_ZN4core3ptr8non_null16NonNull$LT$T$GT$6as_ptr17h807f960bbfc46332E:
.Lfunc_begin160:
	.loc	2 175 0
	.cfi_startproc
	pushq	%rax
	.cfi_def_cfa_offset 16
	movq	%rdi, (%rsp)
.Ltmp847:
	.loc	2 177 6 prologue_end
	movq	%rdi, %rax
	popq	%rcx
	.cfi_def_cfa_offset 8
	retq
.Ltmp848:
.Lfunc_end160:
	.size	_ZN4core3ptr8non_null16NonNull$LT$T$GT$6as_ptr17h807f960bbfc46332E, .Lfunc_end160-_ZN4core3ptr8non_null16NonNull$LT$T$GT$6as_ptr17h807f960bbfc46332E
	.cfi_endproc

	.section	".text._ZN4core3ptr8non_null16NonNull$LT$T$GT$6as_ptr17h94f6fa77865cdc8aE","ax",@progbits
	.p2align	4, 0x90
	.type	_ZN4core3ptr8non_null16NonNull$LT$T$GT$6as_ptr17h94f6fa77865cdc8aE,@function
_ZN4core3ptr8non_null16NonNull$LT$T$GT$6as_ptr17h94f6fa77865cdc8aE:
.Lfunc_begin161:
	.loc	2 175 0
	.cfi_startproc
	pushq	%rax
	.cfi_def_cfa_offset 16
	movq	%rdi, (%rsp)
.Ltmp849:
	.loc	2 177 6 prologue_end
	movq	%rdi, %rax
	popq	%rcx
	.cfi_def_cfa_offset 8
	retq
.Ltmp850:
.Lfunc_end161:
	.size	_ZN4core3ptr8non_null16NonNull$LT$T$GT$6as_ptr17h94f6fa77865cdc8aE, .Lfunc_end161-_ZN4core3ptr8non_null16NonNull$LT$T$GT$6as_ptr17h94f6fa77865cdc8aE
	.cfi_endproc

	.section	".text._ZN4core3ptr8non_null16NonNull$LT$T$GT$6as_ptr17hb50fa993574df13fE","ax",@progbits
	.p2align	4, 0x90
	.type	_ZN4core3ptr8non_null16NonNull$LT$T$GT$6as_ptr17hb50fa993574df13fE,@function
_ZN4core3ptr8non_null16NonNull$LT$T$GT$6as_ptr17hb50fa993574df13fE:
.Lfunc_begin162:
	.loc	2 175 0
	.cfi_startproc
	pushq	%rax
	.cfi_def_cfa_offset 16
	movq	%rdi, (%rsp)
.Ltmp851:
	.loc	2 177 6 prologue_end
	movq	%rdi, %rax
	popq	%rcx
	.cfi_def_cfa_offset 8
	retq
.Ltmp852:
.Lfunc_end162:
	.size	_ZN4core3ptr8non_null16NonNull$LT$T$GT$6as_ptr17hb50fa993574df13fE, .Lfunc_end162-_ZN4core3ptr8non_null16NonNull$LT$T$GT$6as_ptr17hb50fa993574df13fE
	.cfi_endproc

	.section	".text._ZN4core3ptr8non_null16NonNull$LT$T$GT$6as_ref17h3b66f5392df75300E","ax",@progbits
	.p2align	4, 0x90
	.type	_ZN4core3ptr8non_null16NonNull$LT$T$GT$6as_ref17h3b66f5392df75300E,@function
_ZN4core3ptr8non_null16NonNull$LT$T$GT$6as_ref17h3b66f5392df75300E:
.Lfunc_begin163:
	.loc	2 209 0
	.cfi_startproc
	subq	$24, %rsp
	.cfi_def_cfa_offset 32
	movq	%rdi, 16(%rsp)
.Ltmp853:
	.loc	2 212 20 prologue_end
	movq	(%rdi), %rdi
	callq	_ZN4core3ptr8non_null16NonNull$LT$T$GT$6as_ptr17hb50fa993574df13fE
	movq	%rax, 8(%rsp)
	.loc	2 0 20 is_stmt 0
	movq	8(%rsp), %rax
	.loc	2 213 6 is_stmt 1
	addq	$24, %rsp
	.cfi_def_cfa_offset 8
	retq
.Ltmp854:
.Lfunc_end163:
	.size	_ZN4core3ptr8non_null16NonNull$LT$T$GT$6as_ref17h3b66f5392df75300E, .Lfunc_end163-_ZN4core3ptr8non_null16NonNull$LT$T$GT$6as_ref17h3b66f5392df75300E
	.cfi_endproc

	.section	".text._ZN4core3ptr8non_null16NonNull$LT$T$GT$6as_ref17h61d0ec7a579d022dE","ax",@progbits
	.p2align	4, 0x90
	.type	_ZN4core3ptr8non_null16NonNull$LT$T$GT$6as_ref17h61d0ec7a579d022dE,@function
_ZN4core3ptr8non_null16NonNull$LT$T$GT$6as_ref17h61d0ec7a579d022dE:
.Lfunc_begin164:
	.loc	2 209 0
	.cfi_startproc
	subq	$24, %rsp
	.cfi_def_cfa_offset 32
	movq	%rdi, 16(%rsp)
.Ltmp855:
	.loc	2 212 20 prologue_end
	movq	(%rdi), %rdi
	callq	_ZN4core3ptr8non_null16NonNull$LT$T$GT$6as_ptr17h76b9d12e200f64a4E
	movq	%rax, 8(%rsp)
	.loc	2 0 20 is_stmt 0
	movq	8(%rsp), %rax
	.loc	2 213 6 is_stmt 1
	addq	$24, %rsp
	.cfi_def_cfa_offset 8
	retq
.Ltmp856:
.Lfunc_end164:
	.size	_ZN4core3ptr8non_null16NonNull$LT$T$GT$6as_ref17h61d0ec7a579d022dE, .Lfunc_end164-_ZN4core3ptr8non_null16NonNull$LT$T$GT$6as_ref17h61d0ec7a579d022dE
	.cfi_endproc

	.section	".text._ZN4core3ptr8non_null16NonNull$LT$T$GT$6as_ref17h6d5b23653708a0f8E","ax",@progbits
	.p2align	4, 0x90
	.type	_ZN4core3ptr8non_null16NonNull$LT$T$GT$6as_ref17h6d5b23653708a0f8E,@function
_ZN4core3ptr8non_null16NonNull$LT$T$GT$6as_ref17h6d5b23653708a0f8E:
.Lfunc_begin165:
	.loc	2 209 0
	.cfi_startproc
	subq	$24, %rsp
	.cfi_def_cfa_offset 32
	movq	%rdi, 16(%rsp)
.Ltmp857:
	.loc	2 212 20 prologue_end
	movq	(%rdi), %rdi
	callq	_ZN4core3ptr8non_null16NonNull$LT$T$GT$6as_ptr17h94f6fa77865cdc8aE
	movq	%rax, 8(%rsp)
	.loc	2 0 20 is_stmt 0
	movq	8(%rsp), %rax
	.loc	2 213 6 is_stmt 1
	addq	$24, %rsp
	.cfi_def_cfa_offset 8
	retq
.Ltmp858:
.Lfunc_end165:
	.size	_ZN4core3ptr8non_null16NonNull$LT$T$GT$6as_ref17h6d5b23653708a0f8E, .Lfunc_end165-_ZN4core3ptr8non_null16NonNull$LT$T$GT$6as_ref17h6d5b23653708a0f8E
	.cfi_endproc

	.section	".text._ZN4core3ptr8non_null16NonNull$LT$T$GT$6as_ref17h71d4868ede2df5caE","ax",@progbits
	.p2align	4, 0x90
	.type	_ZN4core3ptr8non_null16NonNull$LT$T$GT$6as_ref17h71d4868ede2df5caE,@function
_ZN4core3ptr8non_null16NonNull$LT$T$GT$6as_ref17h71d4868ede2df5caE:
.Lfunc_begin166:
	.loc	2 209 0
	.cfi_startproc
	subq	$24, %rsp
	.cfi_def_cfa_offset 32
	movq	%rdi, 16(%rsp)
.Ltmp859:
	.loc	2 212 20 prologue_end
	movq	(%rdi), %rdi
	callq	_ZN4core3ptr8non_null16NonNull$LT$T$GT$6as_ptr17h15acdc970069e9c9E
	movq	%rax, 8(%rsp)
	.loc	2 0 20 is_stmt 0
	movq	8(%rsp), %rax
	.loc	2 213 6 is_stmt 1
	addq	$24, %rsp
	.cfi_def_cfa_offset 8
	retq
.Ltmp860:
.Lfunc_end166:
	.size	_ZN4core3ptr8non_null16NonNull$LT$T$GT$6as_ref17h71d4868ede2df5caE, .Lfunc_end166-_ZN4core3ptr8non_null16NonNull$LT$T$GT$6as_ref17h71d4868ede2df5caE
	.cfi_endproc

	.section	".text._ZN4core3ptr8non_null26NonNull$LT$$u5b$T$u5d$$GT$10as_mut_ptr17h3ce19480152cffedE","ax",@progbits
	.p2align	4, 0x90
	.type	_ZN4core3ptr8non_null26NonNull$LT$$u5b$T$u5d$$GT$10as_mut_ptr17h3ce19480152cffedE,@function
_ZN4core3ptr8non_null26NonNull$LT$$u5b$T$u5d$$GT$10as_mut_ptr17h3ce19480152cffedE:
.Lfunc_begin167:
	.loc	2 349 0
	.cfi_startproc
	subq	$40, %rsp
	.cfi_def_cfa_offset 48
	movq	%rdi, 24(%rsp)
	movq	%rsi, 32(%rsp)
.Ltmp861:
	.loc	2 350 9 prologue_end
	callq	_ZN4core3ptr8non_null26NonNull$LT$$u5b$T$u5d$$GT$15as_non_null_ptr17h1cdfb6cb30d02f5cE
	movq	%rax, 16(%rsp)
	.loc	2 0 9 is_stmt 0
	movq	16(%rsp), %rdi
	.loc	2 350 9
	callq	_ZN4core3ptr8non_null16NonNull$LT$T$GT$6as_ptr17h807f960bbfc46332E
	movq	%rax, 8(%rsp)
	.loc	2 0 9
	movq	8(%rsp), %rax
	.loc	2 351 6 is_stmt 1
	addq	$40, %rsp
	.cfi_def_cfa_offset 8
	retq
.Ltmp862:
.Lfunc_end167:
	.size	_ZN4core3ptr8non_null26NonNull$LT$$u5b$T$u5d$$GT$10as_mut_ptr17h3ce19480152cffedE, .Lfunc_end167-_ZN4core3ptr8non_null26NonNull$LT$$u5b$T$u5d$$GT$10as_mut_ptr17h3ce19480152cffedE
	.cfi_endproc

	.section	".text._ZN4core3ptr8non_null26NonNull$LT$$u5b$T$u5d$$GT$15as_non_null_ptr17h1cdfb6cb30d02f5cE","ax",@progbits
	.p2align	4, 0x90
	.type	_ZN4core3ptr8non_null26NonNull$LT$$u5b$T$u5d$$GT$15as_non_null_ptr17h1cdfb6cb30d02f5cE,@function
_ZN4core3ptr8non_null26NonNull$LT$$u5b$T$u5d$$GT$15as_non_null_ptr17h1cdfb6cb30d02f5cE:
.Lfunc_begin168:
	.loc	2 330 0
	.cfi_startproc
	subq	$56, %rsp
	.cfi_def_cfa_offset 64
	movq	%rdi, 40(%rsp)
	movq	%rsi, 48(%rsp)
.Ltmp863:
	.loc	2 332 41 prologue_end
	callq	_ZN4core3ptr8non_null16NonNull$LT$T$GT$6as_ptr17h54277ec08fa3e972E
	movq	%rax, 32(%rsp)
	movq	%rdx, 24(%rsp)
	.loc	2 0 41 is_stmt 0
	movq	32(%rsp), %rdi
	movq	24(%rsp), %rsi
	.loc	2 332 41
	callq	_ZN4core3ptr7mut_ptr41_$LT$impl$u20$$BP$mut$u20$$u5b$T$u5d$$GT$10as_mut_ptr17h155ecc13605d53b0E
	movq	%rax, 16(%rsp)
	.loc	2 0 41
	movq	16(%rsp), %rdi
	.loc	2 332 18
	callq	_ZN4core3ptr8non_null16NonNull$LT$T$GT$13new_unchecked17hbe0716788325a631E
	movq	%rax, 8(%rsp)
	.loc	2 0 18
	movq	8(%rsp), %rax
	.loc	2 333 6 is_stmt 1
	addq	$56, %rsp
	.cfi_def_cfa_offset 8
	retq
.Ltmp864:
.Lfunc_end168:
	.size	_ZN4core3ptr8non_null26NonNull$LT$$u5b$T$u5d$$GT$15as_non_null_ptr17h1cdfb6cb30d02f5cE, .Lfunc_end168-_ZN4core3ptr8non_null26NonNull$LT$$u5b$T$u5d$$GT$15as_non_null_ptr17h1cdfb6cb30d02f5cE
	.cfi_endproc

	.section	".text._ZN4core3ptr8non_null26NonNull$LT$$u5b$T$u5d$$GT$20slice_from_raw_parts17h267d7f6133fe6f3dE","ax",@progbits
	.p2align	4, 0x90
	.type	_ZN4core3ptr8non_null26NonNull$LT$$u5b$T$u5d$$GT$20slice_from_raw_parts17h267d7f6133fe6f3dE,@function
_ZN4core3ptr8non_null26NonNull$LT$$u5b$T$u5d$$GT$20slice_from_raw_parts17h267d7f6133fe6f3dE:
.Lfunc_begin169:
	.loc	2 288 0
	.cfi_startproc
	subq	$72, %rsp
	.cfi_def_cfa_offset 80
	movq	%rdi, 56(%rsp)
	movq	%rsi, 64(%rsp)
	movq	%rsi, 48(%rsp)
.Ltmp865:
	.loc	2 290 70 prologue_end
	callq	_ZN4core3ptr8non_null16NonNull$LT$T$GT$6as_ptr17h807f960bbfc46332E
	movq	%rax, 40(%rsp)
	.loc	2 0 70 is_stmt 0
	movq	40(%rsp), %rdi
	movq	48(%rsp), %rsi
	.loc	2 290 38
	callq	_ZN4core3ptr24slice_from_raw_parts_mut17h4d65a2e19e4d3da9E
	movq	%rax, 32(%rsp)
	movq	%rdx, 24(%rsp)
	.loc	2 0 38
	movq	32(%rsp), %rdi
	movq	24(%rsp), %rsi
	.loc	2 290 18
	callq	_ZN4core3ptr8non_null16NonNull$LT$T$GT$13new_unchecked17hf8b94f2082b35f3fE
	movq	%rax, 16(%rsp)
	movq	%rdx, 8(%rsp)
	.loc	2 0 18
	movq	16(%rsp), %rax
	movq	8(%rsp), %rdx
	.loc	2 291 6 is_stmt 1
	addq	$72, %rsp
	.cfi_def_cfa_offset 8
	retq
.Ltmp866:
.Lfunc_end169:
	.size	_ZN4core3ptr8non_null26NonNull$LT$$u5b$T$u5d$$GT$20slice_from_raw_parts17h267d7f6133fe6f3dE, .Lfunc_end169-_ZN4core3ptr8non_null26NonNull$LT$$u5b$T$u5d$$GT$20slice_from_raw_parts17h267d7f6133fe6f3dE
	.cfi_endproc

	.section	".text._ZN4core4cell19UnsafeCell$LT$T$GT$3get17h1cebdd43157a95e5E","ax",@progbits
	.p2align	4, 0x90
	.type	_ZN4core4cell19UnsafeCell$LT$T$GT$3get17h1cebdd43157a95e5E,@function
_ZN4core4cell19UnsafeCell$LT$T$GT$3get17h1cebdd43157a95e5E:
.Lfunc_begin170:
	.file	20 "/rustc/e1884a8e3c3e813aada8254edfa120e85bf5ffca/library/core/src/cell.rs"
	.loc	20 1711 0
	.cfi_startproc
	pushq	%rax
	.cfi_def_cfa_offset 16
	movq	%rdi, (%rsp)
.Ltmp867:
	.loc	20 1716 6 prologue_end
	movq	%rdi, %rax
	popq	%rcx
	.cfi_def_cfa_offset 8
	retq
.Ltmp868:
.Lfunc_end170:
	.size	_ZN4core4cell19UnsafeCell$LT$T$GT$3get17h1cebdd43157a95e5E, .Lfunc_end170-_ZN4core4cell19UnsafeCell$LT$T$GT$3get17h1cebdd43157a95e5E
	.cfi_endproc

	.section	".text._ZN4core4cell19UnsafeCell$LT$T$GT$3get17h264633127576b15aE","ax",@progbits
	.p2align	4, 0x90
	.type	_ZN4core4cell19UnsafeCell$LT$T$GT$3get17h264633127576b15aE,@function
_ZN4core4cell19UnsafeCell$LT$T$GT$3get17h264633127576b15aE:
.Lfunc_begin171:
	.loc	20 1711 0
	.cfi_startproc
	pushq	%rax
	.cfi_def_cfa_offset 16
	movq	%rdi, (%rsp)
.Ltmp869:
	.loc	20 1716 6 prologue_end
	movq	%rdi, %rax
	popq	%rcx
	.cfi_def_cfa_offset 8
	retq
.Ltmp870:
.Lfunc_end171:
	.size	_ZN4core4cell19UnsafeCell$LT$T$GT$3get17h264633127576b15aE, .Lfunc_end171-_ZN4core4cell19UnsafeCell$LT$T$GT$3get17h264633127576b15aE
	.cfi_endproc

	.section	".text._ZN4core4cell19UnsafeCell$LT$T$GT$3get17h2a599feabbc5f80cE","ax",@progbits
	.p2align	4, 0x90
	.type	_ZN4core4cell19UnsafeCell$LT$T$GT$3get17h2a599feabbc5f80cE,@function
_ZN4core4cell19UnsafeCell$LT$T$GT$3get17h2a599feabbc5f80cE:
.Lfunc_begin172:
	.loc	20 1711 0
	.cfi_startproc
	pushq	%rax
	.cfi_def_cfa_offset 16
	movq	%rdi, (%rsp)
.Ltmp871:
	.loc	20 1716 6 prologue_end
	movq	%rdi, %rax
	popq	%rcx
	.cfi_def_cfa_offset 8
	retq
.Ltmp872:
.Lfunc_end172:
	.size	_ZN4core4cell19UnsafeCell$LT$T$GT$3get17h2a599feabbc5f80cE, .Lfunc_end172-_ZN4core4cell19UnsafeCell$LT$T$GT$3get17h2a599feabbc5f80cE
	.cfi_endproc

	.section	".text._ZN4core4cell19UnsafeCell$LT$T$GT$3get17haa89f2d8094ce7d6E","ax",@progbits
	.p2align	4, 0x90
	.type	_ZN4core4cell19UnsafeCell$LT$T$GT$3get17haa89f2d8094ce7d6E,@function
_ZN4core4cell19UnsafeCell$LT$T$GT$3get17haa89f2d8094ce7d6E:
.Lfunc_begin173:
	.loc	20 1711 0
	.cfi_startproc
	pushq	%rax
	.cfi_def_cfa_offset 16
	movq	%rdi, (%rsp)
.Ltmp873:
	.loc	20 1716 6 prologue_end
	movq	%rdi, %rax
	popq	%rcx
	.cfi_def_cfa_offset 8
	retq
.Ltmp874:
.Lfunc_end173:
	.size	_ZN4core4cell19UnsafeCell$LT$T$GT$3get17haa89f2d8094ce7d6E, .Lfunc_end173-_ZN4core4cell19UnsafeCell$LT$T$GT$3get17haa89f2d8094ce7d6E
	.cfi_endproc

	.section	".text._ZN4core4cell19UnsafeCell$LT$T$GT$3new17h1708acb9aebfe36fE","ax",@progbits
	.p2align	4, 0x90
	.type	_ZN4core4cell19UnsafeCell$LT$T$GT$3new17h1708acb9aebfe36fE,@function
_ZN4core4cell19UnsafeCell$LT$T$GT$3new17h1708acb9aebfe36fE:
.Lfunc_begin174:
	.loc	20 1668 0
	.cfi_startproc
	subq	$16, %rsp
	.cfi_def_cfa_offset 24
	movq	%rdi, 8(%rsp)
.Ltmp875:
	.loc	20 1669 9 prologue_end
	movq	%rdi, (%rsp)
	.loc	20 1670 6
	movq	(%rsp), %rax
	addq	$16, %rsp
	.cfi_def_cfa_offset 8
	retq
.Ltmp876:
.Lfunc_end174:
	.size	_ZN4core4cell19UnsafeCell$LT$T$GT$3new17h1708acb9aebfe36fE, .Lfunc_end174-_ZN4core4cell19UnsafeCell$LT$T$GT$3new17h1708acb9aebfe36fE
	.cfi_endproc

	.section	".text._ZN4core4cell19UnsafeCell$LT$T$GT$3new17h264b5912fb05aef6E","ax",@progbits
	.p2align	4, 0x90
	.type	_ZN4core4cell19UnsafeCell$LT$T$GT$3new17h264b5912fb05aef6E,@function
_ZN4core4cell19UnsafeCell$LT$T$GT$3new17h264b5912fb05aef6E:
.Lfunc_begin175:
	.loc	20 1668 0
	.cfi_startproc
	subq	$2, %rsp
	.cfi_def_cfa_offset 10
	movb	%dil, 1(%rsp)
.Ltmp877:
	.loc	20 1669 9 prologue_end
	movb	%dil, (%rsp)
	.loc	20 1670 6
	movb	(%rsp), %al
	addq	$2, %rsp
	.cfi_def_cfa_offset 8
	retq
.Ltmp878:
.Lfunc_end175:
	.size	_ZN4core4cell19UnsafeCell$LT$T$GT$3new17h264b5912fb05aef6E, .Lfunc_end175-_ZN4core4cell19UnsafeCell$LT$T$GT$3new17h264b5912fb05aef6E
	.cfi_endproc

	.section	".text._ZN4core4cell19UnsafeCell$LT$T$GT$3new17h8616e69028c1c996E","ax",@progbits
	.p2align	4, 0x90
	.type	_ZN4core4cell19UnsafeCell$LT$T$GT$3new17h8616e69028c1c996E,@function
_ZN4core4cell19UnsafeCell$LT$T$GT$3new17h8616e69028c1c996E:
.Lfunc_begin176:
	.loc	20 1668 0
	.cfi_startproc
	subq	$16, %rsp
	.cfi_def_cfa_offset 24
	movq	%rdi, 8(%rsp)
.Ltmp879:
	.loc	20 1669 9 prologue_end
	movq	%rdi, (%rsp)
	.loc	20 1670 6
	movq	(%rsp), %rax
	addq	$16, %rsp
	.cfi_def_cfa_offset 8
	retq
.Ltmp880:
.Lfunc_end176:
	.size	_ZN4core4cell19UnsafeCell$LT$T$GT$3new17h8616e69028c1c996E, .Lfunc_end176-_ZN4core4cell19UnsafeCell$LT$T$GT$3new17h8616e69028c1c996E
	.cfi_endproc

	.section	".text._ZN4core4cell19UnsafeCell$LT$T$GT$3new17hc632cd5af2c35dcbE","ax",@progbits
	.p2align	4, 0x90
	.type	_ZN4core4cell19UnsafeCell$LT$T$GT$3new17hc632cd5af2c35dcbE,@function
_ZN4core4cell19UnsafeCell$LT$T$GT$3new17hc632cd5af2c35dcbE:
.Lfunc_begin177:
	.loc	20 1668 0
	.cfi_startproc
	subq	$24, %rsp
	.cfi_def_cfa_offset 32
	movq	%rdi, %rax
.Ltmp881:
	.loc	20 1669 22 prologue_end
	movq	(%rsi), %rcx
	movq	%rcx, (%rsp)
	movq	8(%rsi), %rcx
	movq	%rcx, 8(%rsp)
	movq	16(%rsi), %rcx
	movq	%rcx, 16(%rsp)
	.loc	20 1669 9 is_stmt 0
	movq	(%rsp), %rcx
	movq	%rcx, (%rdi)
	movq	8(%rsp), %rcx
	movq	%rcx, 8(%rdi)
	movq	16(%rsp), %rcx
	movq	%rcx, 16(%rdi)
	.loc	20 1670 6 is_stmt 1
	addq	$24, %rsp
	.cfi_def_cfa_offset 8
	retq
.Ltmp882:
.Lfunc_end177:
	.size	_ZN4core4cell19UnsafeCell$LT$T$GT$3new17hc632cd5af2c35dcbE, .Lfunc_end177-_ZN4core4cell19UnsafeCell$LT$T$GT$3new17hc632cd5af2c35dcbE
	.cfi_endproc

	.section	.text._ZN4core4hint9black_box17hf80f8a9ab9725900E,"ax",@progbits
	.p2align	4, 0x90
	.type	_ZN4core4hint9black_box17hf80f8a9ab9725900E,@function
_ZN4core4hint9black_box17hf80f8a9ab9725900E:
.Lfunc_begin178:
	.file	21 "/rustc/e1884a8e3c3e813aada8254edfa120e85bf5ffca/library/core/src/hint.rs"
	.loc	21 159 0
	.cfi_startproc
	pushq	%rax
	.cfi_def_cfa_offset 16
	movq	%rsp, %rax
.Ltmp883:
	.loc	21 170 9 prologue_end
	#APP
	#NO_APP
	.loc	21 174 2
	popq	%rax
	.cfi_def_cfa_offset 8
	retq
.Ltmp884:
.Lfunc_end178:
	.size	_ZN4core4hint9black_box17hf80f8a9ab9725900E, .Lfunc_end178-_ZN4core4hint9black_box17hf80f8a9ab9725900E
	.cfi_endproc

	.section	.text._ZN4core4sync6atomic10AtomicBool3new17h63a8def4b8b28025E,"ax",@progbits
	.p2align	4, 0x90
	.type	_ZN4core4sync6atomic10AtomicBool3new17h63a8def4b8b28025E,@function
_ZN4core4sync6atomic10AtomicBool3new17h63a8def4b8b28025E:
.Lfunc_begin179:
	.file	22 "/rustc/e1884a8e3c3e813aada8254edfa120e85bf5ffca/library/core/src/sync/atomic.rs"
	.loc	22 295 0
	.cfi_startproc
	subq	$24, %rsp
	.cfi_def_cfa_offset 32
	movb	%dil, %al
	andb	$1, %al
	movb	%al, 23(%rsp)
.Ltmp885:
	.loc	22 296 41 prologue_end
	andb	$1, %dil
	.loc	22 296 25 is_stmt 0
	movzbl	%dil, %edi
	callq	_ZN4core4cell19UnsafeCell$LT$T$GT$3new17h264b5912fb05aef6E
	movb	%al, 15(%rsp)
	.loc	22 0 25
	movb	15(%rsp), %al
	.loc	22 296 9
	movb	%al, 16(%rsp)
	.loc	22 297 6 is_stmt 1
	movb	16(%rsp), %al
	addq	$24, %rsp
	.cfi_def_cfa_offset 8
	retq
.Ltmp886:
.Lfunc_end179:
	.size	_ZN4core4sync6atomic10AtomicBool3new17h63a8def4b8b28025E, .Lfunc_end179-_ZN4core4sync6atomic10AtomicBool3new17h63a8def4b8b28025E
	.cfi_endproc

	.section	.text._ZN4core4sync6atomic10AtomicBool4load17h110174f3351d3470E,"ax",@progbits
	.p2align	4, 0x90
	.type	_ZN4core4sync6atomic10AtomicBool4load17h110174f3351d3470E,@function
_ZN4core4sync6atomic10AtomicBool4load17h110174f3351d3470E:
.Lfunc_begin180:
	.loc	22 383 0
	.cfi_startproc
	subq	$40, %rsp
	.cfi_def_cfa_offset 48
	movq	%rdi, 24(%rsp)
	movb	%sil, 39(%rsp)
	movb	%sil, 23(%rsp)
.Ltmp887:
	.loc	22 386 30 prologue_end
	callq	_ZN4core4cell19UnsafeCell$LT$T$GT$3get17h2a599feabbc5f80cE
	movq	%rax, 8(%rsp)
	.loc	22 0 30 is_stmt 0
	movq	8(%rsp), %rdi
	movb	23(%rsp), %al
	.loc	22 386 18
	movzbl	%al, %esi
	callq	_ZN4core4sync6atomic11atomic_load17he6d2f47d6b841ee7E
	movb	%al, 7(%rsp)
	.loc	22 0 18
	movb	7(%rsp), %al
	.loc	22 386 18
	cmpb	$0, %al
	setne	%cl
	.loc	22 387 6 is_stmt 1
	andb	$1, %cl
	movzbl	%cl, %eax
	addq	$40, %rsp
	.cfi_def_cfa_offset 8
	retq
.Ltmp888:
.Lfunc_end180:
	.size	_ZN4core4sync6atomic10AtomicBool4load17h110174f3351d3470E, .Lfunc_end180-_ZN4core4sync6atomic10AtomicBool4load17h110174f3351d3470E
	.cfi_endproc

	.section	.text._ZN4core4sync6atomic10AtomicBool5store17h8615b13d21a26e7eE,"ax",@progbits
	.p2align	4, 0x90
	.type	_ZN4core4sync6atomic10AtomicBool5store17h8615b13d21a26e7eE,@function
_ZN4core4sync6atomic10AtomicBool5store17h8615b13d21a26e7eE:
.Lfunc_begin181:
	.loc	22 410 0
	.cfi_startproc
	subq	$40, %rsp
	.cfi_def_cfa_offset 48
	movq	%rdi, 24(%rsp)
	movb	%sil, %al
	andb	$1, %al
	movb	%al, 38(%rsp)
	movb	%dl, 39(%rsp)
	movb	%dl, 23(%rsp)
	movb	%sil, 22(%rsp)
.Ltmp889:
	.loc	22 414 26 prologue_end
	callq	_ZN4core4cell19UnsafeCell$LT$T$GT$3get17h2a599feabbc5f80cE
	movq	%rax, 8(%rsp)
	.loc	22 0 26 is_stmt 0
	movb	22(%rsp), %al
	.loc	22 414 40
	andb	$1, %al
	movq	8(%rsp), %rdi
	.loc	22 414 13
	movzbl	%al, %esi
	movb	23(%rsp), %al
	movzbl	%al, %edx
	callq	_ZN4core4sync6atomic12atomic_store17hbe1f22a50337c366E
	.loc	22 416 6 is_stmt 1
	addq	$40, %rsp
	.cfi_def_cfa_offset 8
	retq
.Ltmp890:
.Lfunc_end181:
	.size	_ZN4core4sync6atomic10AtomicBool5store17h8615b13d21a26e7eE, .Lfunc_end181-_ZN4core4sync6atomic10AtomicBool5store17h8615b13d21a26e7eE
	.cfi_endproc

	.section	.text._ZN4core4sync6atomic10atomic_add17hb7cb3fd1811559adE,"ax",@progbits
	.p2align	4, 0x90
	.type	_ZN4core4sync6atomic10atomic_add17hb7cb3fd1811559adE,@function
_ZN4core4sync6atomic10atomic_add17hb7cb3fd1811559adE:
.Lfunc_begin182:
	.loc	22 2381 0
	.cfi_startproc
	subq	$56, %rsp
	.cfi_def_cfa_offset 64
	movb	%dl, 31(%rsp)
	movq	%rdi, 40(%rsp)
	movq	%rsi, 48(%rsp)
.Ltmp891:
	.loc	22 2385 13 prologue_end
	movzbl	31(%rsp), %eax
	movl	%eax, %ecx
	movq	%rsi, 16(%rsp)
	movq	%rdi, 8(%rsp)
	movq	%rcx, (%rsp)
	.loc	22 0 13 is_stmt 0
	leaq	.LJTI182_0(%rip), %rax
	movq	(%rsp), %rcx
	movslq	(%rax,%rcx,4), %rdx
	addq	%rax, %rdx
	jmpq	*%rdx
.LBB182_1:
	movq	16(%rsp), %rax
	movq	8(%rsp), %rcx
	.loc	22 2389 23 is_stmt 1
	lock		xaddq	%rax, (%rcx)
	movq	%rax, 32(%rsp)
	jmp	.LBB182_11
	.cfi_def_cfa_offset 8
	.loc	22 2384 15
	ud2
.LBB182_3:
	.cfi_def_cfa_offset 64
	.loc	22 0 15 is_stmt 0
	movq	16(%rsp), %rax
	movq	8(%rsp), %rcx
	.loc	22 2385 24 is_stmt 1
	lock		xaddq	%rax, (%rcx)
	movq	%rax, 32(%rsp)
	.loc	22 2384 9
	jmp	.LBB182_12
.LBB182_5:
	.loc	22 0 9 is_stmt 0
	movq	16(%rsp), %rax
	movq	8(%rsp), %rcx
	.loc	22 2386 24 is_stmt 1
	lock		xaddq	%rax, (%rcx)
	movq	%rax, 32(%rsp)
	.loc	22 2384 9
	jmp	.LBB182_12
.LBB182_7:
	.loc	22 0 9 is_stmt 0
	movq	16(%rsp), %rax
	movq	8(%rsp), %rcx
	.loc	22 2387 23 is_stmt 1
	lock		xaddq	%rax, (%rcx)
	movq	%rax, 32(%rsp)
	.loc	22 2384 9
	jmp	.LBB182_12
.LBB182_9:
	.loc	22 0 9 is_stmt 0
	movq	16(%rsp), %rax
	movq	8(%rsp), %rcx
	.loc	22 2388 24 is_stmt 1
	lock		xaddq	%rax, (%rcx)
	movq	%rax, 32(%rsp)
	.loc	22 2384 9
	jmp	.LBB182_12
.LBB182_11:
	jmp	.LBB182_12
.LBB182_12:
	.loc	22 2392 2
	movq	32(%rsp), %rax
	addq	$56, %rsp
	.cfi_def_cfa_offset 8
	retq
.Ltmp892:
.Lfunc_end182:
	.size	_ZN4core4sync6atomic10atomic_add17hb7cb3fd1811559adE, .Lfunc_end182-_ZN4core4sync6atomic10atomic_add17hb7cb3fd1811559adE
	.cfi_endproc
	.section	.rodata._ZN4core4sync6atomic10atomic_add17hb7cb3fd1811559adE,"a",@progbits
	.p2align	2
.LJTI182_0:
	.long	.LBB182_9-.LJTI182_0
	.long	.LBB182_5-.LJTI182_0
	.long	.LBB182_3-.LJTI182_0
	.long	.LBB182_7-.LJTI182_0
	.long	.LBB182_1-.LJTI182_0

	.section	.text._ZN4core4sync6atomic10atomic_sub17h6940e1a2a498753eE,"ax",@progbits
	.p2align	4, 0x90
	.type	_ZN4core4sync6atomic10atomic_sub17h6940e1a2a498753eE,@function
_ZN4core4sync6atomic10atomic_sub17h6940e1a2a498753eE:
.Lfunc_begin183:
	.loc	22 2397 0
	.cfi_startproc
	subq	$56, %rsp
	.cfi_def_cfa_offset 64
	movb	%dl, 31(%rsp)
	movq	%rdi, 40(%rsp)
	movq	%rsi, 48(%rsp)
.Ltmp893:
	.loc	22 2401 13 prologue_end
	movzbl	31(%rsp), %eax
	movl	%eax, %ecx
	movq	%rsi, 16(%rsp)
	movq	%rdi, 8(%rsp)
	movq	%rcx, (%rsp)
	.loc	22 0 13 is_stmt 0
	leaq	.LJTI183_0(%rip), %rax
	movq	(%rsp), %rcx
	movslq	(%rax,%rcx,4), %rdx
	addq	%rax, %rdx
	jmpq	*%rdx
.LBB183_1:
	movq	16(%rsp), %rax
	.loc	22 2405 23 is_stmt 1
	negq	%rax
	movq	8(%rsp), %rcx
	lock		xaddq	%rax, (%rcx)
	movq	%rax, 32(%rsp)
	jmp	.LBB183_11
	.cfi_def_cfa_offset 8
	.loc	22 2400 15
	ud2
.LBB183_3:
	.cfi_def_cfa_offset 64
	.loc	22 0 15 is_stmt 0
	movq	16(%rsp), %rax
	.loc	22 2401 24 is_stmt 1
	negq	%rax
	movq	8(%rsp), %rcx
	lock		xaddq	%rax, (%rcx)
	movq	%rax, 32(%rsp)
	.loc	22 2400 9
	jmp	.LBB183_12
.LBB183_5:
	.loc	22 0 9 is_stmt 0
	movq	16(%rsp), %rax
	.loc	22 2402 24 is_stmt 1
	negq	%rax
	movq	8(%rsp), %rcx
	lock		xaddq	%rax, (%rcx)
	movq	%rax, 32(%rsp)
	.loc	22 2400 9
	jmp	.LBB183_12
.LBB183_7:
	.loc	22 0 9 is_stmt 0
	movq	16(%rsp), %rax
	.loc	22 2403 23 is_stmt 1
	negq	%rax
	movq	8(%rsp), %rcx
	lock		xaddq	%rax, (%rcx)
	movq	%rax, 32(%rsp)
	.loc	22 2400 9
	jmp	.LBB183_12
.LBB183_9:
	.loc	22 0 9 is_stmt 0
	movq	16(%rsp), %rax
	.loc	22 2404 24 is_stmt 1
	negq	%rax
	movq	8(%rsp), %rcx
	lock		xaddq	%rax, (%rcx)
	movq	%rax, 32(%rsp)
	.loc	22 2400 9
	jmp	.LBB183_12
.LBB183_11:
	jmp	.LBB183_12
.LBB183_12:
	.loc	22 2408 2
	movq	32(%rsp), %rax
	addq	$56, %rsp
	.cfi_def_cfa_offset 8
	retq
.Ltmp894:
.Lfunc_end183:
	.size	_ZN4core4sync6atomic10atomic_sub17h6940e1a2a498753eE, .Lfunc_end183-_ZN4core4sync6atomic10atomic_sub17h6940e1a2a498753eE
	.cfi_endproc
	.section	.rodata._ZN4core4sync6atomic10atomic_sub17h6940e1a2a498753eE,"a",@progbits
	.p2align	2
.LJTI183_0:
	.long	.LBB183_9-.LJTI183_0
	.long	.LBB183_5-.LJTI183_0
	.long	.LBB183_3-.LJTI183_0
	.long	.LBB183_7-.LJTI183_0
	.long	.LBB183_1-.LJTI183_0

	.section	.text._ZN4core4sync6atomic11AtomicUsize3new17hd8e370c85f109452E,"ax",@progbits
	.p2align	4, 0x90
	.type	_ZN4core4sync6atomic11AtomicUsize3new17hd8e370c85f109452E,@function
_ZN4core4sync6atomic11AtomicUsize3new17hd8e370c85f109452E:
.Lfunc_begin184:
	.loc	22 1374 0
	.cfi_startproc
	subq	$24, %rsp
	.cfi_def_cfa_offset 32
	movq	%rdi, 16(%rsp)
.Ltmp895:
	.loc	22 1375 30 prologue_end
	callq	_ZN4core4cell19UnsafeCell$LT$T$GT$3new17h1708acb9aebfe36fE
	movq	%rax, (%rsp)
	.loc	22 0 30 is_stmt 0
	movq	(%rsp), %rax
	.loc	22 1375 21
	movq	%rax, 8(%rsp)
	.loc	22 1376 18 is_stmt 1
	movq	8(%rsp), %rax
	addq	$24, %rsp
	.cfi_def_cfa_offset 8
	retq
.Ltmp896:
.Lfunc_end184:
	.size	_ZN4core4sync6atomic11AtomicUsize3new17hd8e370c85f109452E, .Lfunc_end184-_ZN4core4sync6atomic11AtomicUsize3new17hd8e370c85f109452E
	.cfi_endproc

	.section	.text._ZN4core4sync6atomic11AtomicUsize9fetch_add17hfda0f1b527a7f10fE,"ax",@progbits
	.p2align	4, 0x90
	.type	_ZN4core4sync6atomic11AtomicUsize9fetch_add17hfda0f1b527a7f10fE,@function
_ZN4core4sync6atomic11AtomicUsize9fetch_add17hfda0f1b527a7f10fE:
.Lfunc_begin185:
	.loc	22 1720 0
	.cfi_startproc
	subq	$56, %rsp
	.cfi_def_cfa_offset 64
	movq	%rdi, 32(%rsp)
	movq	%rsi, 40(%rsp)
	movb	%dl, 55(%rsp)
	movq	%rsi, 24(%rsp)
	movb	%dl, 23(%rsp)
.Ltmp897:
	.loc	22 1722 41 prologue_end
	callq	_ZN4core4cell19UnsafeCell$LT$T$GT$3get17haa89f2d8094ce7d6E
	movq	%rax, 8(%rsp)
	.loc	22 0 41 is_stmt 0
	movq	8(%rsp), %rdi
	movq	24(%rsp), %rsi
	movb	23(%rsp), %al
	.loc	22 1722 30
	movzbl	%al, %edx
	callq	_ZN4core4sync6atomic10atomic_add17hb7cb3fd1811559adE
	movq	%rax, (%rsp)
	.loc	22 0 30
	movq	(%rsp), %rax
	.loc	22 1723 18 is_stmt 1
	addq	$56, %rsp
	.cfi_def_cfa_offset 8
	retq
.Ltmp898:
.Lfunc_end185:
	.size	_ZN4core4sync6atomic11AtomicUsize9fetch_add17hfda0f1b527a7f10fE, .Lfunc_end185-_ZN4core4sync6atomic11AtomicUsize9fetch_add17hfda0f1b527a7f10fE
	.cfi_endproc

	.section	.text._ZN4core4sync6atomic11AtomicUsize9fetch_sub17h7082c8e967ce4195E,"ax",@progbits
	.p2align	4, 0x90
	.type	_ZN4core4sync6atomic11AtomicUsize9fetch_sub17h7082c8e967ce4195E,@function
_ZN4core4sync6atomic11AtomicUsize9fetch_sub17h7082c8e967ce4195E:
.Lfunc_begin186:
	.loc	22 1751 0
	.cfi_startproc
	subq	$56, %rsp
	.cfi_def_cfa_offset 64
	movq	%rdi, 32(%rsp)
	movq	%rsi, 40(%rsp)
	movb	%dl, 55(%rsp)
	movq	%rsi, 24(%rsp)
	movb	%dl, 23(%rsp)
.Ltmp899:
	.loc	22 1753 41 prologue_end
	callq	_ZN4core4cell19UnsafeCell$LT$T$GT$3get17haa89f2d8094ce7d6E
	movq	%rax, 8(%rsp)
	.loc	22 0 41 is_stmt 0
	movq	8(%rsp), %rdi
	movq	24(%rsp), %rsi
	movb	23(%rsp), %al
	.loc	22 1753 30
	movzbl	%al, %edx
	callq	_ZN4core4sync6atomic10atomic_sub17h6940e1a2a498753eE
	movq	%rax, (%rsp)
	.loc	22 0 30
	movq	(%rsp), %rax
	.loc	22 1754 18 is_stmt 1
	addq	$56, %rsp
	.cfi_def_cfa_offset 8
	retq
.Ltmp900:
.Lfunc_end186:
	.size	_ZN4core4sync6atomic11AtomicUsize9fetch_sub17h7082c8e967ce4195E, .Lfunc_end186-_ZN4core4sync6atomic11AtomicUsize9fetch_sub17h7082c8e967ce4195E
	.cfi_endproc

	.section	.text._ZN4core4sync6atomic11atomic_load17hba9e518c2d4b57a6E,"ax",@progbits
	.p2align	4, 0x90
	.type	_ZN4core4sync6atomic11atomic_load17hba9e518c2d4b57a6E,@function
_ZN4core4sync6atomic11atomic_load17hba9e518c2d4b57a6E:
.Lfunc_begin187:
	.loc	22 2350 0
	.cfi_startproc
	subq	$40, %rsp
	.cfi_def_cfa_offset 48
	movb	%sil, 23(%rsp)
	movq	%rdi, 32(%rsp)
.Ltmp901:
	.loc	22 2354 13 prologue_end
	movzbl	23(%rsp), %eax
	movl	%eax, %ecx
	movq	%rdi, 8(%rsp)
	movq	%rcx, (%rsp)
	.loc	22 0 13 is_stmt 0
	leaq	.LJTI187_0(%rip), %rax
	movq	(%rsp), %rcx
	movslq	(%rax,%rcx,4), %rdx
	addq	%rax, %rdx
	jmpq	*%rdx
.LBB187_1:
	.loc	22 2358 23 is_stmt 1
	leaq	.L__unnamed_9(%rip), %rdi
	leaq	.L__unnamed_10(%rip), %rdx
	movq	_ZN4core9panicking5panic17h339b30ca166fd852E@GOTPCREL(%rip), %rax
	movl	$49, %esi
	callq	*%rax
	ud2
	.cfi_def_cfa_offset 8
	.loc	22 2353 15
	ud2
.LBB187_3:
	.cfi_def_cfa_offset 48
	.loc	22 0 15 is_stmt 0
	movq	8(%rsp), %rax
	.loc	22 2354 24 is_stmt 1
	movq	(%rax), %rcx
	movq	%rcx, 24(%rsp)
	.loc	22 2353 9
	jmp	.LBB187_10
.LBB187_5:
	.loc	22 0 9 is_stmt 0
	movq	8(%rsp), %rax
	.loc	22 2355 24 is_stmt 1
	movq	(%rax), %rcx
	movq	%rcx, 24(%rsp)
	.loc	22 2353 9
	jmp	.LBB187_10
.LBB187_7:
	.loc	22 0 9 is_stmt 0
	movq	8(%rsp), %rax
	.loc	22 2356 23 is_stmt 1
	movq	(%rax), %rcx
	movq	%rcx, 24(%rsp)
	.loc	22 2353 9
	jmp	.LBB187_10
.LBB187_9:
	.loc	22 2357 24
	leaq	.L__unnamed_11(%rip), %rdi
	leaq	.L__unnamed_12(%rip), %rdx
	movq	_ZN4core9panicking5panic17h339b30ca166fd852E@GOTPCREL(%rip), %rax
	movl	$40, %esi
	callq	*%rax
	ud2
.LBB187_10:
	.loc	22 2361 2
	movq	24(%rsp), %rax
	addq	$40, %rsp
	.cfi_def_cfa_offset 8
	retq
.Ltmp902:
.Lfunc_end187:
	.size	_ZN4core4sync6atomic11atomic_load17hba9e518c2d4b57a6E, .Lfunc_end187-_ZN4core4sync6atomic11atomic_load17hba9e518c2d4b57a6E
	.cfi_endproc
	.section	.rodata._ZN4core4sync6atomic11atomic_load17hba9e518c2d4b57a6E,"a",@progbits
	.p2align	2
.LJTI187_0:
	.long	.LBB187_5-.LJTI187_0
	.long	.LBB187_9-.LJTI187_0
	.long	.LBB187_3-.LJTI187_0
	.long	.LBB187_1-.LJTI187_0
	.long	.LBB187_7-.LJTI187_0

	.section	.text._ZN4core4sync6atomic11atomic_load17he6d2f47d6b841ee7E,"ax",@progbits
	.p2align	4, 0x90
	.type	_ZN4core4sync6atomic11atomic_load17he6d2f47d6b841ee7E,@function
_ZN4core4sync6atomic11atomic_load17he6d2f47d6b841ee7E:
.Lfunc_begin188:
	.loc	22 2350 0
	.cfi_startproc
	subq	$40, %rsp
	.cfi_def_cfa_offset 48
	movb	%sil, 30(%rsp)
	movq	%rdi, 32(%rsp)
.Ltmp903:
	.loc	22 2354 13 prologue_end
	movzbl	30(%rsp), %eax
	movl	%eax, %ecx
	movq	%rdi, 16(%rsp)
	movq	%rcx, 8(%rsp)
	.loc	22 0 13 is_stmt 0
	leaq	.LJTI188_0(%rip), %rax
	movq	8(%rsp), %rcx
	movslq	(%rax,%rcx,4), %rdx
	addq	%rax, %rdx
	jmpq	*%rdx
.LBB188_1:
	.loc	22 2358 23 is_stmt 1
	leaq	.L__unnamed_9(%rip), %rdi
	leaq	.L__unnamed_10(%rip), %rdx
	movq	_ZN4core9panicking5panic17h339b30ca166fd852E@GOTPCREL(%rip), %rax
	movl	$49, %esi
	callq	*%rax
	ud2
	.cfi_def_cfa_offset 8
	.loc	22 2353 15
	ud2
.LBB188_3:
	.cfi_def_cfa_offset 48
	.loc	22 0 15 is_stmt 0
	movq	16(%rsp), %rax
	.loc	22 2354 24 is_stmt 1
	movb	(%rax), %cl
	movb	%cl, 31(%rsp)
	.loc	22 2353 9
	jmp	.LBB188_10
.LBB188_5:
	.loc	22 0 9 is_stmt 0
	movq	16(%rsp), %rax
	.loc	22 2355 24 is_stmt 1
	movb	(%rax), %cl
	movb	%cl, 31(%rsp)
	.loc	22 2353 9
	jmp	.LBB188_10
.LBB188_7:
	.loc	22 0 9 is_stmt 0
	movq	16(%rsp), %rax
	.loc	22 2356 23 is_stmt 1
	movb	(%rax), %cl
	movb	%cl, 31(%rsp)
	.loc	22 2353 9
	jmp	.LBB188_10
.LBB188_9:
	.loc	22 2357 24
	leaq	.L__unnamed_11(%rip), %rdi
	leaq	.L__unnamed_12(%rip), %rdx
	movq	_ZN4core9panicking5panic17h339b30ca166fd852E@GOTPCREL(%rip), %rax
	movl	$40, %esi
	callq	*%rax
	ud2
.LBB188_10:
	.loc	22 2361 2
	movb	31(%rsp), %al
	addq	$40, %rsp
	.cfi_def_cfa_offset 8
	retq
.Ltmp904:
.Lfunc_end188:
	.size	_ZN4core4sync6atomic11atomic_load17he6d2f47d6b841ee7E, .Lfunc_end188-_ZN4core4sync6atomic11atomic_load17he6d2f47d6b841ee7E
	.cfi_endproc
	.section	.rodata._ZN4core4sync6atomic11atomic_load17he6d2f47d6b841ee7E,"a",@progbits
	.p2align	2
.LJTI188_0:
	.long	.LBB188_5-.LJTI188_0
	.long	.LBB188_9-.LJTI188_0
	.long	.LBB188_3-.LJTI188_0
	.long	.LBB188_1-.LJTI188_0
	.long	.LBB188_7-.LJTI188_0

	.section	.text._ZN4core4sync6atomic12atomic_store17hb3a205f6de7e6f58E,"ax",@progbits
	.p2align	4, 0x90
	.type	_ZN4core4sync6atomic12atomic_store17hb3a205f6de7e6f58E,@function
_ZN4core4sync6atomic12atomic_store17hb3a205f6de7e6f58E:
.Lfunc_begin189:
	.loc	22 2336 0
	.cfi_startproc
	subq	$56, %rsp
	.cfi_def_cfa_offset 64
	movb	%dl, 31(%rsp)
	movq	%rdi, 40(%rsp)
	movq	%rsi, 48(%rsp)
.Ltmp905:
	.loc	22 2340 13 prologue_end
	movzbl	31(%rsp), %eax
	movl	%eax, %ecx
	movq	%rsi, 16(%rsp)
	movq	%rdi, 8(%rsp)
	movq	%rcx, (%rsp)
	.loc	22 0 13 is_stmt 0
	leaq	.LJTI189_0(%rip), %rax
	movq	(%rsp), %rcx
	movslq	(%rax,%rcx,4), %rdx
	addq	%rax, %rdx
	jmpq	*%rdx
.LBB189_1:
	.loc	22 2344 23 is_stmt 1
	leaq	.L__unnamed_13(%rip), %rdi
	leaq	.L__unnamed_14(%rip), %rdx
	movq	_ZN4core9panicking5panic17h339b30ca166fd852E@GOTPCREL(%rip), %rax
	movl	$50, %esi
	callq	*%rax
	ud2
	.cfi_def_cfa_offset 8
	.loc	22 2339 15
	ud2
.LBB189_3:
	.cfi_def_cfa_offset 64
	.loc	22 0 15 is_stmt 0
	movq	8(%rsp), %rax
	movq	16(%rsp), %rcx
	.loc	22 2340 24 is_stmt 1
	movq	%rcx, (%rax)
	.loc	22 2339 9
	jmp	.LBB189_10
.LBB189_5:
	.loc	22 0 9 is_stmt 0
	movq	8(%rsp), %rax
	movq	16(%rsp), %rcx
	.loc	22 2341 24 is_stmt 1
	movq	%rcx, (%rax)
	.loc	22 2339 9
	jmp	.LBB189_10
.LBB189_7:
	.loc	22 0 9 is_stmt 0
	movq	16(%rsp), %rax
	movq	8(%rsp), %rcx
	.loc	22 2342 23 is_stmt 1
	xchgq	%rax, (%rcx)
	.loc	22 2339 9
	jmp	.LBB189_10
.LBB189_9:
	.loc	22 2343 24
	leaq	.L__unnamed_15(%rip), %rdi
	leaq	.L__unnamed_16(%rip), %rdx
	movq	_ZN4core9panicking5panic17h339b30ca166fd852E@GOTPCREL(%rip), %rax
	movl	$42, %esi
	callq	*%rax
	ud2
.LBB189_10:
	.loc	22 2347 2
	addq	$56, %rsp
	.cfi_def_cfa_offset 8
	retq
.Ltmp906:
.Lfunc_end189:
	.size	_ZN4core4sync6atomic12atomic_store17hb3a205f6de7e6f58E, .Lfunc_end189-_ZN4core4sync6atomic12atomic_store17hb3a205f6de7e6f58E
	.cfi_endproc
	.section	.rodata._ZN4core4sync6atomic12atomic_store17hb3a205f6de7e6f58E,"a",@progbits
	.p2align	2
.LJTI189_0:
	.long	.LBB189_5-.LJTI189_0
	.long	.LBB189_3-.LJTI189_0
	.long	.LBB189_9-.LJTI189_0
	.long	.LBB189_1-.LJTI189_0
	.long	.LBB189_7-.LJTI189_0

	.section	.text._ZN4core4sync6atomic12atomic_store17hbe1f22a50337c366E,"ax",@progbits
	.p2align	4, 0x90
	.type	_ZN4core4sync6atomic12atomic_store17hbe1f22a50337c366E,@function
_ZN4core4sync6atomic12atomic_store17hbe1f22a50337c366E:
.Lfunc_begin190:
	.loc	22 2336 0
	.cfi_startproc
	subq	$56, %rsp
	.cfi_def_cfa_offset 64
	movb	%dl, 31(%rsp)
	movq	%rdi, 40(%rsp)
	movb	%sil, 55(%rsp)
.Ltmp907:
	.loc	22 2340 13 prologue_end
	movzbl	31(%rsp), %eax
	movl	%eax, %ecx
	movq	%rdi, 16(%rsp)
	movb	%sil, 15(%rsp)
	movq	%rcx, (%rsp)
	.loc	22 0 13 is_stmt 0
	leaq	.LJTI190_0(%rip), %rax
	movq	(%rsp), %rcx
	movslq	(%rax,%rcx,4), %rdx
	addq	%rax, %rdx
	jmpq	*%rdx
.LBB190_1:
	.loc	22 2344 23 is_stmt 1
	leaq	.L__unnamed_13(%rip), %rdi
	leaq	.L__unnamed_14(%rip), %rdx
	movq	_ZN4core9panicking5panic17h339b30ca166fd852E@GOTPCREL(%rip), %rax
	movl	$50, %esi
	callq	*%rax
	ud2
	.cfi_def_cfa_offset 8
	.loc	22 2339 15
	ud2
.LBB190_3:
	.cfi_def_cfa_offset 64
	.loc	22 0 15 is_stmt 0
	movq	16(%rsp), %rax
	movb	15(%rsp), %cl
	.loc	22 2340 24 is_stmt 1
	movb	%cl, (%rax)
	.loc	22 2339 9
	jmp	.LBB190_10
.LBB190_5:
	.loc	22 0 9 is_stmt 0
	movq	16(%rsp), %rax
	movb	15(%rsp), %cl
	.loc	22 2341 24 is_stmt 1
	movb	%cl, (%rax)
	.loc	22 2339 9
	jmp	.LBB190_10
.LBB190_7:
	.loc	22 0 9 is_stmt 0
	movb	15(%rsp), %al
	movq	16(%rsp), %rcx
	.loc	22 2342 23 is_stmt 1
	xchgb	%al, (%rcx)
	.loc	22 2339 9
	jmp	.LBB190_10
.LBB190_9:
	.loc	22 2343 24
	leaq	.L__unnamed_15(%rip), %rdi
	leaq	.L__unnamed_16(%rip), %rdx
	movq	_ZN4core9panicking5panic17h339b30ca166fd852E@GOTPCREL(%rip), %rax
	movl	$42, %esi
	callq	*%rax
	ud2
.LBB190_10:
	.loc	22 2347 2
	addq	$56, %rsp
	.cfi_def_cfa_offset 8
	retq
.Ltmp908:
.Lfunc_end190:
	.size	_ZN4core4sync6atomic12atomic_store17hbe1f22a50337c366E, .Lfunc_end190-_ZN4core4sync6atomic12atomic_store17hbe1f22a50337c366E
	.cfi_endproc
	.section	.rodata._ZN4core4sync6atomic12atomic_store17hbe1f22a50337c366E,"a",@progbits
	.p2align	2
.LJTI190_0:
	.long	.LBB190_5-.LJTI190_0
	.long	.LBB190_3-.LJTI190_0
	.long	.LBB190_9-.LJTI190_0
	.long	.LBB190_1-.LJTI190_0
	.long	.LBB190_7-.LJTI190_0

	.section	.text._ZN4core4sync6atomic5fence17h02dd7eb6c4ce4938E,"ax",@progbits
	.p2align	4, 0x90
	.type	_ZN4core4sync6atomic5fence17h02dd7eb6c4ce4938E,@function
_ZN4core4sync6atomic5fence17h02dd7eb6c4ce4938E:
.Lfunc_begin191:
	.loc	22 2664 0
	.cfi_startproc
	subq	$24, %rsp
	.cfi_def_cfa_offset 32
	movb	%dil, 15(%rsp)
.Ltmp909:
	.loc	22 2668 13 prologue_end
	movzbl	15(%rsp), %eax
	movl	%eax, %ecx
	movq	%rcx, (%rsp)
	.loc	22 0 13 is_stmt 0
	leaq	.LJTI191_0(%rip), %rax
	movq	(%rsp), %rcx
	movslq	(%rax,%rcx,4), %rdx
	addq	%rax, %rdx
	jmpq	*%rdx
.LBB191_1:
	.loc	22 2672 24 is_stmt 1
	leaq	.L__unnamed_17(%rip), %rdi
	leaq	.L__unnamed_18(%rip), %rdx
	movq	_ZN4core9panicking5panic17h339b30ca166fd852E@GOTPCREL(%rip), %rax
	movl	$41, %esi
	callq	*%rax
	ud2
	.cfi_def_cfa_offset 8
	.loc	22 2667 15
	ud2
.LBB191_3:
	.cfi_def_cfa_offset 32
	.loc	22 2668 24
	#MEMBARRIER
	jmp	.LBB191_7
.LBB191_4:
	.loc	22 2669 24
	#MEMBARRIER
	jmp	.LBB191_7
.LBB191_5:
	.loc	22 2670 23
	#MEMBARRIER
	jmp	.LBB191_7
.LBB191_6:
	.loc	22 2671 23
	mfence
.LBB191_7:
	.loc	22 2675 2
	addq	$24, %rsp
	.cfi_def_cfa_offset 8
	retq
.Ltmp910:
.Lfunc_end191:
	.size	_ZN4core4sync6atomic5fence17h02dd7eb6c4ce4938E, .Lfunc_end191-_ZN4core4sync6atomic5fence17h02dd7eb6c4ce4938E
	.cfi_endproc
	.section	.rodata._ZN4core4sync6atomic5fence17h02dd7eb6c4ce4938E,"a",@progbits
	.p2align	2
.LJTI191_0:
	.long	.LBB191_1-.LJTI191_0
	.long	.LBB191_4-.LJTI191_0
	.long	.LBB191_3-.LJTI191_0
	.long	.LBB191_5-.LJTI191_0
	.long	.LBB191_6-.LJTI191_0

	.section	.text._ZN4core4sync6atomic9AtomicI643new17h89bce8bb30605a05E,"ax",@progbits
	.p2align	4, 0x90
	.type	_ZN4core4sync6atomic9AtomicI643new17h89bce8bb30605a05E,@function
_ZN4core4sync6atomic9AtomicI643new17h89bce8bb30605a05E:
.Lfunc_begin192:
	.loc	22 1374 0
	.cfi_startproc
	subq	$24, %rsp
	.cfi_def_cfa_offset 32
	movq	%rdi, 16(%rsp)
.Ltmp911:
	.loc	22 1375 30 prologue_end
	callq	_ZN4core4cell19UnsafeCell$LT$T$GT$3new17h8616e69028c1c996E
	movq	%rax, (%rsp)
	.loc	22 0 30 is_stmt 0
	movq	(%rsp), %rax
	.loc	22 1375 21
	movq	%rax, 8(%rsp)
	.loc	22 1376 18 is_stmt 1
	movq	8(%rsp), %rax
	addq	$24, %rsp
	.cfi_def_cfa_offset 8
	retq
.Ltmp912:
.Lfunc_end192:
	.size	_ZN4core4sync6atomic9AtomicI643new17h89bce8bb30605a05E, .Lfunc_end192-_ZN4core4sync6atomic9AtomicI643new17h89bce8bb30605a05E
	.cfi_endproc

	.section	.text._ZN4core4sync6atomic9AtomicI644load17heed641339e500b71E,"ax",@progbits
	.p2align	4, 0x90
	.type	_ZN4core4sync6atomic9AtomicI644load17heed641339e500b71E,@function
_ZN4core4sync6atomic9AtomicI644load17heed641339e500b71E:
.Lfunc_begin193:
	.loc	22 1484 0
	.cfi_startproc
	subq	$40, %rsp
	.cfi_def_cfa_offset 48
	movq	%rdi, 24(%rsp)
	movb	%sil, 39(%rsp)
	movb	%sil, 23(%rsp)
.Ltmp913:
	.loc	22 1486 42 prologue_end
	callq	_ZN4core4cell19UnsafeCell$LT$T$GT$3get17h264633127576b15aE
	movq	%rax, 8(%rsp)
	.loc	22 0 42 is_stmt 0
	movq	8(%rsp), %rdi
	movb	23(%rsp), %al
	.loc	22 1486 30
	movzbl	%al, %esi
	callq	_ZN4core4sync6atomic11atomic_load17hba9e518c2d4b57a6E
	movq	%rax, (%rsp)
	.loc	22 0 30
	movq	(%rsp), %rax
	.loc	22 1487 18 is_stmt 1
	addq	$40, %rsp
	.cfi_def_cfa_offset 8
	retq
.Ltmp914:
.Lfunc_end193:
	.size	_ZN4core4sync6atomic9AtomicI644load17heed641339e500b71E, .Lfunc_end193-_ZN4core4sync6atomic9AtomicI644load17heed641339e500b71E
	.cfi_endproc

	.section	.text._ZN4core4sync6atomic9AtomicI645store17h2216061f7a2b2563E,"ax",@progbits
	.p2align	4, 0x90
	.type	_ZN4core4sync6atomic9AtomicI645store17h2216061f7a2b2563E,@function
_ZN4core4sync6atomic9AtomicI645store17h2216061f7a2b2563E:
.Lfunc_begin194:
	.loc	22 1512 0
	.cfi_startproc
	subq	$56, %rsp
	.cfi_def_cfa_offset 64
	movq	%rdi, 32(%rsp)
	movq	%rsi, 40(%rsp)
	movb	%dl, 55(%rsp)
	movq	%rsi, 24(%rsp)
	movb	%dl, 23(%rsp)
.Ltmp915:
	.loc	22 1514 43 prologue_end
	callq	_ZN4core4cell19UnsafeCell$LT$T$GT$3get17h264633127576b15aE
	movq	%rax, 8(%rsp)
	.loc	22 0 43 is_stmt 0
	movq	8(%rsp), %rdi
	movq	24(%rsp), %rsi
	movb	23(%rsp), %al
	.loc	22 1514 30
	movzbl	%al, %edx
	callq	_ZN4core4sync6atomic12atomic_store17hb3a205f6de7e6f58E
	.loc	22 1515 18 is_stmt 1
	addq	$56, %rsp
	.cfi_def_cfa_offset 8
	retq
.Ltmp916:
.Lfunc_end194:
	.size	_ZN4core4sync6atomic9AtomicI645store17h2216061f7a2b2563E, .Lfunc_end194-_ZN4core4sync6atomic9AtomicI645store17h2216061f7a2b2563E
	.cfi_endproc

	.section	.text._ZN4core5alloc6layout6Layout25from_size_align_unchecked17h86c8666f7fc9b143E,"ax",@progbits
	.p2align	4, 0x90
	.type	_ZN4core5alloc6layout6Layout25from_size_align_unchecked17h86c8666f7fc9b143E,@function
_ZN4core5alloc6layout6Layout25from_size_align_unchecked17h86c8666f7fc9b143E:
.Lfunc_begin195:
	.file	23 "/rustc/e1884a8e3c3e813aada8254edfa120e85bf5ffca/library/core/src/alloc/layout.rs"
	.loc	23 92 0
	.cfi_startproc
	subq	$56, %rsp
	.cfi_def_cfa_offset 64
	movq	%rdi, 40(%rsp)
	movq	%rsi, 48(%rsp)
	movq	%rdi, 16(%rsp)
.Ltmp917:
	.loc	23 94 48 prologue_end
	movq	%rsi, %rdi
	callq	_ZN4core3num7nonzero12NonZeroUsize13new_unchecked17h1e7e696565538674E
	movq	%rax, 8(%rsp)
	.loc	23 0 48 is_stmt 0
	movq	16(%rsp), %rax
	.loc	23 94 9
	movq	%rax, 24(%rsp)
	movq	8(%rsp), %rcx
	movq	%rcx, 32(%rsp)
	.loc	23 95 6 is_stmt 1
	movq	24(%rsp), %rax
	movq	32(%rsp), %rdx
	addq	$56, %rsp
	.cfi_def_cfa_offset 8
	retq
.Ltmp918:
.Lfunc_end195:
	.size	_ZN4core5alloc6layout6Layout25from_size_align_unchecked17h86c8666f7fc9b143E, .Lfunc_end195-_ZN4core5alloc6layout6Layout25from_size_align_unchecked17h86c8666f7fc9b143E
	.cfi_endproc

	.section	.text._ZN4core5alloc6layout6Layout4size17h8e1dac9075ecb2d3E,"ax",@progbits
	.p2align	4, 0x90
	.type	_ZN4core5alloc6layout6Layout4size17h8e1dac9075ecb2d3E,@function
_ZN4core5alloc6layout6Layout4size17h8e1dac9075ecb2d3E:
.Lfunc_begin196:
	.loc	23 101 0
	.cfi_startproc
	pushq	%rax
	.cfi_def_cfa_offset 16
	movq	%rdi, (%rsp)
.Ltmp919:
	.loc	23 102 9 prologue_end
	movq	(%rdi), %rax
	.loc	23 103 6
	popq	%rcx
	.cfi_def_cfa_offset 8
	retq
.Ltmp920:
.Lfunc_end196:
	.size	_ZN4core5alloc6layout6Layout4size17h8e1dac9075ecb2d3E, .Lfunc_end196-_ZN4core5alloc6layout6Layout4size17h8e1dac9075ecb2d3E
	.cfi_endproc

	.section	.text._ZN4core5alloc6layout6Layout5align17h07ce48ca9991ec33E,"ax",@progbits
	.p2align	4, 0x90
	.type	_ZN4core5alloc6layout6Layout5align17h07ce48ca9991ec33E,@function
_ZN4core5alloc6layout6Layout5align17h07ce48ca9991ec33E:
.Lfunc_begin197:
	.loc	23 109 0
	.cfi_startproc
	subq	$24, %rsp
	.cfi_def_cfa_offset 32
	movq	%rdi, 16(%rsp)
.Ltmp921:
	.loc	23 110 9 prologue_end
	movq	8(%rdi), %rdi
	callq	_ZN4core3num7nonzero12NonZeroUsize3get17hc3979e9a3aa1cfa1E
	movq	%rax, 8(%rsp)
	.loc	23 0 9 is_stmt 0
	movq	8(%rsp), %rax
	.loc	23 111 6 is_stmt 1
	addq	$24, %rsp
	.cfi_def_cfa_offset 8
	retq
.Ltmp922:
.Lfunc_end197:
	.size	_ZN4core5alloc6layout6Layout5align17h07ce48ca9991ec33E, .Lfunc_end197-_ZN4core5alloc6layout6Layout5align17h07ce48ca9991ec33E
	.cfi_endproc

	.section	.text._ZN4core5alloc6layout6Layout8dangling17h88ff3b30a8da1941E,"ax",@progbits
	.p2align	4, 0x90
	.type	_ZN4core5alloc6layout6Layout8dangling17h88ff3b30a8da1941E,@function
_ZN4core5alloc6layout6Layout8dangling17h88ff3b30a8da1941E:
.Lfunc_begin198:
	.loc	23 182 0
	.cfi_startproc
	subq	$24, %rsp
	.cfi_def_cfa_offset 32
	movq	%rdi, 16(%rsp)
.Ltmp923:
	.loc	23 184 41 prologue_end
	callq	_ZN4core5alloc6layout6Layout5align17h07ce48ca9991ec33E
	movq	%rax, 8(%rsp)
	.loc	23 0 41 is_stmt 0
	movq	8(%rsp), %rdi
	.loc	23 184 18
	callq	_ZN4core3ptr8non_null16NonNull$LT$T$GT$13new_unchecked17hbe0716788325a631E
	movq	%rax, (%rsp)
	.loc	23 0 18
	movq	(%rsp), %rax
	.loc	23 185 6 is_stmt 1
	addq	$24, %rsp
	.cfi_def_cfa_offset 8
	retq
.Ltmp924:
.Lfunc_end198:
	.size	_ZN4core5alloc6layout6Layout8dangling17h88ff3b30a8da1941E, .Lfunc_end198-_ZN4core5alloc6layout6Layout8dangling17h88ff3b30a8da1941E
	.cfi_endproc

	.section	.text._ZN4core5alloc6layout6Layout9for_value17h5b10c14ab6090a4bE,"ax",@progbits
	.p2align	4, 0x90
	.type	_ZN4core5alloc6layout6Layout9for_value17h5b10c14ab6090a4bE,@function
_ZN4core5alloc6layout6Layout9for_value17h5b10c14ab6090a4bE:
.Lfunc_begin199:
	.loc	23 131 0
	.cfi_startproc
	subq	$88, %rsp
	.cfi_def_cfa_offset 96
	movq	%rdi, 64(%rsp)
	movq	%rdi, 40(%rsp)
.Ltmp925:
	.loc	23 132 30 prologue_end
	callq	_ZN4core3mem11size_of_val17h5f1dda957266c6b8E
	movq	%rax, 32(%rsp)
	.loc	23 0 30 is_stmt 0
	movq	40(%rsp), %rdi
	.loc	23 132 51
	callq	_ZN4core3mem12align_of_val17h1ea5f1770b8ecd06E
	movq	%rax, 24(%rsp)
	.loc	23 0 51
	movq	32(%rsp), %rax
	.loc	23 132 29
	movq	%rax, 48(%rsp)
	movq	24(%rsp), %rcx
	movq	%rcx, 56(%rsp)
	.loc	23 132 14
	movq	48(%rsp), %rdx
	movq	%rdx, 72(%rsp)
	.loc	23 132 20
	movq	56(%rsp), %rsi
	movq	%rsi, 80(%rsp)
.Ltmp926:
	.loc	23 135 18 is_stmt 1
	movq	%rdx, %rdi
	callq	_ZN4core5alloc6layout6Layout25from_size_align_unchecked17h86c8666f7fc9b143E
	movq	%rax, 16(%rsp)
	movq	%rdx, 8(%rsp)
.Ltmp927:
	.loc	23 0 18 is_stmt 0
	movq	16(%rsp), %rax
	movq	8(%rsp), %rdx
	.loc	23 136 6 is_stmt 1
	addq	$88, %rsp
	.cfi_def_cfa_offset 8
	retq
.Ltmp928:
.Lfunc_end199:
	.size	_ZN4core5alloc6layout6Layout9for_value17h5b10c14ab6090a4bE, .Lfunc_end199-_ZN4core5alloc6layout6Layout9for_value17h5b10c14ab6090a4bE
	.cfi_endproc

	.section	.text._ZN4core5alloc6layout6Layout9for_value17h61f8234bb8e1b59fE,"ax",@progbits
	.p2align	4, 0x90
	.type	_ZN4core5alloc6layout6Layout9for_value17h61f8234bb8e1b59fE,@function
_ZN4core5alloc6layout6Layout9for_value17h61f8234bb8e1b59fE:
.Lfunc_begin200:
	.loc	23 131 0
	.cfi_startproc
	subq	$88, %rsp
	.cfi_def_cfa_offset 96
	movq	%rdi, 64(%rsp)
	movq	%rdi, 40(%rsp)
.Ltmp929:
	.loc	23 132 30 prologue_end
	callq	_ZN4core3mem11size_of_val17h1be80b8c17d2e8a4E
	movq	%rax, 32(%rsp)
	.loc	23 0 30 is_stmt 0
	movq	40(%rsp), %rdi
	.loc	23 132 51
	callq	_ZN4core3mem12align_of_val17h83cc8c9b68a6a9a5E
	movq	%rax, 24(%rsp)
	.loc	23 0 51
	movq	32(%rsp), %rax
	.loc	23 132 29
	movq	%rax, 48(%rsp)
	movq	24(%rsp), %rcx
	movq	%rcx, 56(%rsp)
	.loc	23 132 14
	movq	48(%rsp), %rdx
	movq	%rdx, 72(%rsp)
	.loc	23 132 20
	movq	56(%rsp), %rsi
	movq	%rsi, 80(%rsp)
.Ltmp930:
	.loc	23 135 18 is_stmt 1
	movq	%rdx, %rdi
	callq	_ZN4core5alloc6layout6Layout25from_size_align_unchecked17h86c8666f7fc9b143E
	movq	%rax, 16(%rsp)
	movq	%rdx, 8(%rsp)
.Ltmp931:
	.loc	23 0 18 is_stmt 0
	movq	16(%rsp), %rax
	movq	8(%rsp), %rdx
	.loc	23 136 6 is_stmt 1
	addq	$88, %rsp
	.cfi_def_cfa_offset 8
	retq
.Ltmp932:
.Lfunc_end200:
	.size	_ZN4core5alloc6layout6Layout9for_value17h61f8234bb8e1b59fE, .Lfunc_end200-_ZN4core5alloc6layout6Layout9for_value17h61f8234bb8e1b59fE
	.cfi_endproc

	.section	.text._ZN4core5alloc6layout6Layout9for_value17h975c591960cf4e2eE,"ax",@progbits
	.p2align	4, 0x90
	.type	_ZN4core5alloc6layout6Layout9for_value17h975c591960cf4e2eE,@function
_ZN4core5alloc6layout6Layout9for_value17h975c591960cf4e2eE:
.Lfunc_begin201:
	.loc	23 131 0
	.cfi_startproc
	subq	$88, %rsp
	.cfi_def_cfa_offset 96
	movq	%rdi, 64(%rsp)
	movq	%rdi, 40(%rsp)
.Ltmp933:
	.loc	23 132 30 prologue_end
	callq	_ZN4core3mem11size_of_val17h1a91208d3acd5398E
	movq	%rax, 32(%rsp)
	.loc	23 0 30 is_stmt 0
	movq	40(%rsp), %rdi
	.loc	23 132 51
	callq	_ZN4core3mem12align_of_val17he7ffa719c77cd5b6E
	movq	%rax, 24(%rsp)
	.loc	23 0 51
	movq	32(%rsp), %rax
	.loc	23 132 29
	movq	%rax, 48(%rsp)
	movq	24(%rsp), %rcx
	movq	%rcx, 56(%rsp)
	.loc	23 132 14
	movq	48(%rsp), %rdx
	movq	%rdx, 72(%rsp)
	.loc	23 132 20
	movq	56(%rsp), %rsi
	movq	%rsi, 80(%rsp)
.Ltmp934:
	.loc	23 135 18 is_stmt 1
	movq	%rdx, %rdi
	callq	_ZN4core5alloc6layout6Layout25from_size_align_unchecked17h86c8666f7fc9b143E
	movq	%rax, 16(%rsp)
	movq	%rdx, 8(%rsp)
.Ltmp935:
	.loc	23 0 18 is_stmt 0
	movq	16(%rsp), %rax
	movq	8(%rsp), %rdx
	.loc	23 136 6 is_stmt 1
	addq	$88, %rsp
	.cfi_def_cfa_offset 8
	retq
.Ltmp936:
.Lfunc_end201:
	.size	_ZN4core5alloc6layout6Layout9for_value17h975c591960cf4e2eE, .Lfunc_end201-_ZN4core5alloc6layout6Layout9for_value17h975c591960cf4e2eE
	.cfi_endproc

	.section	.text._ZN4core5alloc6layout6Layout9for_value17hd0effadb5e09730bE,"ax",@progbits
	.p2align	4, 0x90
	.type	_ZN4core5alloc6layout6Layout9for_value17hd0effadb5e09730bE,@function
