	.text
	.file	"2igvmjrw8a7igl6v"
	.section	".text._ZN101_$LT$std..panic..AssertUnwindSafe$LT$F$GT$$u20$as$u20$core..ops..function..FnOnce$LT$$LP$$RP$$GT$$GT$9call_once17h12b5151a34a0ae7bE","ax",@progbits
	.p2align	4, 0x90
	.type	_ZN101_$LT$std..panic..AssertUnwindSafe$LT$F$GT$$u20$as$u20$core..ops..function..FnOnce$LT$$LP$$RP$$GT$$GT$9call_once17h12b5151a34a0ae7bE,@function
_ZN101_$LT$std..panic..AssertUnwindSafe$LT$F$GT$$u20$as$u20$core..ops..function..FnOnce$LT$$LP$$RP$$GT$$GT$9call_once17h12b5151a34a0ae7bE:
.Lfunc_begin0:
	.file	1 "/rustc/e1884a8e3c3e813aada8254edfa120e85bf5ffca/library/std/src/panic.rs"
	.loc	1 321 0
	.cfi_startproc
	subq	$24, %rsp
	.cfi_def_cfa_offset 32
	movq	%rdi, 16(%rsp)
.Ltmp0:
	.loc	1 322 9 prologue_end
	callq	_ZN3std6thread7Builder15spawn_unchecked28_$u7b$$u7b$closure$u7d$$u7d$28_$u7b$$u7b$closure$u7d$$u7d$17ha88d38011fd81828E
	.loc	1 323 6
	addq	$24, %rsp
	.cfi_def_cfa_offset 8
	retq
.Ltmp1:
.Lfunc_end0:
	.size	_ZN101_$LT$std..panic..AssertUnwindSafe$LT$F$GT$$u20$as$u20$core..ops..function..FnOnce$LT$$LP$$RP$$GT$$GT$9call_once17h12b5151a34a0ae7bE, .Lfunc_end0-_ZN101_$LT$std..panic..AssertUnwindSafe$LT$F$GT$$u20$as$u20$core..ops..function..FnOnce$LT$$LP$$RP$$GT$$GT$9call_once17h12b5151a34a0ae7bE
	.cfi_endproc

	.section	".text._ZN119_$LT$core..ptr..non_null..NonNull$LT$T$GT$$u20$as$u20$core..convert..From$LT$core..ptr..unique..Unique$LT$T$GT$$GT$$GT$4from17h0fd2c43ee22dbf95E","ax",@progbits
	.p2align	4, 0x90
	.type	_ZN119_$LT$core..ptr..non_null..NonNull$LT$T$GT$$u20$as$u20$core..convert..From$LT$core..ptr..unique..Unique$LT$T$GT$$GT$$GT$4from17h0fd2c43ee22dbf95E,@function
_ZN119_$LT$core..ptr..non_null..NonNull$LT$T$GT$$u20$as$u20$core..convert..From$LT$core..ptr..unique..Unique$LT$T$GT$$GT$$GT$4from17h0fd2c43ee22dbf95E:
.Lfunc_begin1:
	.file	2 "/rustc/e1884a8e3c3e813aada8254edfa120e85bf5ffca/library/core/src/ptr/non_null.rs"
	.loc	2 562 0
	.cfi_startproc
	subq	$24, %rsp
	.cfi_def_cfa_offset 32
	movq	%rdi, 16(%rsp)
.Ltmp2:
	.loc	2 565 41 prologue_end
	callq	_ZN4core3ptr6unique15Unique$LT$T$GT$6as_ptr17h42e6fe9aa0c35170E
	movq	%rax, 8(%rsp)
	.loc	2 0 41 is_stmt 0
	movq	8(%rsp), %rdi
	.loc	2 565 18
	callq	_ZN4core3ptr8non_null16NonNull$LT$T$GT$13new_unchecked17hc8b5f2ba1e0b788dE
	movq	%rax, (%rsp)
	.loc	2 0 18
	movq	(%rsp), %rax
	.loc	2 566 6 is_stmt 1
	addq	$24, %rsp
	.cfi_def_cfa_offset 8
	retq
.Ltmp3:
.Lfunc_end1:
	.size	_ZN119_$LT$core..ptr..non_null..NonNull$LT$T$GT$$u20$as$u20$core..convert..From$LT$core..ptr..unique..Unique$LT$T$GT$$GT$$GT$4from17h0fd2c43ee22dbf95E, .Lfunc_end1-_ZN119_$LT$core..ptr..non_null..NonNull$LT$T$GT$$u20$as$u20$core..convert..From$LT$core..ptr..unique..Unique$LT$T$GT$$GT$$GT$4from17h0fd2c43ee22dbf95E
	.cfi_endproc

	.section	.text._ZN3std10sys_common9backtrace28__rust_begin_short_backtrace17h3091c47723b92e71E,"ax",@progbits
	.p2align	4, 0x90
	.type	_ZN3std10sys_common9backtrace28__rust_begin_short_backtrace17h3091c47723b92e71E,@function
_ZN3std10sys_common9backtrace28__rust_begin_short_backtrace17h3091c47723b92e71E:
.Lfunc_begin2:
	.file	3 "/rustc/e1884a8e3c3e813aada8254edfa120e85bf5ffca/library/std/src/sys_common/backtrace.rs"
	.loc	3 121 0
	.cfi_startproc
	.cfi_personality 155, DW.ref.rust_eh_personality
	.cfi_lsda 27, .Lexception0
	subq	$56, %rsp
	.cfi_def_cfa_offset 64
	movq	%rdi, 32(%rsp)
.Ltmp7:
	.loc	3 125 18 prologue_end
	callq	_ZN8fetchadd4main28_$u7b$$u7b$closure$u7d$$u7d$17h593d7d88d79aff88E
.Ltmp4:
.Ltmp8:
	.loc	3 128 5
	callq	_ZN4core4hint9black_box17hc987a70a17193fd3E
.Ltmp5:
	jmp	.LBB2_2
.Ltmp9:
.LBB2_2:
	.loc	3 131 2
	addq	$56, %rsp
	.cfi_def_cfa_offset 8
	retq
.LBB2_3:
	.cfi_def_cfa_offset 64
	.loc	3 131 1 is_stmt 0
	jmp	.LBB2_4
.LBB2_4:
	.loc	3 121 1 is_stmt 1
	movq	40(%rsp), %rdi
	callq	_Unwind_Resume@PLT
	ud2
.Ltmp10:
.LBB2_5:
.Ltmp6:
	.loc	3 0 1 is_stmt 0
	movq	%rax, 40(%rsp)
	movl	%edx, 48(%rsp)
	jmp	.LBB2_3
.Lfunc_end2:
	.size	_ZN3std10sys_common9backtrace28__rust_begin_short_backtrace17h3091c47723b92e71E, .Lfunc_end2-_ZN3std10sys_common9backtrace28__rust_begin_short_backtrace17h3091c47723b92e71E
	.cfi_endproc
	.section	.gcc_except_table,"a",@progbits
	.p2align	2
GCC_except_table2:
.Lexception0:
	.byte	255
	.byte	255
	.byte	1
	.uleb128 .Lcst_end0-.Lcst_begin0
.Lcst_begin0:
	.uleb128 .Lfunc_begin2-.Lfunc_begin2
	.uleb128 .Ltmp4-.Lfunc_begin2
	.byte	0
	.byte	0
	.uleb128 .Ltmp4-.Lfunc_begin2
	.uleb128 .Ltmp5-.Ltmp4
	.uleb128 .Ltmp6-.Lfunc_begin2
	.byte	0
	.uleb128 .Ltmp5-.Lfunc_begin2
	.uleb128 .Lfunc_end2-.Ltmp5
	.byte	0
	.byte	0
.Lcst_end0:
	.p2align	2

	.section	.text._ZN3std10sys_common9backtrace28__rust_begin_short_backtrace17hc4972a2b4e3bc3d9E,"ax",@progbits
	.p2align	4, 0x90
	.type	_ZN3std10sys_common9backtrace28__rust_begin_short_backtrace17hc4972a2b4e3bc3d9E,@function
_ZN3std10sys_common9backtrace28__rust_begin_short_backtrace17hc4972a2b4e3bc3d9E:
.Lfunc_begin3:
	.loc	3 121 0 is_stmt 1
	.cfi_startproc
	.cfi_personality 155, DW.ref.rust_eh_personality
	.cfi_lsda 27, .Lexception1
	subq	$56, %rsp
	.cfi_def_cfa_offset 64
	movq	%rdi, 32(%rsp)
.Ltmp14:
	.loc	3 125 18 prologue_end
	callq	_ZN4core3ops8function6FnOnce9call_once17h90dd49f12103d997E
.Ltmp11:
.Ltmp15:
	.loc	3 128 5
	callq	_ZN4core4hint9black_box17hc987a70a17193fd3E
.Ltmp12:
	jmp	.LBB3_2
.Ltmp16:
.LBB3_2:
	.loc	3 131 2
	addq	$56, %rsp
	.cfi_def_cfa_offset 8
	retq
.LBB3_3:
	.cfi_def_cfa_offset 64
	.loc	3 131 1 is_stmt 0
	jmp	.LBB3_4
.LBB3_4:
	.loc	3 121 1 is_stmt 1
	movq	40(%rsp), %rdi
	callq	_Unwind_Resume@PLT
	ud2
.Ltmp17:
.LBB3_5:
.Ltmp13:
	.loc	3 0 1 is_stmt 0
	movq	%rax, 40(%rsp)
	movl	%edx, 48(%rsp)
	jmp	.LBB3_3
.Lfunc_end3:
	.size	_ZN3std10sys_common9backtrace28__rust_begin_short_backtrace17hc4972a2b4e3bc3d9E, .Lfunc_end3-_ZN3std10sys_common9backtrace28__rust_begin_short_backtrace17hc4972a2b4e3bc3d9E
	.cfi_endproc
	.section	.gcc_except_table,"a",@progbits
	.p2align	2
GCC_except_table3:
.Lexception1:
	.byte	255
	.byte	255
	.byte	1
	.uleb128 .Lcst_end1-.Lcst_begin1
.Lcst_begin1:
	.uleb128 .Lfunc_begin3-.Lfunc_begin3
	.uleb128 .Ltmp11-.Lfunc_begin3
	.byte	0
	.byte	0
	.uleb128 .Ltmp11-.Lfunc_begin3
	.uleb128 .Ltmp12-.Ltmp11
	.uleb128 .Ltmp13-.Lfunc_begin3
	.byte	0
	.uleb128 .Ltmp12-.Lfunc_begin3
	.uleb128 .Lfunc_end3-.Ltmp12
	.byte	0
	.byte	0
.Lcst_end1:
	.p2align	2

	.section	.text._ZN3std2rt10lang_start17h32e3f49feaf70fffE,"ax",@progbits
	.hidden	_ZN3std2rt10lang_start17h32e3f49feaf70fffE
	.globl	_ZN3std2rt10lang_start17h32e3f49feaf70fffE
	.p2align	4, 0x90
	.type	_ZN3std2rt10lang_start17h32e3f49feaf70fffE,@function
_ZN3std2rt10lang_start17h32e3f49feaf70fffE:
.Lfunc_begin4:
	.file	4 "/rustc/e1884a8e3c3e813aada8254edfa120e85bf5ffca/library/std/src/rt.rs"
	.loc	4 60 0 is_stmt 1
	.cfi_startproc
	subq	$56, %rsp
	.cfi_def_cfa_offset 64
	leaq	.L__unnamed_1(%rip), %rax
	movq	%rdi, 32(%rsp)
	movq	%rsi, 40(%rsp)
	movq	%rdx, 48(%rsp)
.Ltmp18:
	.loc	4 66 10 prologue_end
	movq	%rdi, 24(%rsp)
	.loc	4 66 9 is_stmt 0
	leaq	24(%rsp), %rcx
	.loc	4 65 5 is_stmt 1
	movq	%rcx, %rdi
	movq	%rsi, 16(%rsp)
	movq	%rax, %rsi
	movq	16(%rsp), %rax
	movq	%rdx, 8(%rsp)
	movq	%rax, %rdx
	movq	8(%rsp), %rcx
	callq	*_ZN3std2rt19lang_start_internal17ha53ab63f88fee728E@GOTPCREL(%rip)
	movq	%rax, (%rsp)
	.loc	4 0 5 is_stmt 0
	movq	(%rsp), %rax
	.loc	4 70 2 is_stmt 1
	addq	$56, %rsp
	.cfi_def_cfa_offset 8
	retq
.Ltmp19:
.Lfunc_end4:
	.size	_ZN3std2rt10lang_start17h32e3f49feaf70fffE, .Lfunc_end4-_ZN3std2rt10lang_start17h32e3f49feaf70fffE
	.cfi_endproc

	.section	".text._ZN3std2rt10lang_start28_$u7b$$u7b$closure$u7d$$u7d$17h1ae909cf83e6df6aE","ax",@progbits
	.p2align	4, 0x90
	.type	_ZN3std2rt10lang_start28_$u7b$$u7b$closure$u7d$$u7d$17h1ae909cf83e6df6aE,@function
_ZN3std2rt10lang_start28_$u7b$$u7b$closure$u7d$$u7d$17h1ae909cf83e6df6aE:
.Lfunc_begin5:
	.loc	4 66 0
	.cfi_startproc
	subq	$24, %rsp
	.cfi_def_cfa_offset 32
	movq	%rdi, 16(%rsp)
.Ltmp20:
	.loc	4 66 77 prologue_end
	movq	(%rdi), %rdi
	.loc	4 66 18 is_stmt 0
	callq	_ZN3std10sys_common9backtrace28__rust_begin_short_backtrace17hc4972a2b4e3bc3d9E
	callq	_ZN54_$LT$$LP$$RP$$u20$as$u20$std..process..Termination$GT$6report17hd8e9fd97c6f64569E
	movl	%eax, 12(%rsp)
	.loc	4 0 18
	movl	12(%rsp), %eax
	.loc	4 66 91
	addq	$24, %rsp
	.cfi_def_cfa_offset 8
	retq
.Ltmp21:
.Lfunc_end5:
	.size	_ZN3std2rt10lang_start28_$u7b$$u7b$closure$u7d$$u7d$17h1ae909cf83e6df6aE, .Lfunc_end5-_ZN3std2rt10lang_start28_$u7b$$u7b$closure$u7d$$u7d$17h1ae909cf83e6df6aE
	.cfi_endproc

	.section	.text._ZN3std3sys4unix7process14process_common8ExitCode6as_i3217h77bdfabc0463de43E,"ax",@progbits
	.p2align	4, 0x90
	.type	_ZN3std3sys4unix7process14process_common8ExitCode6as_i3217h77bdfabc0463de43E,@function
_ZN3std3sys4unix7process14process_common8ExitCode6as_i3217h77bdfabc0463de43E:
.Lfunc_begin6:
	.file	5 "/rustc/e1884a8e3c3e813aada8254edfa120e85bf5ffca/library/std/src/sys/unix/process/process_common.rs"
	.loc	5 429 0 is_stmt 1
	.cfi_startproc
	pushq	%rax
	.cfi_def_cfa_offset 16
	movq	%rdi, (%rsp)
.Ltmp22:
	.loc	5 430 9 prologue_end
	movzbl	(%rdi), %eax
	.loc	5 431 6
	popq	%rcx
	.cfi_def_cfa_offset 8
	retq
.Ltmp23:
.Lfunc_end6:
	.size	_ZN3std3sys4unix7process14process_common8ExitCode6as_i3217h77bdfabc0463de43E, .Lfunc_end6-_ZN3std3sys4unix7process14process_common8ExitCode6as_i3217h77bdfabc0463de43E
	.cfi_endproc

	.section	.text._ZN3std5panic12catch_unwind17hcd02743c25ecef63E,"ax",@progbits
	.p2align	4, 0x90
	.type	_ZN3std5panic12catch_unwind17hcd02743c25ecef63E,@function
_ZN3std5panic12catch_unwind17hcd02743c25ecef63E:
.Lfunc_begin7:
	.loc	1 395 0
	.cfi_startproc
	subq	$24, %rsp
	.cfi_def_cfa_offset 32
	movq	%rdi, 16(%rsp)
.Ltmp24:
	.loc	1 396 14 prologue_end
	callq	_ZN3std9panicking3try17h163c5e8e803f684cE
	movq	%rax, 8(%rsp)
	movq	%rdx, (%rsp)
	.loc	1 0 14 is_stmt 0
	movq	8(%rsp), %rax
	movq	(%rsp), %rdx
	.loc	1 397 2 is_stmt 1
	addq	$24, %rsp
	.cfi_def_cfa_offset 8
	retq
.Ltmp25:
.Lfunc_end7:
	.size	_ZN3std5panic12catch_unwind17hcd02743c25ecef63E, .Lfunc_end7-_ZN3std5panic12catch_unwind17hcd02743c25ecef63E
	.cfi_endproc

	.section	".text._ZN3std6thread18JoinInner$LT$T$GT$4join17hdf911f6d6b98f5daE","ax",@progbits
	.p2align	4, 0x90
	.type	_ZN3std6thread18JoinInner$LT$T$GT$4join17hdf911f6d6b98f5daE,@function
_ZN3std6thread18JoinInner$LT$T$GT$4join17hdf911f6d6b98f5daE:
.Lfunc_begin8:
	.file	6 "/rustc/e1884a8e3c3e813aada8254edfa120e85bf5ffca/library/std/src/thread/mod.rs"
	.loc	6 1243 0
	.cfi_startproc
	subq	$104, %rsp
	.cfi_def_cfa_offset 112
	movq	%rdi, 96(%rsp)
.Ltmp26:
	.loc	6 1244 9 prologue_end
	movq	%rdi, %rax
	movq	%rdi, 64(%rsp)
	movq	%rax, %rdi
	callq	_ZN4core6option15Option$LT$T$GT$4take17h00589a3f6d5fc3b9E
	movq	%rax, 56(%rsp)
	movq	%rdx, 48(%rsp)
	.loc	6 0 9 is_stmt 0
	leaq	.L__unnamed_5(%rip), %rax
	movq	56(%rsp), %rdi
	movq	48(%rsp), %rsi
	.loc	6 1244 9
	movq	%rax, %rdx
	callq	_ZN4core6option15Option$LT$T$GT$6unwrap17ha8b94565fcacb7ecE
	movq	%rax, 40(%rsp)
	.loc	6 0 9
	movq	40(%rsp), %rdi
	.loc	6 1244 9
	callq	*_ZN3std3sys4unix6thread6Thread4join17h4a14516b87ef8a32E@GOTPCREL(%rip)
	.loc	6 0 9
	movq	64(%rsp), %rax
	.loc	6 1245 20 is_stmt 1
	addq	$24, %rax
	movq	%rax, %rdi
	callq	_ZN69_$LT$alloc..sync..Arc$LT$T$GT$$u20$as$u20$core..ops..deref..Deref$GT$5deref17hbd180dcaabcc3289E
	movq	%rax, 32(%rsp)
	.loc	6 0 20 is_stmt 0
	movq	32(%rsp), %rdi
	.loc	6 1245 20
	callq	_ZN4core4cell19UnsafeCell$LT$T$GT$3get17h2cfbece41a06e5b6E
	movq	%rax, 24(%rsp)
	.loc	6 1245 18
	leaq	72(%rsp), %rdi
	movq	24(%rsp), %rsi
	callq	_ZN4core6option15Option$LT$T$GT$4take17h4da96a0700aa2811E
	.loc	6 0 18
	leaq	.L__unnamed_6(%rip), %rax
	.loc	6 1245 18
	leaq	72(%rsp), %rdi
	movq	%rax, %rsi
	callq	_ZN4core6option15Option$LT$T$GT$6unwrap17h630560bad7128369E
	movq	%rax, 16(%rsp)
	movq	%rdx, 8(%rsp)
	.loc	6 0 18
	movq	16(%rsp), %rax
	movq	8(%rsp), %rdx
	.loc	6 1246 6 is_stmt 1
	addq	$104, %rsp
	.cfi_def_cfa_offset 8
	retq
.Ltmp27:
.Lfunc_end8:
	.size	_ZN3std6thread18JoinInner$LT$T$GT$4join17hdf911f6d6b98f5daE, .Lfunc_end8-_ZN3std6thread18JoinInner$LT$T$GT$4join17hdf911f6d6b98f5daE
	.cfi_endproc

	.section	".text._ZN3std6thread19JoinHandle$LT$T$GT$4join17hb14670609a6cb060E","ax",@progbits
	.p2align	4, 0x90
	.type	_ZN3std6thread19JoinHandle$LT$T$GT$4join17hb14670609a6cb060E,@function
_ZN3std6thread19JoinHandle$LT$T$GT$4join17hb14670609a6cb060E:
.Lfunc_begin9:
	.loc	6 1372 0
	.cfi_startproc
	.cfi_personality 155, DW.ref.rust_eh_personality
	.cfi_lsda 27, .Lexception2
	subq	$40, %rsp
	.cfi_def_cfa_offset 48
.Ltmp28:
	movq	%rdi, 16(%rsp)
.Ltmp31:
	.loc	6 1373 9 prologue_end
	callq	_ZN3std6thread18JoinInner$LT$T$GT$4join17hdf911f6d6b98f5daE
.Ltmp29:
	movq	%rdx, 8(%rsp)
	movq	%rax, (%rsp)
	jmp	.LBB9_1
.Ltmp32:
.LBB9_1:
	.loc	6 0 9 is_stmt 0
	movq	16(%rsp), %rdi
	.loc	6 1374 5 is_stmt 1
	callq	_ZN4core3ptr13drop_in_place17h2118b23765086d54E
.Ltmp33:
	.loc	6 0 5 is_stmt 0
	movq	(%rsp), %rax
	movq	8(%rsp), %rdx
	.loc	6 1374 6
	addq	$40, %rsp
	.cfi_def_cfa_offset 8
	retq
.Ltmp34:
.LBB9_3:
	.cfi_def_cfa_offset 48
	.loc	6 0 6
	movq	16(%rsp), %rdi
	.loc	6 1374 5
	callq	_ZN4core3ptr13drop_in_place17h2118b23765086d54E
.Ltmp35:
	.loc	6 1372 5 is_stmt 1
	movq	24(%rsp), %rdi
	callq	_Unwind_Resume@PLT
	ud2
.Ltmp36:
.LBB9_5:
.Ltmp30:
	.loc	6 0 5 is_stmt 0
	movq	%rax, 24(%rsp)
	movl	%edx, 32(%rsp)
	jmp	.LBB9_3
.Lfunc_end9:
	.size	_ZN3std6thread19JoinHandle$LT$T$GT$4join17hb14670609a6cb060E, .Lfunc_end9-_ZN3std6thread19JoinHandle$LT$T$GT$4join17hb14670609a6cb060E
	.cfi_endproc
	.section	.gcc_except_table,"a",@progbits
	.p2align	2
GCC_except_table9:
.Lexception2:
	.byte	255
	.byte	255
	.byte	1
	.uleb128 .Lcst_end2-.Lcst_begin2
.Lcst_begin2:
	.uleb128 .Ltmp28-.Lfunc_begin9
	.uleb128 .Ltmp29-.Ltmp28
	.uleb128 .Ltmp30-.Lfunc_begin9
	.byte	0
	.uleb128 .Ltmp29-.Lfunc_begin9
	.uleb128 .Lfunc_end9-.Ltmp29
	.byte	0
	.byte	0
.Lcst_end2:
	.p2align	2

	.section	.text._ZN3std6thread5spawn17h07fefe5a0cade011E,"ax",@progbits
	.p2align	4, 0x90
	.type	_ZN3std6thread5spawn17h07fefe5a0cade011E,@function
_ZN3std6thread5spawn17h07fefe5a0cade011E:
.Lfunc_begin10:
	.loc	6 614 0 is_stmt 1
	.cfi_startproc
	.cfi_personality 155, DW.ref.rust_eh_personality
	.cfi_lsda 27, .Lexception3
	subq	$136, %rsp
	.cfi_def_cfa_offset 144
	movq	%rdi, %rax
	movq	%rsi, 24(%rsp)
.Ltmp44:
	.loc	6 620 5 prologue_end
	movb	$0, 119(%rsp)
	movb	$1, 119(%rsp)
.Ltmp37:
	movq	_ZN3std6thread7Builder3new17h6194af5542382cb4E@GOTPCREL(%rip), %rcx
	leaq	72(%rsp), %rdx
	movq	%rdi, 16(%rsp)
	movq	%rdx, %rdi
	movq	%rax, 8(%rsp)
	callq	*%rcx
.Ltmp38:
	jmp	.LBB10_1
.LBB10_1:
	.loc	6 620 26 is_stmt 0
	movb	$0, 119(%rsp)
	movq	24(%rsp), %rdx
.Ltmp39:
	leaq	32(%rsp), %rdi
	leaq	72(%rsp), %rsi
	.loc	6 620 5
	callq	_ZN3std6thread7Builder5spawn17h977707fa640cb192E
.Ltmp40:
	jmp	.LBB10_2
.LBB10_2:
.Ltmp41:
	leaq	.L__unnamed_7(%rip), %rdx
	leaq	.L__unnamed_8(%rip), %r8
	leaq	32(%rsp), %rsi
	movl	$22, %ecx
	movq	16(%rsp), %rdi
	callq	_ZN4core6result19Result$LT$T$C$E$GT$6expect17h7decb3972abd9e0cE
.Ltmp42:
	jmp	.LBB10_3
.LBB10_3:
	.loc	6 0 5
	movq	8(%rsp), %rax
	.loc	6 621 2 is_stmt 1
	addq	$136, %rsp
	.cfi_def_cfa_offset 8
	retq
.LBB10_4:
	.cfi_def_cfa_offset 144
	.loc	6 614 1
	movq	120(%rsp), %rdi
	callq	_Unwind_Resume@PLT
	ud2
.LBB10_5:
	.loc	6 621 1
	leaq	24(%rsp), %rdi
	callq	_ZN4core3ptr13drop_in_place17h509c0b136f844b88E
	jmp	.LBB10_4
.LBB10_6:
	testb	$1, 119(%rsp)
	jne	.LBB10_5
	jmp	.LBB10_4
.Ltmp45:
.LBB10_7:
.Ltmp43:
	.loc	6 0 1 is_stmt 0
	movq	%rax, 120(%rsp)
	movl	%edx, 128(%rsp)
	jmp	.LBB10_6
.Lfunc_end10:
	.size	_ZN3std6thread5spawn17h07fefe5a0cade011E, .Lfunc_end10-_ZN3std6thread5spawn17h07fefe5a0cade011E
	.cfi_endproc
	.section	.gcc_except_table,"a",@progbits
	.p2align	2
GCC_except_table10:
.Lexception3:
	.byte	255
	.byte	255
	.byte	1
	.uleb128 .Lcst_end3-.Lcst_begin3
.Lcst_begin3:
	.uleb128 .Ltmp37-.Lfunc_begin10
	.uleb128 .Ltmp42-.Ltmp37
	.uleb128 .Ltmp43-.Lfunc_begin10
	.byte	0
	.uleb128 .Ltmp42-.Lfunc_begin10
	.uleb128 .Lfunc_end10-.Ltmp42
	.byte	0
	.byte	0
.Lcst_end3:
	.p2align	2

	.section	.text._ZN3std6thread7Builder15spawn_unchecked17h8fb743e8e3b13192E,"ax",@progbits
	.p2align	4, 0x90
	.type	_ZN3std6thread7Builder15spawn_unchecked17h8fb743e8e3b13192E,@function
_ZN3std6thread7Builder15spawn_unchecked17h8fb743e8e3b13192E:
.Lfunc_begin11:
	.loc	6 443 0 is_stmt 1
	.cfi_startproc
	.cfi_personality 155, DW.ref.rust_eh_personality
	.cfi_lsda 27, .Lexception4
	subq	$712, %rsp
	.cfi_def_cfa_offset 720
	movq	%rdi, %rax
	movq	%rdx, 104(%rsp)
.Ltmp83:
	.loc	6 449 23 prologue_end
	movb	$0, 627(%rsp)
	movb	$0, 630(%rsp)
	movb	$0, 631(%rsp)
	movb	$0, 626(%rsp)
	movb	$0, 628(%rsp)
	movb	$0, 629(%rsp)
	movb	$1, 631(%rsp)
	movb	$1, 630(%rsp)
	movq	16(%rsi), %rcx
	movq	%rcx, 128(%rsp)
	movups	(%rsi), %xmm0
	movaps	%xmm0, 112(%rsp)
	.loc	6 449 29 is_stmt 0
	movq	24(%rsi), %rcx
	movq	32(%rsi), %rdx
	movq	%rcx, 632(%rsp)
	movq	%rdx, 640(%rsp)
.Ltmp46:
	movq	%rdi, 96(%rsp)
.Ltmp84:
	.loc	6 451 26 is_stmt 1
	movq	%rcx, %rdi
	movq	%rdx, %rsi
.Ltmp85:
	.loc	6 0 26 is_stmt 0
	movq	%rax, 88(%rsp)
	.loc	6 451 26
	callq	_ZN4core6option15Option$LT$T$GT$14unwrap_or_else17he5c7f59bfe67621aE
.Ltmp47:
	movq	%rax, 80(%rsp)
	jmp	.LBB11_1
.Ltmp86:
.LBB11_1:
	.loc	6 0 26
	movq	80(%rsp), %rax
	.loc	6 451 26
	movq	%rax, 664(%rsp)
.Ltmp87:
	.loc	6 453 37 is_stmt 1
	movb	$0, 630(%rsp)
	movq	128(%rsp), %rcx
	movq	%rcx, 160(%rsp)
	movaps	112(%rsp), %xmm0
	movaps	%xmm0, 144(%rsp)
.Ltmp48:
	.loc	6 453 25 is_stmt 0
	movq	_ZN3std6thread6Thread3new17h789830631d5c1098E@GOTPCREL(%rip), %rcx
	leaq	144(%rsp), %rdi
	callq	*%rcx
.Ltmp49:
	movq	%rax, 72(%rsp)
	jmp	.LBB11_2
.Ltmp88:
.LBB11_2:
	.loc	6 0 25
	movq	72(%rsp), %rax
	.loc	6 453 25
	movq	%rax, 136(%rsp)
.Ltmp51:
	leaq	136(%rsp), %rdi
.Ltmp89:
	.loc	6 454 28 is_stmt 1
	callq	_ZN58_$LT$std..thread..Thread$u20$as$u20$core..clone..Clone$GT$5clone17hda2699f47f0855b8E
.Ltmp52:
	movq	%rax, 64(%rsp)
	jmp	.LBB11_3
.Ltmp90:
.LBB11_3:
	.loc	6 0 28 is_stmt 0
	movq	64(%rsp), %rax
	.loc	6 454 28
	movq	%rax, 176(%rsp)
	.loc	6 454 44
	movb	$1, 629(%rsp)
.Ltmp91:
	.loc	6 456 86 is_stmt 1
	movq	$0, 216(%rsp)
.Ltmp54:
	leaq	192(%rsp), %rdi
	leaq	216(%rsp), %rsi
	.loc	6 456 70 is_stmt 0
	callq	_ZN4core4cell19UnsafeCell$LT$T$GT$3new17h192e2daf68620f8cE
.Ltmp55:
	jmp	.LBB11_4
.Ltmp92:
.LBB11_4:
.Ltmp56:
	.loc	6 0 70
	leaq	192(%rsp), %rdi
	.loc	6 456 61
	callq	_ZN5alloc4sync12Arc$LT$T$GT$3new17hc0c99a8bd5503f80E
.Ltmp57:
	movq	%rax, 56(%rsp)
	jmp	.LBB11_5
.Ltmp93:
.LBB11_5:
	.loc	6 0 61
	movq	56(%rsp), %rax
	.loc	6 456 61
	movq	%rax, 184(%rsp)
.Ltmp59:
	leaq	184(%rsp), %rdi
.Ltmp94:
	.loc	6 457 28 is_stmt 1
	callq	_ZN64_$LT$alloc..sync..Arc$LT$T$GT$$u20$as$u20$core..clone..Clone$GT$5clone17h330e314cbe533db0E
.Ltmp60:
	movq	%rax, 48(%rsp)
	jmp	.LBB11_6
.Ltmp95:
.LBB11_6:
	.loc	6 0 28 is_stmt 0
	movq	48(%rsp), %rax
	.loc	6 457 28
	movq	%rax, 240(%rsp)
	.loc	6 457 44
	movb	$1, 628(%rsp)
.Ltmp62:
.Ltmp96:
	.loc	6 459 32 is_stmt 1
	movq	_ZN3std2io5stdio8clone_io17hd8180b7fe8d78870E@GOTPCREL(%rip), %rcx
	leaq	280(%rsp), %rdi
	callq	*%rcx
.Ltmp63:
	jmp	.LBB11_7
.Ltmp97:
.LBB11_7:
	.loc	6 459 14 is_stmt 0
	movb	$1, 627(%rsp)
	movq	280(%rsp), %rax
	movq	288(%rsp), %rcx
	movq	%rax, 248(%rsp)
	movq	%rcx, 256(%rsp)
	.loc	6 459 22
	movb	$1, 626(%rsp)
	movq	296(%rsp), %rax
	movq	304(%rsp), %rcx
	movq	%rax, 264(%rsp)
	movq	%rcx, 272(%rsp)
.Ltmp98:
	.loc	6 461 20 is_stmt 1
	movb	$0, 629(%rsp)
	movb	$0, 627(%rsp)
	movb	$0, 626(%rsp)
	movb	$0, 631(%rsp)
	movb	$0, 628(%rsp)
	movq	176(%rsp), %rax
	movq	%rax, 312(%rsp)
	movq	248(%rsp), %rax
	movq	256(%rsp), %rcx
	movq	%rax, 320(%rsp)
	movq	%rcx, 328(%rsp)
	movq	264(%rsp), %rax
	movq	272(%rsp), %rcx
	movq	%rax, 336(%rsp)
	movq	%rcx, 344(%rsp)
	movq	104(%rsp), %rax
	movq	%rax, 352(%rsp)
	movq	240(%rsp), %rax
	movq	%rax, 360(%rsp)
.Ltmp99:
	.loc	6 501 34
	movq	360(%rsp), %rax
	movq	%rax, 544(%rsp)
	movups	312(%rsp), %xmm0
	movups	328(%rsp), %xmm1
	movups	344(%rsp), %xmm2
	movaps	%xmm2, 528(%rsp)
	movaps	%xmm1, 512(%rsp)
	movaps	%xmm0, 496(%rsp)
.Ltmp65:
	movl	$56, %edi
	movl	$8, %esi
.Ltmp100:
	.file	7 "/rustc/e1884a8e3c3e813aada8254edfa120e85bf5ffca/library/alloc/src/boxed.rs"
	.loc	7 178 9
	callq	_ZN5alloc5alloc15exchange_malloc17h66d0ade9c8d91a7fE
.Ltmp66:
	movq	%rax, 40(%rsp)
	jmp	.LBB11_8
.Ltmp101:
.LBB11_8:
	.loc	7 0 9 is_stmt 0
	movq	40(%rsp), %rax
	.loc	7 178 13
	leaq	496(%rsp), %rcx
	movq	40(%rsp), %rdi
	movq	%rcx, %rsi
	movl	$56, %edx
	movq	%rax, 32(%rsp)
	callq	memcpy@PLT
.Ltmp102:
	.loc	7 0 13
	leaq	.L__unnamed_2(%rip), %rax
	movq	32(%rsp), %rcx
	.loc	6 500 21 is_stmt 1
	movq	%rcx, 672(%rsp)
	movq	%rax, 680(%rsp)
	movq	672(%rsp), %rdx
	movq	680(%rsp), %rcx
	movq	%rdx, 24(%rsp)
	movq	%rcx, 16(%rsp)
.Ltmp103:
.Ltmp67:
	.loc	6 498 22
	movq	_ZN3std3sys4unix6thread6Thread3new17hfa48bd20a6aa58a1E@GOTPCREL(%rip), %rax
	leaq	472(%rsp), %rdi
	movq	80(%rsp), %rsi
	movq	24(%rsp), %rdx
	movq	16(%rsp), %rcx
	callq	*%rax
.Ltmp68:
	jmp	.LBB11_11
.Ltmp104:
.LBB11_11:
.Ltmp69:
	.loc	6 0 22 is_stmt 0
	leaq	448(%rsp), %rdi
	leaq	472(%rsp), %rsi
	.loc	6 498 22
	callq	_ZN73_$LT$core..result..Result$LT$T$C$E$GT$$u20$as$u20$core..ops..try..Try$GT$11into_result17h8f434fc916cfdf5eE
.Ltmp70:
	jmp	.LBB11_12
.Ltmp105:
.LBB11_12:
	.loc	6 503 18 is_stmt 1
	movq	448(%rsp), %rax
	testq	%rax, %rax
	je	.LBB11_13
	jmp	.LBB11_48
.Ltmp106:
.LBB11_48:
	jmp	.LBB11_15
.Ltmp107:
.LBB11_13:
	.loc	6 498 22
	movq	456(%rsp), %rax
	movq	%rax, 704(%rsp)
	.loc	6 498 17 is_stmt 0
	movq	%rax, 440(%rsp)
	movq	$1, 432(%rsp)
	.loc	6 505 21 is_stmt 1
	movq	136(%rsp), %rax
	.loc	6 506 28
	movq	184(%rsp), %rcx
	.loc	6 506 21 is_stmt 0
	movq	%rcx, 616(%rsp)
	.loc	6 483 23 is_stmt 1
	movq	432(%rsp), %rcx
	movq	440(%rsp), %rdx
	movq	%rcx, 400(%rsp)
	movq	%rdx, 408(%rsp)
	movq	%rax, 416(%rsp)
	movq	616(%rsp), %rax
	movq	%rax, 424(%rsp)
	.loc	6 483 12 is_stmt 0
	movq	400(%rsp), %rax
	movq	%rax, 368(%rsp)
	movq	408(%rsp), %rax
	movq	%rax, 376(%rsp)
	movq	416(%rsp), %rax
	movq	%rax, 384(%rsp)
	movq	424(%rsp), %rax
	movq	%rax, 392(%rsp)
	.loc	6 483 9
	movq	368(%rsp), %rax
	movq	96(%rsp), %rcx
	movq	%rax, 8(%rcx)
	movq	376(%rsp), %rax
	movq	%rax, 16(%rcx)
	movq	384(%rsp), %rax
	movq	%rax, 24(%rcx)
	movq	392(%rsp), %rax
	movq	%rax, 32(%rcx)
	movq	$0, (%rcx)
.Ltmp108:
	.loc	6 508 5 is_stmt 1
	movb	$0, 626(%rsp)
	movb	$0, 627(%rsp)
.Ltmp109:
	.loc	6 508 5 is_stmt 0
	movb	$0, 628(%rsp)
.Ltmp110:
	.loc	6 508 5
	movb	$0, 629(%rsp)
.Ltmp111:
	.loc	6 508 5
	movb	$0, 630(%rsp)
	jmp	.LBB11_20
.Ltmp112:
	.cfi_def_cfa_offset 8
	.loc	6 498 22 is_stmt 1
	ud2
.LBB11_15:
	.cfi_def_cfa_offset 720
.Ltmp113:
	.loc	6 503 18
	movups	456(%rsp), %xmm0
	movaps	%xmm0, 560(%rsp)
.Ltmp114:
	.loc	6 503 18 is_stmt 0
	movaps	560(%rsp), %xmm0
	movaps	%xmm0, 592(%rsp)
.Ltmp72:
	leaq	592(%rsp), %rdi
	callq	_ZN50_$LT$T$u20$as$u20$core..convert..From$LT$T$GT$$GT$4from17h9722341561249735E
.Ltmp73:
	movq	%rdx, 8(%rsp)
	movq	%rax, (%rsp)
	jmp	.LBB11_16
.Ltmp115:
.LBB11_16:
	.loc	6 0 18
	movq	(%rsp), %rax
	.loc	6 503 18
	movq	%rax, 688(%rsp)
	movq	8(%rsp), %rcx
	movq	%rcx, 696(%rsp)
	movups	688(%rsp), %xmm0
	movaps	%xmm0, 576(%rsp)
.Ltmp74:
	leaq	576(%rsp), %rsi
	movq	96(%rsp), %rdi
	.loc	6 498 22 is_stmt 1
	callq	_ZN73_$LT$core..result..Result$LT$T$C$E$GT$$u20$as$u20$core..ops..try..Try$GT$10from_error17h835263aa1d8fdb7eE
.Ltmp75:
	jmp	.LBB11_17
.Ltmp116:
.LBB11_17:
	.loc	6 508 5
	movb	$0, 626(%rsp)
	movb	$0, 627(%rsp)
.Ltmp117:
	.loc	6 508 5 is_stmt 0
	movb	$0, 628(%rsp)
.Ltmp77:
	leaq	184(%rsp), %rdi
.Ltmp118:
	.loc	6 508 5
	callq	_ZN4core3ptr13drop_in_place17h48a0c2cd1ecf88a5E
.Ltmp78:
	jmp	.LBB11_18
.Ltmp119:
.LBB11_18:
	.loc	6 508 5
	movb	$0, 629(%rsp)
.Ltmp80:
	leaq	136(%rsp), %rdi
.Ltmp120:
	.loc	6 508 5
	callq	_ZN4core3ptr13drop_in_place17h0209f58ef1a0925cE
.Ltmp81:
	jmp	.LBB11_19
.Ltmp121:
.LBB11_19:
	.loc	6 508 5
	movb	$0, 630(%rsp)
.Ltmp122:
.LBB11_20:
	.loc	6 0 5
	movq	88(%rsp), %rax
	.loc	6 508 6
	addq	$712, %rsp
	.cfi_def_cfa_offset 8
	retq
.Ltmp123:
.LBB11_21:
	.cfi_def_cfa_offset 720
	.loc	6 508 5
	leaq	184(%rsp), %rdi
	callq	_ZN4core3ptr13drop_in_place17h48a0c2cd1ecf88a5E
.Ltmp124:
.LBB11_22:
	.loc	6 508 5
	leaq	136(%rsp), %rdi
	callq	_ZN4core3ptr13drop_in_place17h0209f58ef1a0925cE
	jmp	.LBB11_28
.Ltmp125:
.LBB11_23:
	.loc	6 508 5
	testb	$1, 627(%rsp)
	jne	.LBB11_31
	jmp	.LBB11_33
.Ltmp126:
.LBB11_24:
	.loc	6 508 5
	leaq	184(%rsp), %rdi
	callq	_ZN4core3ptr13drop_in_place17h48a0c2cd1ecf88a5E
	jmp	.LBB11_35
.Ltmp127:
.LBB11_25:
	.loc	6 508 5
	leaq	136(%rsp), %rdi
	callq	_ZN4core3ptr13drop_in_place17h0209f58ef1a0925cE
	jmp	.LBB11_37
.Ltmp128:
.LBB11_26:
	.loc	6 508 5
	testb	$1, 631(%rsp)
	jne	.LBB11_38
.Ltmp129:
.LBB11_27:
	.loc	6 443 5 is_stmt 1
	movq	648(%rsp), %rdi
	callq	_Unwind_Resume@PLT
	ud2
.Ltmp130:
.LBB11_28:
	.loc	6 508 5
	jmp	.LBB11_26
.Ltmp131:
.LBB11_29:
	.loc	6 508 5 is_stmt 0
	leaq	264(%rsp), %rdi
	callq	_ZN4core3ptr13drop_in_place17h7704956db62155c5E
	jmp	.LBB11_23
.Ltmp132:
.LBB11_30:
	testb	$1, 626(%rsp)
	jne	.LBB11_29
	jmp	.LBB11_23
.Ltmp133:
.LBB11_31:
	leaq	248(%rsp), %rdi
	callq	_ZN4core3ptr13drop_in_place17h7704956db62155c5E
	jmp	.LBB11_33
.Ltmp134:
.LBB11_32:
	.loc	6 508 5
	leaq	240(%rsp), %rdi
	callq	_ZN4core3ptr13drop_in_place17h48a0c2cd1ecf88a5E
	jmp	.LBB11_24
.Ltmp135:
.LBB11_33:
	testb	$1, 628(%rsp)
	jne	.LBB11_32
	jmp	.LBB11_24
.Ltmp136:
.LBB11_34:
	.loc	6 508 5
	leaq	176(%rsp), %rdi
	callq	_ZN4core3ptr13drop_in_place17h0209f58ef1a0925cE
	jmp	.LBB11_25
.Ltmp137:
.LBB11_35:
	testb	$1, 629(%rsp)
	jne	.LBB11_34
	jmp	.LBB11_25
.Ltmp138:
.LBB11_36:
	.loc	6 508 5
	leaq	112(%rsp), %rdi
	callq	_ZN4core3ptr13drop_in_place17hf77800bd392a08c2E
	jmp	.LBB11_26
.Ltmp139:
.LBB11_37:
	testb	$1, 630(%rsp)
	jne	.LBB11_36
	jmp	.LBB11_26
.Ltmp140:
.LBB11_38:
	leaq	104(%rsp), %rdi
	callq	_ZN4core3ptr13drop_in_place17h509c0b136f844b88E
	jmp	.LBB11_27
.Ltmp141:
.LBB11_39:
.Ltmp50:
	.loc	6 0 5
	movq	%rax, 648(%rsp)
	movl	%edx, 656(%rsp)
	jmp	.LBB11_37
.Ltmp142:
.LBB11_40:
.Ltmp53:
	movq	%rax, 648(%rsp)
	movl	%edx, 656(%rsp)
	jmp	.LBB11_25
.Ltmp143:
.LBB11_41:
.Ltmp58:
	movq	%rax, 648(%rsp)
	movl	%edx, 656(%rsp)
	jmp	.LBB11_35
.Ltmp144:
.LBB11_42:
.Ltmp61:
	movq	%rax, 648(%rsp)
	movl	%edx, 656(%rsp)
	jmp	.LBB11_24
.Ltmp145:
.LBB11_43:
.Ltmp64:
	movq	%rax, 648(%rsp)
	movl	%edx, 656(%rsp)
	jmp	.LBB11_33
.Ltmp146:
.LBB11_44:
.Ltmp71:
	movq	%rax, 648(%rsp)
	movl	%edx, 656(%rsp)
	jmp	.LBB11_30
.Ltmp147:
.LBB11_45:
.Ltmp76:
	movq	%rax, 648(%rsp)
	movl	%edx, 656(%rsp)
	jmp	.LBB11_21
.Ltmp148:
.LBB11_46:
.Ltmp79:
	movq	%rax, 648(%rsp)
	movl	%edx, 656(%rsp)
	jmp	.LBB11_22
.Ltmp149:
.LBB11_47:
.Ltmp82:
	movq	%rax, 648(%rsp)
	movl	%edx, 656(%rsp)
	jmp	.LBB11_28
.Lfunc_end11:
	.size	_ZN3std6thread7Builder15spawn_unchecked17h8fb743e8e3b13192E, .Lfunc_end11-_ZN3std6thread7Builder15spawn_unchecked17h8fb743e8e3b13192E
	.cfi_endproc
	.section	.gcc_except_table,"a",@progbits
	.p2align	2
GCC_except_table11:
.Lexception4:
	.byte	255
	.byte	255
	.byte	1
	.uleb128 .Lcst_end4-.Lcst_begin4
.Lcst_begin4:
	.uleb128 .Ltmp46-.Lfunc_begin11
	.uleb128 .Ltmp49-.Ltmp46
	.uleb128 .Ltmp50-.Lfunc_begin11
	.byte	0
	.uleb128 .Ltmp51-.Lfunc_begin11
	.uleb128 .Ltmp52-.Ltmp51
	.uleb128 .Ltmp53-.Lfunc_begin11
	.byte	0
	.uleb128 .Ltmp54-.Lfunc_begin11
	.uleb128 .Ltmp57-.Ltmp54
	.uleb128 .Ltmp58-.Lfunc_begin11
	.byte	0
	.uleb128 .Ltmp59-.Lfunc_begin11
	.uleb128 .Ltmp60-.Ltmp59
	.uleb128 .Ltmp61-.Lfunc_begin11
	.byte	0
	.uleb128 .Ltmp62-.Lfunc_begin11
	.uleb128 .Ltmp63-.Ltmp62
	.uleb128 .Ltmp64-.Lfunc_begin11
	.byte	0
	.uleb128 .Ltmp65-.Lfunc_begin11
	.uleb128 .Ltmp66-.Ltmp65
	.uleb128 .Ltmp71-.Lfunc_begin11
	.byte	0
	.uleb128 .Ltmp66-.Lfunc_begin11
	.uleb128 .Ltmp67-.Ltmp66
	.byte	0
	.byte	0
	.uleb128 .Ltmp67-.Lfunc_begin11
	.uleb128 .Ltmp70-.Ltmp67
	.uleb128 .Ltmp71-.Lfunc_begin11
	.byte	0
	.uleb128 .Ltmp72-.Lfunc_begin11
	.uleb128 .Ltmp75-.Ltmp72
	.uleb128 .Ltmp76-.Lfunc_begin11
	.byte	0
	.uleb128 .Ltmp77-.Lfunc_begin11
	.uleb128 .Ltmp78-.Ltmp77
	.uleb128 .Ltmp79-.Lfunc_begin11
	.byte	0
	.uleb128 .Ltmp80-.Lfunc_begin11
	.uleb128 .Ltmp81-.Ltmp80
	.uleb128 .Ltmp82-.Lfunc_begin11
	.byte	0
	.uleb128 .Ltmp81-.Lfunc_begin11
	.uleb128 .Lfunc_end11-.Ltmp81
	.byte	0
	.byte	0
.Lcst_end4:
	.p2align	2

	.section	".text._ZN3std6thread7Builder15spawn_unchecked28_$u7b$$u7b$closure$u7d$$u7d$17h2ba93ba7c6792519E","ax",@progbits
	.p2align	4, 0x90
	.type	_ZN3std6thread7Builder15spawn_unchecked28_$u7b$$u7b$closure$u7d$$u7d$17h2ba93ba7c6792519E,@function
_ZN3std6thread7Builder15spawn_unchecked28_$u7b$$u7b$closure$u7d$$u7d$17h2ba93ba7c6792519E:
.Lfunc_begin12:
	.loc	6 461 0 is_stmt 1
	.cfi_startproc
	.cfi_personality 155, DW.ref.rust_eh_personality
	.cfi_lsda 27, .Lexception5
	subq	$264, %rsp
	.cfi_def_cfa_offset 272
.Ltmp177:
	.loc	6 462 13 prologue_end
	movb	$0, 212(%rsp)
	movb	$0, 215(%rsp)
	movb	$0, 211(%rsp)
	movb	$0, 213(%rsp)
	movb	$0, 214(%rsp)
	movb	$1, 212(%rsp)
	movb	$1, 213(%rsp)
	movb	$1, 214(%rsp)
	movb	$1, 215(%rsp)
.Ltmp150:
	.loc	6 462 33 is_stmt 0
	movq	_ZN3std6thread6Thread5cname17h1d22449f769293c4E@GOTPCREL(%rip), %rax
	movq	%rdi, 88(%rsp)
.Ltmp178:
	callq	*%rax
.Ltmp151:
	movq	%rdx, 80(%rsp)
	movq	%rax, 72(%rsp)
	jmp	.LBB12_1
.Ltmp179:
.LBB12_1:
	.loc	6 0 33
	xorl	%eax, %eax
	movl	%eax, %ecx
	movq	72(%rsp), %rdx
	.loc	6 462 33
	movq	%rdx, 96(%rsp)
	movq	80(%rsp), %rsi
	movq	%rsi, 104(%rsp)
	.loc	6 462 20
	cmpq	$0, 96(%rsp)
	movl	$1, %edi
	cmoveq	%rcx, %rdi
	cmpq	$1, %rdi
	je	.LBB12_3
.Ltmp180:
	.loc	6 462 13
	jmp	.LBB12_5
.Ltmp181:
.LBB12_3:
	.loc	6 462 25
	movq	96(%rsp), %rax
	movq	104(%rsp), %rcx
	movq	%rax, 232(%rsp)
	movq	%rcx, 240(%rsp)
.Ltmp152:
.Ltmp182:
	.loc	6 463 17 is_stmt 1
	movq	_ZN3std3sys4unix6thread6Thread8set_name17hcb8af76e35a00413E@GOTPCREL(%rip), %rdx
	movq	%rax, %rdi
	movq	%rcx, %rsi
	callq	*%rdx
.Ltmp153:
	jmp	.LBB12_4
.Ltmp183:
.LBB12_4:
	.loc	6 462 13
	jmp	.LBB12_5
.Ltmp184:
.LBB12_5:
	.loc	6 466 34
	movb	$0, 215(%rsp)
	movq	88(%rsp), %rax
	movq	8(%rax), %rdi
	movq	16(%rax), %rsi
.Ltmp154:
	.loc	6 466 13 is_stmt 0
	movq	_ZN3std2io5stdio9set_print17hc4152c8d7d4e9accE@GOTPCREL(%rip), %rcx
	callq	*%rcx
.Ltmp155:
	movq	%rdx, 64(%rsp)
	movq	%rax, 56(%rsp)
	jmp	.LBB12_6
.Ltmp185:
.LBB12_6:
	.loc	6 0 13
	movq	56(%rsp), %rax
	.loc	6 466 13
	movq	%rax, 112(%rsp)
	movq	64(%rsp), %rcx
	movq	%rcx, 120(%rsp)
.Ltmp156:
	leaq	112(%rsp), %rdi
	.loc	6 466 41
	callq	_ZN4core3ptr13drop_in_place17h7704956db62155c5E
.Ltmp157:
	jmp	.LBB12_7
.Ltmp186:
.LBB12_7:
	.loc	6 467 34 is_stmt 1
	movb	$0, 214(%rsp)
	movq	88(%rsp), %rax
	movq	24(%rax), %rdi
	movq	32(%rax), %rsi
.Ltmp158:
	.loc	6 467 13 is_stmt 0
	movq	_ZN3std2io5stdio9set_panic17hcf1e5c38cefca0deE@GOTPCREL(%rip), %rcx
	callq	*%rcx
.Ltmp159:
	movq	%rdx, 48(%rsp)
	movq	%rax, 40(%rsp)
	jmp	.LBB12_8
.Ltmp187:
.LBB12_8:
	.loc	6 0 13
	movq	40(%rsp), %rax
	.loc	6 467 13
	movq	%rax, 128(%rsp)
	movq	48(%rsp), %rcx
	movq	%rcx, 136(%rsp)
.Ltmp160:
	leaq	128(%rsp), %rdi
	.loc	6 467 41
	callq	_ZN4core3ptr13drop_in_place17h7704956db62155c5E
.Ltmp161:
	jmp	.LBB12_9
.Ltmp188:
.LBB12_9:
.Ltmp162:
	.loc	6 472 39 is_stmt 1
	movq	_ZN3std3sys4unix6thread5guard7current17h1cade2fb3866dbc6E@GOTPCREL(%rip), %rax
	leaq	144(%rsp), %rdi
	callq	*%rax
.Ltmp163:
	jmp	.LBB12_10
.Ltmp189:
.LBB12_10:
	.loc	6 472 64 is_stmt 0
	movb	$0, 213(%rsp)
	movq	88(%rsp), %rax
	movq	(%rax), %rsi
.Ltmp164:
	.loc	6 472 13
	movq	_ZN3std10sys_common11thread_info3set17hb1c900a8eba5ed39E@GOTPCREL(%rip), %rcx
	leaq	144(%rsp), %rdi
	callq	*%rcx
.Ltmp165:
	jmp	.LBB12_11
.Ltmp190:
.LBB12_11:
	.loc	6 473 74 is_stmt 1
	movb	$0, 212(%rsp)
	movq	88(%rsp), %rax
	movq	40(%rax), %rcx
	movq	%rcx, 176(%rsp)
	.loc	6 473 50 is_stmt 0
	movq	176(%rsp), %rcx
	movq	%rcx, 168(%rsp)
	.loc	6 473 30
	movq	168(%rsp), %rdi
.Ltmp166:
	callq	_ZN3std5panic12catch_unwind17hcd02743c25ecef63E
.Ltmp167:
	movq	%rdx, 32(%rsp)
	movq	%rax, 24(%rsp)
	jmp	.LBB12_12
.Ltmp191:
.LBB12_12:
	.loc	6 0 30
	movq	24(%rsp), %rax
	.loc	6 473 30
	movq	%rax, 248(%rsp)
	movq	32(%rsp), %rcx
	movq	%rcx, 256(%rsp)
.Ltmp192:
	.loc	6 480 44 is_stmt 1
	movb	$1, 211(%rsp)
	movq	%rax, 192(%rsp)
	movq	%rcx, 200(%rsp)
	movq	$1, 184(%rsp)
	movq	88(%rsp), %rdx
	.loc	6 480 23 is_stmt 0
	addq	$48, %rdx
.Ltmp169:
	movq	%rdx, %rdi
	callq	_ZN69_$LT$alloc..sync..Arc$LT$T$GT$$u20$as$u20$core..ops..deref..Deref$GT$5deref17hbd180dcaabcc3289E
.Ltmp170:
	movq	%rax, 16(%rsp)
	jmp	.LBB12_13
.Ltmp193:
.LBB12_13:
.Ltmp171:
	.loc	6 0 23
	movq	16(%rsp), %rdi
	.loc	6 480 23
	callq	_ZN4core4cell19UnsafeCell$LT$T$GT$3get17h2cfbece41a06e5b6E
.Ltmp172:
	movq	%rax, 8(%rsp)
	jmp	.LBB12_14
.Ltmp194:
.LBB12_14:
	.loc	6 480 22
	movb	$0, 211(%rsp)
.Ltmp174:
	movq	8(%rsp), %rdi
	callq	_ZN4core3ptr13drop_in_place17h6c3888401d8c2047E
.Ltmp175:
	jmp	.LBB12_17
.Ltmp195:
.LBB12_15:
	.loc	6 461 20 is_stmt 1
	movq	216(%rsp), %rdi
	callq	_Unwind_Resume@PLT
	ud2
.Ltmp196:
.LBB12_16:
	.loc	6 480 22
	movq	184(%rsp), %rax
	movq	8(%rsp), %rcx
	movq	%rax, (%rcx)
	movq	192(%rsp), %rax
	movq	%rax, 8(%rcx)
	movq	200(%rsp), %rax
	movq	%rax, 16(%rcx)
	jmp	.LBB12_20
.Ltmp197:
.LBB12_17:
	movq	184(%rsp), %rax
	movq	8(%rsp), %rcx
	movq	%rax, (%rcx)
	movq	192(%rsp), %rax
	movq	%rax, 8(%rcx)
	movq	200(%rsp), %rax
	movq	%rax, 16(%rcx)
	.loc	6 480 59 is_stmt 0
	movb	$0, 211(%rsp)
	movq	88(%rsp), %rax
.Ltmp198:
	.loc	6 481 9 is_stmt 1
	addq	$48, %rax
	movq	%rax, %rdi
	callq	_ZN4core3ptr13drop_in_place17h48a0c2cd1ecf88a5E
.Ltmp199:
	.loc	6 481 10 is_stmt 0
	addq	$264, %rsp
	.cfi_def_cfa_offset 8
	retq
.Ltmp200:
.LBB12_19:
	.cfi_def_cfa_offset 272
	.loc	6 480 59 is_stmt 1
	leaq	184(%rsp), %rdi
	callq	_ZN4core3ptr13drop_in_place17h6c3888401d8c2047E
	jmp	.LBB12_29
.Ltmp201:
.LBB12_20:
	testb	$1, 211(%rsp)
	jne	.LBB12_19
	jmp	.LBB12_29
.Ltmp202:
.LBB12_21:
	.loc	6 0 59 is_stmt 0
	movq	88(%rsp), %rax
	.loc	6 481 9 is_stmt 1
	addq	$48, %rax
	movq	%rax, %rdi
	callq	_ZN4core3ptr13drop_in_place17h48a0c2cd1ecf88a5E
	jmp	.LBB12_15
.Ltmp203:
.LBB12_22:
	testb	$1, 212(%rsp)
	je	.LBB12_21
.Ltmp204:
	.loc	6 0 9 is_stmt 0
	movq	88(%rsp), %rax
	.loc	6 481 9
	addq	$40, %rax
	movq	%rax, %rdi
	callq	_ZN4core3ptr13drop_in_place17h509c0b136f844b88E
	jmp	.LBB12_21
.Ltmp205:
.LBB12_24:
	testb	$1, 214(%rsp)
	je	.LBB12_22
.Ltmp206:
	.loc	6 0 9
	movq	88(%rsp), %rax
	.loc	6 481 9
	addq	$24, %rax
	movq	%rax, %rdi
	callq	_ZN4core3ptr13drop_in_place17h7704956db62155c5E
	jmp	.LBB12_22
.Ltmp207:
.LBB12_26:
	testb	$1, 215(%rsp)
	je	.LBB12_24
.Ltmp208:
	.loc	6 0 9
	movq	88(%rsp), %rax
	.loc	6 481 9
	addq	$8, %rax
	movq	%rax, %rdi
	callq	_ZN4core3ptr13drop_in_place17h7704956db62155c5E
	jmp	.LBB12_24
.Ltmp209:
.LBB12_28:
	.loc	6 0 9
	movq	88(%rsp), %rax
	.loc	6 481 9
	movq	%rax, %rdi
	callq	_ZN4core3ptr13drop_in_place17h0209f58ef1a0925cE
	jmp	.LBB12_26
.Ltmp210:
.LBB12_29:
	testb	$1, 213(%rsp)
	jne	.LBB12_28
	jmp	.LBB12_26
.Ltmp211:
.LBB12_30:
.Ltmp168:
	.loc	6 0 9
	movq	%rax, 216(%rsp)
	movl	%edx, 224(%rsp)
	jmp	.LBB12_29
.Ltmp212:
.LBB12_31:
.Ltmp173:
	movq	%rax, 216(%rsp)
	movl	%edx, 224(%rsp)
	jmp	.LBB12_20
.Ltmp213:
.LBB12_32:
.Ltmp176:
	movq	%rax, 216(%rsp)
	movl	%edx, 224(%rsp)
	jmp	.LBB12_16
.Lfunc_end12:
	.size	_ZN3std6thread7Builder15spawn_unchecked28_$u7b$$u7b$closure$u7d$$u7d$17h2ba93ba7c6792519E, .Lfunc_end12-_ZN3std6thread7Builder15spawn_unchecked28_$u7b$$u7b$closure$u7d$$u7d$17h2ba93ba7c6792519E
	.cfi_endproc
	.section	.gcc_except_table,"a",@progbits
	.p2align	2
GCC_except_table12:
.Lexception5:
	.byte	255
	.byte	255
	.byte	1
	.uleb128 .Lcst_end5-.Lcst_begin5
.Lcst_begin5:
	.uleb128 .Ltmp150-.Lfunc_begin12
	.uleb128 .Ltmp167-.Ltmp150
	.uleb128 .Ltmp168-.Lfunc_begin12
	.byte	0
	.uleb128 .Ltmp169-.Lfunc_begin12
	.uleb128 .Ltmp172-.Ltmp169
	.uleb128 .Ltmp173-.Lfunc_begin12
	.byte	0
	.uleb128 .Ltmp174-.Lfunc_begin12
	.uleb128 .Ltmp175-.Ltmp174
	.uleb128 .Ltmp176-.Lfunc_begin12
	.byte	0
	.uleb128 .Ltmp175-.Lfunc_begin12
	.uleb128 .Lfunc_end12-.Ltmp175
	.byte	0
	.byte	0
.Lcst_end5:
	.p2align	2

	.section	".text._ZN3std6thread7Builder15spawn_unchecked28_$u7b$$u7b$closure$u7d$$u7d$28_$u7b$$u7b$closure$u7d$$u7d$17ha88d38011fd81828E","ax",@progbits
	.p2align	4, 0x90
	.type	_ZN3std6thread7Builder15spawn_unchecked28_$u7b$$u7b$closure$u7d$$u7d$28_$u7b$$u7b$closure$u7d$$u7d$17ha88d38011fd81828E,@function
_ZN3std6thread7Builder15spawn_unchecked28_$u7b$$u7b$closure$u7d$$u7d$28_$u7b$$u7b$closure$u7d$$u7d$17ha88d38011fd81828E:
.Lfunc_begin13:
	.loc	6 473 0 is_stmt 1
	.cfi_startproc
	pushq	%rax
	.cfi_def_cfa_offset 16
	movq	%rdi, (%rsp)
.Ltmp214:
	.loc	6 474 17 prologue_end
	callq	_ZN3std10sys_common9backtrace28__rust_begin_short_backtrace17h3091c47723b92e71E
	.loc	6 475 14
	popq	%rax
	.cfi_def_cfa_offset 8
	retq
.Ltmp215:
.Lfunc_end13:
	.size	_ZN3std6thread7Builder15spawn_unchecked28_$u7b$$u7b$closure$u7d$$u7d$28_$u7b$$u7b$closure$u7d$$u7d$17ha88d38011fd81828E, .Lfunc_end13-_ZN3std6thread7Builder15spawn_unchecked28_$u7b$$u7b$closure$u7d$$u7d$28_$u7b$$u7b$closure$u7d$$u7d$17ha88d38011fd81828E
	.cfi_endproc

	.section	.text._ZN3std6thread7Builder5spawn17h977707fa640cb192E,"ax",@progbits
	.p2align	4, 0x90
	.type	_ZN3std6thread7Builder5spawn17h977707fa640cb192E,@function
_ZN3std6thread7Builder5spawn17h977707fa640cb192E:
.Lfunc_begin14:
	.loc	6 375 0
	.cfi_startproc
	subq	$88, %rsp
	.cfi_def_cfa_offset 96
	movq	%rdi, %rax
.Ltmp216:
	movq	%rdx, 80(%rsp)
.Ltmp217:
	.loc	6 381 18 prologue_end
	leaq	40(%rsp), %rcx
	movq	%rcx, %r8
	movq	%rdi, 32(%rsp)
	movq	%r8, %rdi
	movl	$40, %r8d
	movq	%rdx, 24(%rsp)
	movq	%r8, %rdx
	movq	%rax, 16(%rsp)
	movq	%rcx, 8(%rsp)
	callq	memcpy@PLT
.Ltmp218:
	.loc	6 0 18 is_stmt 0
	movq	32(%rsp), %rdi
	movq	8(%rsp), %rsi
	movq	24(%rsp), %rdx
	.loc	6 381 18
	callq	_ZN3std6thread7Builder15spawn_unchecked17h8fb743e8e3b13192E
.Ltmp219:
	.loc	6 0 18
	movq	16(%rsp), %rax
	.loc	6 382 6 is_stmt 1
	addq	$88, %rsp
	.cfi_def_cfa_offset 8
	retq
.Ltmp220:
.Lfunc_end14:
	.size	_ZN3std6thread7Builder5spawn17h977707fa640cb192E, .Lfunc_end14-_ZN3std6thread7Builder5spawn17h977707fa640cb192E
	.cfi_endproc

	.section	.text._ZN3std9panicking3try17h163c5e8e803f684cE,"ax",@progbits
	.p2align	4, 0x90
	.type	_ZN3std9panicking3try17h163c5e8e803f684cE,@function
_ZN3std9panicking3try17h163c5e8e803f684cE:
.Lfunc_begin15:
	.file	8 "/rustc/e1884a8e3c3e813aada8254edfa120e85bf5ffca/library/std/src/panicking.rs"
	.loc	8 301 0
	.cfi_startproc
	subq	$120, %rsp
	.cfi_def_cfa_offset 128
	movq	%rdi, 64(%rsp)
	movq	%rdi, 96(%rsp)
.Ltmp221:
	.file	9 "/rustc/e1884a8e3c3e813aada8254edfa120e85bf5ffca/library/core/src/mem/manually_drop.rs"
	.loc	9 70 9 prologue_end
	movq	%rdi, 88(%rsp)
	.loc	9 71 6
	movq	88(%rsp), %rax
	movq	%rax, 24(%rsp)
.Ltmp222:
	.loc	9 0 6 is_stmt 0
	movq	24(%rsp), %rax
	.loc	8 332 20 is_stmt 1
	movq	%rax, 48(%rsp)
.Ltmp223:
	.loc	8 334 20
	leaq	48(%rsp), %rcx
	movq	%rcx, 72(%rsp)
.Ltmp224:
	.loc	8 345 19
	leaq	_ZN3std9panicking3try7do_call17h34c3399450ebd48cE(%rip), %rdi
	movq	%rcx, %rsi
	leaq	_ZN3std9panicking3try8do_catch17h9b1e386e7b6543acE(%rip), %rdx
	callq	__rust_try
	movl	%eax, 84(%rsp)
	movl	84(%rsp), %eax
	movl	%eax, 20(%rsp)
	.loc	8 0 19 is_stmt 0
	movl	20(%rsp), %eax
	.loc	8 345 16
	cmpl	$0, %eax
	je	.LBB15_4
	.loc	8 348 42 is_stmt 1
	movq	48(%rsp), %rax
	movq	56(%rsp), %rcx
	movq	%rax, 104(%rsp)
	movq	%rcx, 112(%rsp)
	movq	%rax, 8(%rsp)
	movq	%rcx, (%rsp)
	.loc	8 348 17 is_stmt 0
	jmp	.LBB15_6
.LBB15_4:
	.loc	8 346 16 is_stmt 1
	jmp	.LBB15_5
.LBB15_5:
	.loc	8 346 13 is_stmt 0
	movq	$0, 32(%rsp)
	.loc	8 345 16 is_stmt 1
	jmp	.LBB15_7
.LBB15_6:
	.loc	8 0 16 is_stmt 0
	movq	8(%rsp), %rax
	.loc	8 348 13 is_stmt 1
	movq	%rax, 32(%rsp)
	movq	(%rsp), %rcx
	movq	%rcx, 40(%rsp)
.Ltmp225:
.LBB15_7:
	.loc	8 410 2
	movq	32(%rsp), %rax
	movq	40(%rsp), %rdx
	addq	$120, %rsp
	.cfi_def_cfa_offset 8
	retq
.Ltmp226:
.Lfunc_end15:
	.size	_ZN3std9panicking3try17h163c5e8e803f684cE, .Lfunc_end15-_ZN3std9panicking3try17h163c5e8e803f684cE
	.cfi_endproc

	.section	.text._ZN3std9panicking3try7do_call17h34c3399450ebd48cE,"ax",@progbits
	.p2align	4, 0x90
	.type	_ZN3std9panicking3try7do_call17h34c3399450ebd48cE,@function
_ZN3std9panicking3try7do_call17h34c3399450ebd48cE:
.Lfunc_begin16:
	.loc	8 375 0
	.cfi_startproc
	subq	$56, %rsp
	.cfi_def_cfa_offset 64
	movq	%rdi, 16(%rsp)
.Ltmp227:
	.loc	8 378 24 prologue_end
	movq	%rdi, 24(%rsp)
.Ltmp228:
	.loc	8 379 24
	movq	%rdi, 32(%rsp)
.Ltmp229:
	.loc	8 380 21
	callq	_ZN4core3mem13manually_drop21ManuallyDrop$LT$T$GT$4take17h46f1b6f5cbba46bfE
	movq	%rax, 40(%rsp)
	movq	%rax, (%rsp)
	.loc	8 0 21 is_stmt 0
	movq	(%rsp), %rdi
.Ltmp230:
	.loc	8 381 40 is_stmt 1
	callq	_ZN101_$LT$std..panic..AssertUnwindSafe$LT$F$GT$$u20$as$u20$core..ops..function..FnOnce$LT$$LP$$RP$$GT$$GT$9call_once17h12b5151a34a0ae7bE
.Ltmp231:
	.loc	8 383 6
	addq	$56, %rsp
	.cfi_def_cfa_offset 8
	retq
.Ltmp232:
.Lfunc_end16:
	.size	_ZN3std9panicking3try7do_call17h34c3399450ebd48cE, .Lfunc_end16-_ZN3std9panicking3try7do_call17h34c3399450ebd48cE
	.cfi_endproc

	.section	.text._ZN3std9panicking3try8do_catch17h9b1e386e7b6543acE,"ax",@progbits
	.p2align	4, 0x90
	.type	_ZN3std9panicking3try8do_catch17h9b1e386e7b6543acE,@function
_ZN3std9panicking3try8do_catch17h9b1e386e7b6543acE:
.Lfunc_begin17:
	.loc	8 397 0
	.cfi_startproc
	subq	$120, %rsp
	.cfi_def_cfa_offset 128
	movq	%rdi, 40(%rsp)
	movq	%rsi, 48(%rsp)
.Ltmp233:
	.loc	8 404 24 prologue_end
	movq	%rdi, 56(%rsp)
.Ltmp234:
	.loc	8 405 24
	movq	%rdi, 64(%rsp)
	movq	%rdi, 32(%rsp)
.Ltmp235:
	.loc	8 406 23
	movq	%rsi, %rdi
	callq	*_ZN3std9panicking3try7cleanup17hb8310cd6218c0e07E@GOTPCREL(%rip)
	movq	%rax, 72(%rsp)
	movq	%rdx, 80(%rsp)
	movq	%rax, 24(%rsp)
	movq	%rdx, 16(%rsp)
	.loc	8 0 23 is_stmt 0
	movq	24(%rsp), %rax
	movq	%rax, 104(%rsp)
	movq	16(%rsp), %rcx
	movq	%rcx, 112(%rsp)
.Ltmp236:
	.loc	9 70 9 is_stmt 1
	movq	%rax, 88(%rsp)
	movq	%rcx, 96(%rsp)
	.loc	9 71 6
	movq	88(%rsp), %rdx
	movq	96(%rsp), %rsi
	movq	%rdx, 8(%rsp)
	movq	%rsi, (%rsp)
.Ltmp237:
	.loc	9 0 6 is_stmt 0
	movq	32(%rsp), %rax
	movq	8(%rsp), %rcx
	.loc	8 407 13 is_stmt 1
	movq	%rcx, (%rax)
	movq	(%rsp), %rdx
	movq	%rdx, 8(%rax)
.Ltmp238:
	.loc	8 409 6
	addq	$120, %rsp
	.cfi_def_cfa_offset 8
	retq
.Ltmp239:
.Lfunc_end17:
	.size	_ZN3std9panicking3try8do_catch17h9b1e386e7b6543acE, .Lfunc_end17-_ZN3std9panicking3try8do_catch17h9b1e386e7b6543acE
	.cfi_endproc

	.section	".text._ZN47_$LT$i64$u20$as$u20$core..iter..range..Step$GT$17forward_unchecked17h1bdf44c9d8fb49bcE","ax",@progbits
	.p2align	4, 0x90
	.type	_ZN47_$LT$i64$u20$as$u20$core..iter..range..Step$GT$17forward_unchecked17h1bdf44c9d8fb49bcE,@function
_ZN47_$LT$i64$u20$as$u20$core..iter..range..Step$GT$17forward_unchecked17h1bdf44c9d8fb49bcE:
.Lfunc_begin18:
	.file	10 "/rustc/e1884a8e3c3e813aada8254edfa120e85bf5ffca/library/core/src/iter/range.rs"
	.loc	10 191 0
	.cfi_startproc
	subq	$24, %rsp
	.cfi_def_cfa_offset 32
	movq	%rdi, 8(%rsp)
	movq	%rsi, 16(%rsp)
.Ltmp240:
	.loc	10 193 22 prologue_end
	callq	_ZN4core3num21_$LT$impl$u20$i64$GT$13unchecked_add17hcd9fc0943f051ce0E
	movq	%rax, (%rsp)
	.loc	10 0 22 is_stmt 0
	movq	(%rsp), %rax
	.loc	10 194 10 is_stmt 1
	addq	$24, %rsp
	.cfi_def_cfa_offset 8
	retq
.Ltmp241:
.Lfunc_end18:
	.size	_ZN47_$LT$i64$u20$as$u20$core..iter..range..Step$GT$17forward_unchecked17h1bdf44c9d8fb49bcE, .Lfunc_end18-_ZN47_$LT$i64$u20$as$u20$core..iter..range..Step$GT$17forward_unchecked17h1bdf44c9d8fb49bcE
	.cfi_endproc

	.section	.text._ZN4core10intrinsics19copy_nonoverlapping17h371c703a301926c6E,"ax",@progbits
	.p2align	4, 0x90
	.type	_ZN4core10intrinsics19copy_nonoverlapping17h371c703a301926c6E,@function
_ZN4core10intrinsics19copy_nonoverlapping17h371c703a301926c6E:
.Lfunc_begin19:
	.file	11 "/rustc/e1884a8e3c3e813aada8254edfa120e85bf5ffca/library/core/src/intrinsics.rs"
	.loc	11 1844 0
	.cfi_startproc
	subq	$40, %rsp
	.cfi_def_cfa_offset 48
	movq	%rdi, 16(%rsp)
	movq	%rsi, 24(%rsp)
	movq	%rdx, 32(%rsp)
.Ltmp242:
	.loc	11 1860 14 prologue_end
	shlq	$3, %rdx
	movq	%rdi, 8(%rsp)
	movq	%rsi, %rdi
	movq	8(%rsp), %rsi
	callq	memcpy@PLT
	.loc	11 1861 2
	addq	$40, %rsp
	.cfi_def_cfa_offset 8
	retq
.Ltmp243:
.Lfunc_end19:
	.size	_ZN4core10intrinsics19copy_nonoverlapping17h371c703a301926c6E, .Lfunc_end19-_ZN4core10intrinsics19copy_nonoverlapping17h371c703a301926c6E
	.cfi_endproc

	.section	.text._ZN4core10intrinsics19copy_nonoverlapping17h8ef679636b6782a6E,"ax",@progbits
	.p2align	4, 0x90
	.type	_ZN4core10intrinsics19copy_nonoverlapping17h8ef679636b6782a6E,@function
_ZN4core10intrinsics19copy_nonoverlapping17h8ef679636b6782a6E:
.Lfunc_begin20:
	.loc	11 1844 0
	.cfi_startproc
	subq	$40, %rsp
	.cfi_def_cfa_offset 48
	movq	%rdi, 16(%rsp)
	movq	%rsi, 24(%rsp)
	movq	%rdx, 32(%rsp)
.Ltmp244:
	.loc	11 1860 14 prologue_end
	shlq	$4, %rdx
	movq	%rdi, 8(%rsp)
	movq	%rsi, %rdi
	movq	8(%rsp), %rsi
	callq	memcpy@PLT
	.loc	11 1861 2
	addq	$40, %rsp
	.cfi_def_cfa_offset 8
	retq
.Ltmp245:
.Lfunc_end20:
	.size	_ZN4core10intrinsics19copy_nonoverlapping17h8ef679636b6782a6E, .Lfunc_end20-_ZN4core10intrinsics19copy_nonoverlapping17h8ef679636b6782a6E
	.cfi_endproc

	.section	.text._ZN4core10intrinsics19copy_nonoverlapping17h8fc0a340623f58ccE,"ax",@progbits
	.p2align	4, 0x90
	.type	_ZN4core10intrinsics19copy_nonoverlapping17h8fc0a340623f58ccE,@function
_ZN4core10intrinsics19copy_nonoverlapping17h8fc0a340623f58ccE:
.Lfunc_begin21:
	.loc	11 1844 0
	.cfi_startproc
	subq	$40, %rsp
	.cfi_def_cfa_offset 48
	movq	%rdi, 16(%rsp)
	movq	%rsi, 24(%rsp)
	movq	%rdx, 32(%rsp)
.Ltmp246:
	.loc	11 1860 14 prologue_end
	shlq	$3, %rdx
	movq	%rdi, 8(%rsp)
	movq	%rsi, %rdi
	movq	8(%rsp), %rsi
	callq	memcpy@PLT
	.loc	11 1861 2
	addq	$40, %rsp
	.cfi_def_cfa_offset 8
	retq
.Ltmp247:
.Lfunc_end21:
	.size	_ZN4core10intrinsics19copy_nonoverlapping17h8fc0a340623f58ccE, .Lfunc_end21-_ZN4core10intrinsics19copy_nonoverlapping17h8fc0a340623f58ccE
	.cfi_endproc

	.section	.text._ZN4core10intrinsics19copy_nonoverlapping17ha6c4225c210f8d45E,"ax",@progbits
	.p2align	4, 0x90
	.type	_ZN4core10intrinsics19copy_nonoverlapping17ha6c4225c210f8d45E,@function
_ZN4core10intrinsics19copy_nonoverlapping17ha6c4225c210f8d45E:
.Lfunc_begin22:
	.loc	11 1844 0
	.cfi_startproc
	subq	$40, %rsp
	.cfi_def_cfa_offset 48
	movq	%rdi, 16(%rsp)
	movq	%rsi, 24(%rsp)
	movq	%rdx, 32(%rsp)
.Ltmp248:
	.loc	11 1860 14 prologue_end
	shlq	$0, %rdx
	movq	%rdi, 8(%rsp)
	movq	%rsi, %rdi
	movq	8(%rsp), %rsi
	callq	memcpy@PLT
	.loc	11 1861 2
	addq	$40, %rsp
	.cfi_def_cfa_offset 8
	retq
.Ltmp249:
.Lfunc_end22:
	.size	_ZN4core10intrinsics19copy_nonoverlapping17ha6c4225c210f8d45E, .Lfunc_end22-_ZN4core10intrinsics19copy_nonoverlapping17ha6c4225c210f8d45E
	.cfi_endproc

	.section	.text._ZN4core10intrinsics19copy_nonoverlapping17hb1396f282768f031E,"ax",@progbits
	.p2align	4, 0x90
	.type	_ZN4core10intrinsics19copy_nonoverlapping17hb1396f282768f031E,@function
_ZN4core10intrinsics19copy_nonoverlapping17hb1396f282768f031E:
.Lfunc_begin23:
	.loc	11 1844 0
	.cfi_startproc
	subq	$40, %rsp
	.cfi_def_cfa_offset 48
	movq	%rdi, 16(%rsp)
	movq	%rsi, 24(%rsp)
	movq	%rdx, 32(%rsp)
.Ltmp250:
	.loc	11 1860 14 prologue_end
	imulq	$24, %rdx, %rdx
	movq	%rdi, 8(%rsp)
	movq	%rsi, %rdi
	movq	8(%rsp), %rsi
	callq	memcpy@PLT
	.loc	11 1861 2
	addq	$40, %rsp
	.cfi_def_cfa_offset 8
	retq
.Ltmp251:
.Lfunc_end23:
	.size	_ZN4core10intrinsics19copy_nonoverlapping17hb1396f282768f031E, .Lfunc_end23-_ZN4core10intrinsics19copy_nonoverlapping17hb1396f282768f031E
	.cfi_endproc

	.section	".text._ZN4core3cmp5impls55_$LT$impl$u20$core..cmp..PartialOrd$u20$for$u20$i64$GT$2lt17h78f8f4d44236359dE","ax",@progbits
	.p2align	4, 0x90
	.type	_ZN4core3cmp5impls55_$LT$impl$u20$core..cmp..PartialOrd$u20$for$u20$i64$GT$2lt17h78f8f4d44236359dE,@function
_ZN4core3cmp5impls55_$LT$impl$u20$core..cmp..PartialOrd$u20$for$u20$i64$GT$2lt17h78f8f4d44236359dE:
.Lfunc_begin24:
	.file	12 "/rustc/e1884a8e3c3e813aada8254edfa120e85bf5ffca/library/core/src/cmp.rs"
	.loc	12 1142 0
	.cfi_startproc
	subq	$16, %rsp
	.cfi_def_cfa_offset 24
	movq	%rdi, (%rsp)
	movq	%rsi, 8(%rsp)
.Ltmp252:
	.loc	12 1142 52 prologue_end
	movq	(%rdi), %rax
	cmpq	(%rsi), %rax
	setl	%cl
	.loc	12 1142 72 is_stmt 0
	andb	$1, %cl
	movzbl	%cl, %eax
	addq	$16, %rsp
	.cfi_def_cfa_offset 8
	retq
.Ltmp253:
.Lfunc_end24:
	.size	_ZN4core3cmp5impls55_$LT$impl$u20$core..cmp..PartialOrd$u20$for$u20$i64$GT$2lt17h78f8f4d44236359dE, .Lfunc_end24-_ZN4core3cmp5impls55_$LT$impl$u20$core..cmp..PartialOrd$u20$for$u20$i64$GT$2lt17h78f8f4d44236359dE
	.cfi_endproc

	.section	.text._ZN4core3fmt10ArgumentV13new17hb543176314b3b4bdE,"ax",@progbits
	.p2align	4, 0x90
	.type	_ZN4core3fmt10ArgumentV13new17hb543176314b3b4bdE,@function
_ZN4core3fmt10ArgumentV13new17hb543176314b3b4bdE:
.Lfunc_begin25:
	.file	13 "/rustc/e1884a8e3c3e813aada8254edfa120e85bf5ffca/library/core/src/fmt/mod.rs"
	.loc	13 267 0 is_stmt 1
	.cfi_startproc
	subq	$72, %rsp
	.cfi_def_cfa_offset 80
	movq	%rdi, 40(%rsp)
	movq	%rsi, 48(%rsp)
.Ltmp254:
	.loc	13 276 42 prologue_end
	movq	%rsi, 56(%rsp)
	movq	56(%rsp), %rax
	movq	%rdi, 16(%rsp)
	movq	%rax, 8(%rsp)
	.loc	13 0 42 is_stmt 0
	movq	16(%rsp), %rax
	.loc	13 276 68
	movq	%rax, 64(%rsp)
	movq	64(%rsp), %rcx
	movq	%rcx, (%rsp)
	.loc	13 0 68
	movq	(%rsp), %rax
	.loc	13 276 18
	movq	%rax, 24(%rsp)
	movq	8(%rsp), %rcx
	movq	%rcx, 32(%rsp)
	.loc	13 277 6 is_stmt 1
	movq	24(%rsp), %rax
	movq	32(%rsp), %rdx
	addq	$72, %rsp
	.cfi_def_cfa_offset 8
	retq
.Ltmp255:
.Lfunc_end25:
	.size	_ZN4core3fmt10ArgumentV13new17hb543176314b3b4bdE, .Lfunc_end25-_ZN4core3fmt10ArgumentV13new17hb543176314b3b4bdE
	.cfi_endproc

	.section	.text._ZN4core3fmt9Arguments6new_v117h2bf324f8b5faa4e9E,"ax",@progbits
	.p2align	4, 0x90
	.type	_ZN4core3fmt9Arguments6new_v117h2bf324f8b5faa4e9E,@function
_ZN4core3fmt9Arguments6new_v117h2bf324f8b5faa4e9E:
.Lfunc_begin26:
	.loc	13 313 0
	.cfi_startproc
	subq	$48, %rsp
	.cfi_def_cfa_offset 56
	movq	%rdi, %rax
	movq	%rsi, 16(%rsp)
	movq	%rdx, 24(%rsp)
	movq	%rcx, 32(%rsp)
	movq	%r8, 40(%rsp)
.Ltmp256:
	.loc	13 314 34 prologue_end
	movq	$0, (%rsp)
	.loc	13 314 9 is_stmt 0
	movq	%rsi, (%rdi)
	movq	%rdx, 8(%rdi)
	movq	(%rsp), %rdx
	movq	8(%rsp), %rsi
	movq	%rdx, 16(%rdi)
	movq	%rsi, 24(%rdi)
	movq	%rcx, 32(%rdi)
	movq	%r8, 40(%rdi)
	.loc	13 315 6 is_stmt 1
	addq	$48, %rsp
	.cfi_def_cfa_offset 8
	retq
.Ltmp257:
.Lfunc_end26:
	.size	_ZN4core3fmt9Arguments6new_v117h2bf324f8b5faa4e9E, .Lfunc_end26-_ZN4core3fmt9Arguments6new_v117h2bf324f8b5faa4e9E
	.cfi_endproc

	.section	.text._ZN4core3mem11size_of_val17h588240576a9c732dE,"ax",@progbits
	.p2align	4, 0x90
	.type	_ZN4core3mem11size_of_val17h588240576a9c732dE,@function
_ZN4core3mem11size_of_val17h588240576a9c732dE:
.Lfunc_begin27:
	.file	14 "/rustc/e1884a8e3c3e813aada8254edfa120e85bf5ffca/library/core/src/mem/mod.rs"
	.loc	14 330 0
	.cfi_startproc
	subq	$24, %rsp
	.cfi_def_cfa_offset 32
	movq	%rdi, 8(%rsp)
.Ltmp258:
	.loc	14 331 5 prologue_end
	movq	$48, 16(%rsp)
	movq	16(%rsp), %rax
	movq	%rax, (%rsp)
	.loc	14 0 5 is_stmt 0
	movq	(%rsp), %rax
	.loc	14 332 2 is_stmt 1
	addq	$24, %rsp
	.cfi_def_cfa_offset 8
	retq
.Ltmp259:
.Lfunc_end27:
	.size	_ZN4core3mem11size_of_val17h588240576a9c732dE, .Lfunc_end27-_ZN4core3mem11size_of_val17h588240576a9c732dE
	.cfi_endproc

	.section	.text._ZN4core3mem11size_of_val17h59141d5bc94d811eE,"ax",@progbits
	.p2align	4, 0x90
	.type	_ZN4core3mem11size_of_val17h59141d5bc94d811eE,@function
_ZN4core3mem11size_of_val17h59141d5bc94d811eE:
.Lfunc_begin28:
	.loc	14 330 0
	.cfi_startproc
	subq	$24, %rsp
	.cfi_def_cfa_offset 32
	movq	%rdi, 8(%rsp)
.Ltmp260:
	.loc	14 331 5 prologue_end
	movq	$24, 16(%rsp)
	movq	16(%rsp), %rax
	movq	%rax, (%rsp)
	.loc	14 0 5 is_stmt 0
	movq	(%rsp), %rax
	.loc	14 332 2 is_stmt 1
	addq	$24, %rsp
	.cfi_def_cfa_offset 8
	retq
.Ltmp261:
.Lfunc_end28:
	.size	_ZN4core3mem11size_of_val17h59141d5bc94d811eE, .Lfunc_end28-_ZN4core3mem11size_of_val17h59141d5bc94d811eE
	.cfi_endproc

	.section	.text._ZN4core3mem11size_of_val17hdc4601225b2cbd07E,"ax",@progbits
	.p2align	4, 0x90
	.type	_ZN4core3mem11size_of_val17hdc4601225b2cbd07E,@function
_ZN4core3mem11size_of_val17hdc4601225b2cbd07E:
.Lfunc_begin29:
	.loc	14 330 0
	.cfi_startproc
	subq	$24, %rsp
	.cfi_def_cfa_offset 32
	movq	%rdi, 8(%rsp)
.Ltmp262:
	.loc	14 331 5 prologue_end
	movq	$40, 16(%rsp)
	movq	16(%rsp), %rax
	movq	%rax, (%rsp)
	.loc	14 0 5 is_stmt 0
	movq	(%rsp), %rax
	.loc	14 332 2 is_stmt 1
	addq	$24, %rsp
	.cfi_def_cfa_offset 8
	retq
.Ltmp263:
.Lfunc_end29:
	.size	_ZN4core3mem11size_of_val17hdc4601225b2cbd07E, .Lfunc_end29-_ZN4core3mem11size_of_val17hdc4601225b2cbd07E
	.cfi_endproc

	.section	.text._ZN4core3mem12align_of_val17h2ee4eec1ae021199E,"ax",@progbits
	.p2align	4, 0x90
	.type	_ZN4core3mem12align_of_val17h2ee4eec1ae021199E,@function
_ZN4core3mem12align_of_val17h2ee4eec1ae021199E:
.Lfunc_begin30:
	.loc	14 465 0
	.cfi_startproc
	subq	$24, %rsp
	.cfi_def_cfa_offset 32
	movq	%rdi, 8(%rsp)
.Ltmp264:
	.loc	14 466 5 prologue_end
	movq	$8, 16(%rsp)
	movq	16(%rsp), %rax
	movq	%rax, (%rsp)
	.loc	14 0 5 is_stmt 0
	movq	(%rsp), %rax
	.loc	14 467 2 is_stmt 1
	addq	$24, %rsp
	.cfi_def_cfa_offset 8
	retq
.Ltmp265:
.Lfunc_end30:
	.size	_ZN4core3mem12align_of_val17h2ee4eec1ae021199E, .Lfunc_end30-_ZN4core3mem12align_of_val17h2ee4eec1ae021199E
	.cfi_endproc

	.section	.text._ZN4core3mem12align_of_val17h62471a841c923c23E,"ax",@progbits
	.p2align	4, 0x90
	.type	_ZN4core3mem12align_of_val17h62471a841c923c23E,@function
_ZN4core3mem12align_of_val17h62471a841c923c23E:
.Lfunc_begin31:
	.loc	14 465 0
	.cfi_startproc
	subq	$24, %rsp
	.cfi_def_cfa_offset 32
	movq	%rdi, 8(%rsp)
.Ltmp266:
	.loc	14 466 5 prologue_end
	movq	$8, 16(%rsp)
	movq	16(%rsp), %rax
	movq	%rax, (%rsp)
	.loc	14 0 5 is_stmt 0
	movq	(%rsp), %rax
	.loc	14 467 2 is_stmt 1
	addq	$24, %rsp
	.cfi_def_cfa_offset 8
	retq
.Ltmp267:
.Lfunc_end31:
	.size	_ZN4core3mem12align_of_val17h62471a841c923c23E, .Lfunc_end31-_ZN4core3mem12align_of_val17h62471a841c923c23E
	.cfi_endproc

	.section	.text._ZN4core3mem12align_of_val17h7fec08a6d9f621b4E,"ax",@progbits
	.p2align	4, 0x90
	.type	_ZN4core3mem12align_of_val17h7fec08a6d9f621b4E,@function
_ZN4core3mem12align_of_val17h7fec08a6d9f621b4E:
.Lfunc_begin32:
	.loc	14 465 0
	.cfi_startproc
	subq	$24, %rsp
	.cfi_def_cfa_offset 32
	movq	%rdi, 8(%rsp)
.Ltmp268:
	.loc	14 466 5 prologue_end
	movq	$8, 16(%rsp)
	movq	16(%rsp), %rax
	movq	%rax, (%rsp)
	.loc	14 0 5 is_stmt 0
	movq	(%rsp), %rax
	.loc	14 467 2 is_stmt 1
	addq	$24, %rsp
	.cfi_def_cfa_offset 8
	retq
.Ltmp269:
.Lfunc_end32:
	.size	_ZN4core3mem12align_of_val17h7fec08a6d9f621b4E, .Lfunc_end32-_ZN4core3mem12align_of_val17h7fec08a6d9f621b4E
	.cfi_endproc

	.section	".text._ZN4core3mem13manually_drop21ManuallyDrop$LT$T$GT$4take17h46f1b6f5cbba46bfE","ax",@progbits
	.p2align	4, 0x90
	.type	_ZN4core3mem13manually_drop21ManuallyDrop$LT$T$GT$4take17h46f1b6f5cbba46bfE,@function
_ZN4core3mem13manually_drop21ManuallyDrop$LT$T$GT$4take17h46f1b6f5cbba46bfE:
.Lfunc_begin33:
	.loc	9 109 0
	.cfi_startproc
	subq	$24, %rsp
	.cfi_def_cfa_offset 32
	movq	%rdi, 16(%rsp)
.Ltmp270:
	.loc	9 112 18 prologue_end
	callq	_ZN4core3ptr4read17h3d86881979b5aa34E
	movq	%rax, 8(%rsp)
	.loc	9 0 18 is_stmt 0
	movq	8(%rsp), %rax
	.loc	9 113 6 is_stmt 1
	addq	$24, %rsp
	.cfi_def_cfa_offset 8
	retq
.Ltmp271:
.Lfunc_end33:
	.size	_ZN4core3mem13manually_drop21ManuallyDrop$LT$T$GT$4take17h46f1b6f5cbba46bfE, .Lfunc_end33-_ZN4core3mem13manually_drop21ManuallyDrop$LT$T$GT$4take17h46f1b6f5cbba46bfE
	.cfi_endproc

	.section	.text._ZN4core3mem4drop17h54591621facf00c0E,"ax",@progbits
	.p2align	4, 0x90
	.type	_ZN4core3mem4drop17h54591621facf00c0E,@function
_ZN4core3mem4drop17h54591621facf00c0E:
.Lfunc_begin34:
	.loc	14 882 0
	.cfi_startproc
	pushq	%rax
	.cfi_def_cfa_offset 16
	movq	%rdi, (%rsp)
.Ltmp272:
	.loc	14 882 24 prologue_end
	movq	%rsp, %rdi
.Ltmp273:
	callq	_ZN4core3ptr13drop_in_place17hf26cf63f19488079E
.Ltmp274:
	.loc	14 882 25 is_stmt 0
	popq	%rax
	.cfi_def_cfa_offset 8
	retq
.Ltmp275:
.Lfunc_end34:
	.size	_ZN4core3mem4drop17h54591621facf00c0E, .Lfunc_end34-_ZN4core3mem4drop17h54591621facf00c0E
	.cfi_endproc

	.section	.text._ZN4core3mem4drop17hb6e8281d1cc9be8fE,"ax",@progbits
	.p2align	4, 0x90
	.type	_ZN4core3mem4drop17hb6e8281d1cc9be8fE,@function
_ZN4core3mem4drop17hb6e8281d1cc9be8fE:
.Lfunc_begin35:
	.loc	14 882 0 is_stmt 1
	.cfi_startproc
	pushq	%rax
	.cfi_def_cfa_offset 16
	movq	%rdi, (%rsp)
.Ltmp276:
	.loc	14 882 24 prologue_end
	movq	%rsp, %rdi
.Ltmp277:
	callq	_ZN4core3ptr13drop_in_place17hf59a65104a070924E
.Ltmp278:
	.loc	14 882 25 is_stmt 0
	popq	%rax
	.cfi_def_cfa_offset 8
	retq
.Ltmp279:
.Lfunc_end35:
	.size	_ZN4core3mem4drop17hb6e8281d1cc9be8fE, .Lfunc_end35-_ZN4core3mem4drop17hb6e8281d1cc9be8fE
	.cfi_endproc

	.section	.text._ZN4core3mem4drop17hfbfc7da46c6fcc8eE,"ax",@progbits
	.p2align	4, 0x90
	.type	_ZN4core3mem4drop17hfbfc7da46c6fcc8eE,@function
_ZN4core3mem4drop17hfbfc7da46c6fcc8eE:
.Lfunc_begin36:
	.loc	14 882 0 is_stmt 1
	.cfi_startproc
	pushq	%rax
	.cfi_def_cfa_offset 16
	movq	%rdi, (%rsp)
.Ltmp280:
	.loc	14 882 24 prologue_end
	movq	%rsp, %rdi
.Ltmp281:
	callq	_ZN4core3ptr13drop_in_place17h4a20c811e2aace86E
.Ltmp282:
	.loc	14 882 25 is_stmt 0
	popq	%rax
	.cfi_def_cfa_offset 8
	retq
.Ltmp283:
.Lfunc_end36:
	.size	_ZN4core3mem4drop17hfbfc7da46c6fcc8eE, .Lfunc_end36-_ZN4core3mem4drop17hfbfc7da46c6fcc8eE
	.cfi_endproc

	.section	.text._ZN4core3mem4swap17h62608ad134ef51e5E,"ax",@progbits
	.p2align	4, 0x90
	.type	_ZN4core3mem4swap17h62608ad134ef51e5E,@function
_ZN4core3mem4swap17h62608ad134ef51e5E:
.Lfunc_begin37:
	.loc	14 684 0 is_stmt 1
	.cfi_startproc
	subq	$24, %rsp
	.cfi_def_cfa_offset 32
	movq	%rdi, 8(%rsp)
	movq	%rsi, 16(%rsp)
.Ltmp284:
	.loc	14 688 9 prologue_end
	callq	_ZN4core3ptr23swap_nonoverlapping_one17hccb5249a521e02ddE
	.loc	14 690 2
	addq	$24, %rsp
	.cfi_def_cfa_offset 8
	retq
.Ltmp285:
.Lfunc_end37:
	.size	_ZN4core3mem4swap17h62608ad134ef51e5E, .Lfunc_end37-_ZN4core3mem4swap17h62608ad134ef51e5E
	.cfi_endproc

	.section	.text._ZN4core3mem4swap17h7897dea0306debd0E,"ax",@progbits
	.p2align	4, 0x90
	.type	_ZN4core3mem4swap17h7897dea0306debd0E,@function
_ZN4core3mem4swap17h7897dea0306debd0E:
.Lfunc_begin38:
	.loc	14 684 0
	.cfi_startproc
	subq	$24, %rsp
	.cfi_def_cfa_offset 32
	movq	%rdi, 8(%rsp)
	movq	%rsi, 16(%rsp)
.Ltmp286:
	.loc	14 688 9 prologue_end
	callq	_ZN4core3ptr23swap_nonoverlapping_one17h74cca2bf20f48b58E
	.loc	14 690 2
	addq	$24, %rsp
	.cfi_def_cfa_offset 8
	retq
.Ltmp287:
.Lfunc_end38:
	.size	_ZN4core3mem4swap17h7897dea0306debd0E, .Lfunc_end38-_ZN4core3mem4swap17h7897dea0306debd0E
	.cfi_endproc

	.section	.text._ZN4core3mem4swap17h8e21ae22dfabda04E,"ax",@progbits
	.p2align	4, 0x90
	.type	_ZN4core3mem4swap17h8e21ae22dfabda04E,@function
_ZN4core3mem4swap17h8e21ae22dfabda04E:
.Lfunc_begin39:
	.loc	14 684 0
	.cfi_startproc
	subq	$24, %rsp
	.cfi_def_cfa_offset 32
	movq	%rdi, 8(%rsp)
	movq	%rsi, 16(%rsp)
.Ltmp288:
	.loc	14 688 9 prologue_end
	callq	_ZN4core3ptr23swap_nonoverlapping_one17h3f892083adf61238E
	.loc	14 690 2
	addq	$24, %rsp
	.cfi_def_cfa_offset 8
	retq
.Ltmp289:
.Lfunc_end39:
	.size	_ZN4core3mem4swap17h8e21ae22dfabda04E, .Lfunc_end39-_ZN4core3mem4swap17h8e21ae22dfabda04E
	.cfi_endproc

	.section	.text._ZN4core3mem4take17h4346e1b24b5afa1dE,"ax",@progbits
	.p2align	4, 0x90
	.type	_ZN4core3mem4take17h4346e1b24b5afa1dE,@function
_ZN4core3mem4take17h4346e1b24b5afa1dE:
.Lfunc_begin40:
	.loc	14 749 0
	.cfi_startproc
	subq	$56, %rsp
	.cfi_def_cfa_offset 64
	movq	%rdi, %rax
	movq	%rsi, 48(%rsp)
.Ltmp290:
	.loc	14 750 19 prologue_end
	leaq	24(%rsp), %rcx
	movq	%rdi, 16(%rsp)
	movq	%rcx, %rdi
	movq	%rsi, 8(%rsp)
	movq	%rax, (%rsp)
	callq	_ZN72_$LT$core..option..Option$LT$T$GT$$u20$as$u20$core..default..Default$GT$7default17h7cb80a56b9aafda1E
	.loc	14 0 19 is_stmt 0
	movq	16(%rsp), %rdi
	movq	8(%rsp), %rsi
	.loc	14 750 5
	leaq	24(%rsp), %rdx
	callq	_ZN4core3mem7replace17h79f3e5b5d074c9e7E
	.loc	14 0 5
	movq	(%rsp), %rax
	.loc	14 751 2 is_stmt 1
	addq	$56, %rsp
	.cfi_def_cfa_offset 8
	retq
.Ltmp291:
.Lfunc_end40:
	.size	_ZN4core3mem4take17h4346e1b24b5afa1dE, .Lfunc_end40-_ZN4core3mem4take17h4346e1b24b5afa1dE
	.cfi_endproc

	.section	.text._ZN4core3mem4take17h9aa33216fa618eb3E,"ax",@progbits
	.p2align	4, 0x90
	.type	_ZN4core3mem4take17h9aa33216fa618eb3E,@function
_ZN4core3mem4take17h9aa33216fa618eb3E:
.Lfunc_begin41:
	.loc	14 749 0
	.cfi_startproc
	subq	$56, %rsp
	.cfi_def_cfa_offset 64
	movq	%rdi, 48(%rsp)
	movq	%rdi, 40(%rsp)
.Ltmp292:
	.loc	14 750 19 prologue_end
	callq	_ZN72_$LT$core..option..Option$LT$T$GT$$u20$as$u20$core..default..Default$GT$7default17h929952073d367638E
	movq	%rax, 32(%rsp)
	movq	%rdx, 24(%rsp)
	.loc	14 0 19 is_stmt 0
	movq	40(%rsp), %rdi
	movq	32(%rsp), %rsi
	movq	24(%rsp), %rdx
	.loc	14 750 5
	callq	_ZN4core3mem7replace17hbdc405445740502bE
	movq	%rax, 16(%rsp)
	movq	%rdx, 8(%rsp)
	.loc	14 0 5
	movq	16(%rsp), %rax
	movq	8(%rsp), %rdx
	.loc	14 751 2 is_stmt 1
	addq	$56, %rsp
	.cfi_def_cfa_offset 8
	retq
.Ltmp293:
.Lfunc_end41:
	.size	_ZN4core3mem4take17h9aa33216fa618eb3E, .Lfunc_end41-_ZN4core3mem4take17h9aa33216fa618eb3E
	.cfi_endproc

	.section	.text._ZN4core3mem7replace17h5e1d35c06e688d0cE,"ax",@progbits
	.p2align	4, 0x90
	.type	_ZN4core3mem7replace17h5e1d35c06e688d0cE,@function
_ZN4core3mem7replace17h5e1d35c06e688d0cE:
.Lfunc_begin42:
	.loc	14 814 0
	.cfi_startproc
	.cfi_personality 155, DW.ref.rust_eh_personality
	.cfi_lsda 27, .Lexception6
	subq	$40, %rsp
	.cfi_def_cfa_offset 48
	movq	%rsi, 8(%rsp)
	movq	%rdi, 16(%rsp)
.Ltmp294:
	leaq	8(%rsp), %rsi
.Ltmp297:
	.loc	14 815 5 prologue_end
	callq	_ZN4core3mem4swap17h8e21ae22dfabda04E
.Ltmp295:
	jmp	.LBB42_1
.LBB42_1:
	.loc	14 816 5
	movq	8(%rsp), %rax
	.loc	14 817 2
	addq	$40, %rsp
	.cfi_def_cfa_offset 8
	retq
.LBB42_2:
	.cfi_def_cfa_offset 48
	.loc	14 817 1 is_stmt 0
	jmp	.LBB42_3
.LBB42_3:
	.loc	14 814 1 is_stmt 1
	movq	24(%rsp), %rdi
	callq	_Unwind_Resume@PLT
	ud2
.Ltmp298:
.LBB42_4:
.Ltmp296:
	.loc	14 0 1 is_stmt 0
	movq	%rax, 24(%rsp)
	movl	%edx, 32(%rsp)
	jmp	.LBB42_2
.Lfunc_end42:
	.size	_ZN4core3mem7replace17h5e1d35c06e688d0cE, .Lfunc_end42-_ZN4core3mem7replace17h5e1d35c06e688d0cE
	.cfi_endproc
	.section	.gcc_except_table,"a",@progbits
	.p2align	2
GCC_except_table42:
.Lexception6:
	.byte	255
	.byte	255
	.byte	1
	.uleb128 .Lcst_end6-.Lcst_begin6
.Lcst_begin6:
	.uleb128 .Ltmp294-.Lfunc_begin42
	.uleb128 .Ltmp295-.Ltmp294
	.uleb128 .Ltmp296-.Lfunc_begin42
	.byte	0
	.uleb128 .Ltmp295-.Lfunc_begin42
	.uleb128 .Lfunc_end42-.Ltmp295
	.byte	0
	.byte	0
.Lcst_end6:
	.p2align	2

	.section	.text._ZN4core3mem7replace17h79f3e5b5d074c9e7E,"ax",@progbits
	.p2align	4, 0x90
	.type	_ZN4core3mem7replace17h79f3e5b5d074c9e7E,@function
_ZN4core3mem7replace17h79f3e5b5d074c9e7E:
.Lfunc_begin43:
	.loc	14 814 0 is_stmt 1
	.cfi_startproc
	.cfi_personality 155, DW.ref.rust_eh_personality
	.cfi_lsda 27, .Lexception7
	subq	$56, %rsp
	.cfi_def_cfa_offset 64
	movq	%rdi, %rax
	movq	%rsi, 32(%rsp)
.Ltmp299:
	movq	%rdi, 24(%rsp)
.Ltmp302:
	.loc	14 815 5 prologue_end
	movq	%rsi, %rdi
	movq	%rdx, %rsi
	movq	%rdx, 16(%rsp)
.Ltmp303:
	.loc	14 0 5 is_stmt 0
	movq	%rax, 8(%rsp)
	.loc	14 815 5
	callq	_ZN4core3mem4swap17h62608ad134ef51e5E
.Ltmp300:
	jmp	.LBB43_1
.Ltmp304:
.LBB43_1:
	.loc	14 0 5
	movq	16(%rsp), %rax
	.loc	14 816 5 is_stmt 1
	movq	(%rax), %rcx
	movq	24(%rsp), %rdx
	movq	%rcx, (%rdx)
	movq	8(%rax), %rcx
	movq	%rcx, 8(%rdx)
	movq	16(%rax), %rcx
	movq	%rcx, 16(%rdx)
	movq	8(%rsp), %rax
	.loc	14 817 2
	addq	$56, %rsp
	.cfi_def_cfa_offset 8
	retq
.Ltmp305:
.LBB43_2:
	.cfi_def_cfa_offset 64
	.loc	14 0 2 is_stmt 0
	movq	16(%rsp), %rdi
	.loc	14 817 1
	callq	_ZN4core3ptr13drop_in_place17h6c3888401d8c2047E
.Ltmp306:
	.loc	14 814 1 is_stmt 1
	movq	40(%rsp), %rdi
	callq	_Unwind_Resume@PLT
	ud2
.Ltmp307:
.LBB43_4:
.Ltmp301:
	.loc	14 0 1 is_stmt 0
	movq	%rax, 40(%rsp)
	movl	%edx, 48(%rsp)
	jmp	.LBB43_2
.Lfunc_end43:
	.size	_ZN4core3mem7replace17h79f3e5b5d074c9e7E, .Lfunc_end43-_ZN4core3mem7replace17h79f3e5b5d074c9e7E
	.cfi_endproc
	.section	.gcc_except_table,"a",@progbits
	.p2align	2
GCC_except_table43:
.Lexception7:
	.byte	255
	.byte	255
	.byte	1
	.uleb128 .Lcst_end7-.Lcst_begin7
.Lcst_begin7:
	.uleb128 .Ltmp299-.Lfunc_begin43
	.uleb128 .Ltmp300-.Ltmp299
	.uleb128 .Ltmp301-.Lfunc_begin43
	.byte	0
	.uleb128 .Ltmp300-.Lfunc_begin43
	.uleb128 .Lfunc_end43-.Ltmp300
	.byte	0
	.byte	0
.Lcst_end7:
	.p2align	2

	.section	.text._ZN4core3mem7replace17hbdc405445740502bE,"ax",@progbits
	.p2align	4, 0x90
	.type	_ZN4core3mem7replace17hbdc405445740502bE,@function
_ZN4core3mem7replace17hbdc405445740502bE:
.Lfunc_begin44:
	.loc	14 814 0 is_stmt 1
	.cfi_startproc
	.cfi_personality 155, DW.ref.rust_eh_personality
	.cfi_lsda 27, .Lexception8
	subq	$40, %rsp
	.cfi_def_cfa_offset 48
	movq	%rsi, (%rsp)
	movq	%rdx, 8(%rsp)
	movq	%rdi, 16(%rsp)
.Ltmp308:
	movq	%rsp, %rsi
.Ltmp311:
	.loc	14 815 5 prologue_end
	callq	_ZN4core3mem4swap17h7897dea0306debd0E
.Ltmp309:
	jmp	.LBB44_1
.LBB44_1:
	.loc	14 816 5
	movq	(%rsp), %rax
	movq	8(%rsp), %rdx
	.loc	14 817 2
	addq	$40, %rsp
	.cfi_def_cfa_offset 8
	retq
.LBB44_2:
	.cfi_def_cfa_offset 48
	.loc	14 817 1 is_stmt 0
	movq	%rsp, %rdi
	callq	_ZN4core3ptr13drop_in_place17haa991661459d814bE
	.loc	14 814 1 is_stmt 1
	movq	24(%rsp), %rdi
	callq	_Unwind_Resume@PLT
	ud2
.Ltmp312:
.LBB44_4:
.Ltmp310:
	.loc	14 0 1 is_stmt 0
	movq	%rax, 24(%rsp)
	movl	%edx, 32(%rsp)
	jmp	.LBB44_2
.Lfunc_end44:
	.size	_ZN4core3mem7replace17hbdc405445740502bE, .Lfunc_end44-_ZN4core3mem7replace17hbdc405445740502bE
	.cfi_endproc
	.section	.gcc_except_table,"a",@progbits
	.p2align	2
GCC_except_table44:
.Lexception8:
	.byte	255
	.byte	255
	.byte	1
	.uleb128 .Lcst_end8-.Lcst_begin8
.Lcst_begin8:
	.uleb128 .Ltmp308-.Lfunc_begin44
	.uleb128 .Ltmp309-.Ltmp308
	.uleb128 .Ltmp310-.Lfunc_begin44
	.byte	0
	.uleb128 .Ltmp309-.Lfunc_begin44
	.uleb128 .Lfunc_end44-.Ltmp309
	.byte	0
	.byte	0
.Lcst_end8:
	.p2align	2

	.section	".text._ZN4core3num21_$LT$impl$u20$i64$GT$13unchecked_add17hcd9fc0943f051ce0E","ax",@progbits
	.p2align	4, 0x90
	.type	_ZN4core3num21_$LT$impl$u20$i64$GT$13unchecked_add17hcd9fc0943f051ce0E,@function
_ZN4core3num21_$LT$impl$u20$i64$GT$13unchecked_add17hcd9fc0943f051ce0E:
.Lfunc_begin45:
	.file	15 "/rustc/e1884a8e3c3e813aada8254edfa120e85bf5ffca/library/core/src/num/int_macros.rs"
	.loc	15 473 0 is_stmt 1
	.cfi_startproc
	subq	$32, %rsp
	.cfi_def_cfa_offset 40
	movq	%rdi, 8(%rsp)
	movq	%rsi, 16(%rsp)
.Ltmp313:
	.loc	15 476 26 prologue_end
	addq	%rsi, %rdi
	movq	%rdi, 24(%rsp)
	movq	24(%rsp), %rax
	movq	%rax, (%rsp)
	.loc	15 0 26 is_stmt 0
	movq	(%rsp), %rax
	.loc	15 477 14 is_stmt 1
	addq	$32, %rsp
	.cfi_def_cfa_offset 8
	retq
.Ltmp314:
.Lfunc_end45:
	.size	_ZN4core3num21_$LT$impl$u20$i64$GT$13unchecked_add17hcd9fc0943f051ce0E, .Lfunc_end45-_ZN4core3num21_$LT$impl$u20$i64$GT$13unchecked_add17hcd9fc0943f051ce0E
	.cfi_endproc

	.section	.text._ZN4core3num7nonzero12NonZeroUsize13new_unchecked17hc840211968914537E,"ax",@progbits
	.p2align	4, 0x90
	.type	_ZN4core3num7nonzero12NonZeroUsize13new_unchecked17hc840211968914537E,@function
_ZN4core3num7nonzero12NonZeroUsize13new_unchecked17hc840211968914537E:
.Lfunc_begin46:
	.file	16 "/rustc/e1884a8e3c3e813aada8254edfa120e85bf5ffca/library/core/src/num/nonzero.rs"
	.loc	16 62 0
	.cfi_startproc
	subq	$16, %rsp
	.cfi_def_cfa_offset 24
	movq	%rdi, 8(%rsp)
.Ltmp315:
	.loc	16 64 30 prologue_end
	movq	%rdi, (%rsp)
	.loc	16 65 18
	movq	(%rsp), %rax
	addq	$16, %rsp
	.cfi_def_cfa_offset 8
	retq
.Ltmp316:
.Lfunc_end46:
	.size	_ZN4core3num7nonzero12NonZeroUsize13new_unchecked17hc840211968914537E, .Lfunc_end46-_ZN4core3num7nonzero12NonZeroUsize13new_unchecked17hc840211968914537E
	.cfi_endproc

	.section	.text._ZN4core3num7nonzero12NonZeroUsize3get17hbb7c27fe040c733bE,"ax",@progbits
	.p2align	4, 0x90
	.type	_ZN4core3num7nonzero12NonZeroUsize3get17hbb7c27fe040c733bE,@function
_ZN4core3num7nonzero12NonZeroUsize3get17hbb7c27fe040c733bE:
.Lfunc_begin47:
	.loc	16 84 0
	.cfi_startproc
	pushq	%rax
	.cfi_def_cfa_offset 16
	movq	%rdi, (%rsp)
.Ltmp317:
	.loc	16 86 18 prologue_end
	movq	%rdi, %rax
	popq	%rcx
	.cfi_def_cfa_offset 8
	retq
.Ltmp318:
.Lfunc_end47:
	.size	_ZN4core3num7nonzero12NonZeroUsize3get17hbb7c27fe040c733bE, .Lfunc_end47-_ZN4core3num7nonzero12NonZeroUsize3get17hbb7c27fe040c733bE
	.cfi_endproc

	.section	".text._ZN4core3ops8function6FnOnce40call_once$u7b$$u7b$vtable.shim$u7d$$u7d$17h9fae472b5444f100E","ax",@progbits
	.p2align	4, 0x90
	.type	_ZN4core3ops8function6FnOnce40call_once$u7b$$u7b$vtable.shim$u7d$$u7d$17h9fae472b5444f100E,@function
_ZN4core3ops8function6FnOnce40call_once$u7b$$u7b$vtable.shim$u7d$$u7d$17h9fae472b5444f100E:
.Lfunc_begin48:
	.file	17 "/rustc/e1884a8e3c3e813aada8254edfa120e85bf5ffca/library/core/src/ops/function.rs"
	.loc	17 227 0
	.cfi_startproc
	subq	$24, %rsp
	.cfi_def_cfa_offset 32
	movq	%rdi, 16(%rsp)
.Ltmp319:
	.loc	17 227 5 prologue_end
	movq	(%rdi), %rdi
	callq	_ZN4core3ops8function6FnOnce9call_once17h7c5a4dc798f36506E
	movl	%eax, 4(%rsp)
	.loc	17 0 5 is_stmt 0
	movl	4(%rsp), %eax
	.loc	17 227 5
	addq	$24, %rsp
	.cfi_def_cfa_offset 8
	retq
.Ltmp320:
.Lfunc_end48:
	.size	_ZN4core3ops8function6FnOnce40call_once$u7b$$u7b$vtable.shim$u7d$$u7d$17h9fae472b5444f100E, .Lfunc_end48-_ZN4core3ops8function6FnOnce40call_once$u7b$$u7b$vtable.shim$u7d$$u7d$17h9fae472b5444f100E
	.cfi_endproc

	.section	".text._ZN4core3ops8function6FnOnce40call_once$u7b$$u7b$vtable.shim$u7d$$u7d$17hd8ed70485a21fe51E","ax",@progbits
	.p2align	4, 0x90
	.type	_ZN4core3ops8function6FnOnce40call_once$u7b$$u7b$vtable.shim$u7d$$u7d$17hd8ed70485a21fe51E,@function
_ZN4core3ops8function6FnOnce40call_once$u7b$$u7b$vtable.shim$u7d$$u7d$17hd8ed70485a21fe51E:
.Lfunc_begin49:
	.loc	17 227 0 is_stmt 1
	.cfi_startproc
	subq	$24, %rsp
	.cfi_def_cfa_offset 32
	movq	%rdi, 16(%rsp)
.Ltmp321:
	.loc	17 227 5 prologue_end
	callq	_ZN3std6thread7Builder15spawn_unchecked28_$u7b$$u7b$closure$u7d$$u7d$17h2ba93ba7c6792519E
	addq	$24, %rsp
	.cfi_def_cfa_offset 8
	retq
.Ltmp322:
.Lfunc_end49:
	.size	_ZN4core3ops8function6FnOnce40call_once$u7b$$u7b$vtable.shim$u7d$$u7d$17hd8ed70485a21fe51E, .Lfunc_end49-_ZN4core3ops8function6FnOnce40call_once$u7b$$u7b$vtable.shim$u7d$$u7d$17hd8ed70485a21fe51E
	.cfi_endproc

	.section	.text._ZN4core3ops8function6FnOnce9call_once17h7c5a4dc798f36506E,"ax",@progbits
	.p2align	4, 0x90
	.type	_ZN4core3ops8function6FnOnce9call_once17h7c5a4dc798f36506E,@function
_ZN4core3ops8function6FnOnce9call_once17h7c5a4dc798f36506E:
.Lfunc_begin50:
	.loc	17 227 0
	.cfi_startproc
	.cfi_personality 155, DW.ref.rust_eh_personality
	.cfi_lsda 27, .Lexception9
	subq	$40, %rsp
	.cfi_def_cfa_offset 48
	movq	%rdi, 8(%rsp)
.Ltmp323:
	leaq	8(%rsp), %rdi
.Ltmp326:
	.loc	17 227 5 prologue_end
	callq	_ZN3std2rt10lang_start28_$u7b$$u7b$closure$u7d$$u7d$17h1ae909cf83e6df6aE
.Ltmp324:
	movl	%eax, 4(%rsp)
	jmp	.LBB50_1
.LBB50_1:
	jmp	.LBB50_2
.LBB50_2:
	.loc	17 0 5 is_stmt 0
	movl	4(%rsp), %eax
	.loc	17 227 5
	addq	$40, %rsp
	.cfi_def_cfa_offset 8
	retq
.LBB50_3:
	.cfi_def_cfa_offset 48
	jmp	.LBB50_4
.LBB50_4:
	movq	24(%rsp), %rdi
	callq	_Unwind_Resume@PLT
	ud2
.Ltmp327:
.LBB50_5:
.Ltmp325:
	.loc	17 0 5
	movq	%rax, 24(%rsp)
	movl	%edx, 32(%rsp)
	jmp	.LBB50_3
.Lfunc_end50:
	.size	_ZN4core3ops8function6FnOnce9call_once17h7c5a4dc798f36506E, .Lfunc_end50-_ZN4core3ops8function6FnOnce9call_once17h7c5a4dc798f36506E
	.cfi_endproc
	.section	.gcc_except_table,"a",@progbits
	.p2align	2
GCC_except_table50:
.Lexception9:
	.byte	255
	.byte	255
	.byte	1
	.uleb128 .Lcst_end9-.Lcst_begin9
.Lcst_begin9:
	.uleb128 .Ltmp323-.Lfunc_begin50
	.uleb128 .Ltmp324-.Ltmp323
	.uleb128 .Ltmp325-.Lfunc_begin50
	.byte	0
	.uleb128 .Ltmp324-.Lfunc_begin50
	.uleb128 .Lfunc_end50-.Ltmp324
	.byte	0
	.byte	0
.Lcst_end9:
	.p2align	2

	.section	.text._ZN4core3ops8function6FnOnce9call_once17h90dd49f12103d997E,"ax",@progbits
	.p2align	4, 0x90
	.type	_ZN4core3ops8function6FnOnce9call_once17h90dd49f12103d997E,@function
_ZN4core3ops8function6FnOnce9call_once17h90dd49f12103d997E:
.Lfunc_begin51:
	.loc	17 227 0 is_stmt 1
	.cfi_startproc
	subq	$24, %rsp
	.cfi_def_cfa_offset 32
	movq	%rdi, 16(%rsp)
.Ltmp328:
	.loc	17 227 5 prologue_end
	callq	*%rdi
	addq	$24, %rsp
	.cfi_def_cfa_offset 8
	retq
.Ltmp329:
.Lfunc_end51:
	.size	_ZN4core3ops8function6FnOnce9call_once17h90dd49f12103d997E, .Lfunc_end51-_ZN4core3ops8function6FnOnce9call_once17h90dd49f12103d997E
	.cfi_endproc

	.section	.text._ZN4core3ops8function6FnOnce9call_once17h91f66a5e473401aeE,"ax",@progbits
	.p2align	4, 0x90
	.type	_ZN4core3ops8function6FnOnce9call_once17h91f66a5e473401aeE,@function
_ZN4core3ops8function6FnOnce9call_once17h91f66a5e473401aeE:
.Lfunc_begin52:
	.loc	17 227 0
	.cfi_startproc
	subq	$24, %rsp
	.cfi_def_cfa_offset 32
.Ltmp330:
	.loc	17 227 5 prologue_end
	callq	*_ZN3std10sys_common6thread9min_stack17ha8d435787c72edd6E@GOTPCREL(%rip)
	movq	%rax, (%rsp)
	.loc	17 0 5 is_stmt 0
	movq	(%rsp), %rax
	.loc	17 227 5
	addq	$24, %rsp
	.cfi_def_cfa_offset 8
	retq
.Ltmp331:
.Lfunc_end52:
	.size	_ZN4core3ops8function6FnOnce9call_once17h91f66a5e473401aeE, .Lfunc_end52-_ZN4core3ops8function6FnOnce9call_once17h91f66a5e473401aeE
	.cfi_endproc

	.section	.text._ZN4core3ptr13drop_in_place17h0209f58ef1a0925cE,"ax",@progbits
	.p2align	4, 0x90
	.type	_ZN4core3ptr13drop_in_place17h0209f58ef1a0925cE,@function
_ZN4core3ptr13drop_in_place17h0209f58ef1a0925cE:
.Lfunc_begin53:
	.file	18 "/rustc/e1884a8e3c3e813aada8254edfa120e85bf5ffca/library/core/src/ptr/mod.rs"
	.loc	18 175 0 is_stmt 1
	.cfi_startproc
	subq	$24, %rsp
	.cfi_def_cfa_offset 32
	movq	%rdi, 16(%rsp)
.Ltmp332:
	.loc	18 175 1 prologue_end
	callq	_ZN4core3ptr13drop_in_place17hd19c71b88e15c34dE
	addq	$24, %rsp
	.cfi_def_cfa_offset 8
	retq
.Ltmp333:
.Lfunc_end53:
	.size	_ZN4core3ptr13drop_in_place17h0209f58ef1a0925cE, .Lfunc_end53-_ZN4core3ptr13drop_in_place17h0209f58ef1a0925cE
	.cfi_endproc

	.section	.text._ZN4core3ptr13drop_in_place17h11ee47568757b39eE,"ax",@progbits
	.p2align	4, 0x90
	.type	_ZN4core3ptr13drop_in_place17h11ee47568757b39eE,@function
_ZN4core3ptr13drop_in_place17h11ee47568757b39eE:
.Lfunc_begin54:
	.loc	18 175 0
	.cfi_startproc
	subq	$24, %rsp
	.cfi_def_cfa_offset 32
	movq	%rdi, 16(%rsp)
.Ltmp334:
	.loc	18 175 1 prologue_end
	callq	_ZN4core3ptr13drop_in_place17h8fedf842870991bcE
	addq	$24, %rsp
	.cfi_def_cfa_offset 8
	retq
.Ltmp335:
.Lfunc_end54:
	.size	_ZN4core3ptr13drop_in_place17h11ee47568757b39eE, .Lfunc_end54-_ZN4core3ptr13drop_in_place17h11ee47568757b39eE
	.cfi_endproc

	.section	.text._ZN4core3ptr13drop_in_place17h1665cb471f104fd3E,"ax",@progbits
	.p2align	4, 0x90
	.type	_ZN4core3ptr13drop_in_place17h1665cb471f104fd3E,@function
_ZN4core3ptr13drop_in_place17h1665cb471f104fd3E:
.Lfunc_begin55:
	.loc	18 175 0
	.cfi_startproc
	subq	$24, %rsp
	.cfi_def_cfa_offset 32
	movq	%rdi, 16(%rsp)
.Ltmp336:
	.loc	18 175 1 prologue_end
	movb	(%rdi), %al
	subb	$1, %al
	movq	%rdi, (%rsp)
	ja	.LBB55_2
	jmp	.LBB55_1
.LBB55_1:
	addq	$24, %rsp
	.cfi_def_cfa_offset 8
	retq
.LBB55_2:
	.cfi_def_cfa_offset 32
	.loc	18 0 1 is_stmt 0
	movq	(%rsp), %rax
	.loc	18 175 1
	addq	$8, %rax
	movq	%rax, %rdi
	callq	_ZN4core3ptr13drop_in_place17h2057c8817d53d96eE
	jmp	.LBB55_1
.Ltmp337:
.Lfunc_end55:
	.size	_ZN4core3ptr13drop_in_place17h1665cb471f104fd3E, .Lfunc_end55-_ZN4core3ptr13drop_in_place17h1665cb471f104fd3E
	.cfi_endproc

	.section	.text._ZN4core3ptr13drop_in_place17h1823768c24b54923E,"ax",@progbits
	.p2align	4, 0x90
	.type	_ZN4core3ptr13drop_in_place17h1823768c24b54923E,@function
_ZN4core3ptr13drop_in_place17h1823768c24b54923E:
.Lfunc_begin56:
	.loc	18 175 0 is_stmt 1
	.cfi_startproc
	.cfi_personality 155, DW.ref.rust_eh_personality
	.cfi_lsda 27, .Lexception10
	subq	$40, %rsp
	.cfi_def_cfa_offset 48
	movq	%rdi, 16(%rsp)
.Ltmp338:
	movq	%rdi, (%rsp)
.Ltmp350:
	.loc	18 175 1 prologue_end
	callq	_ZN4core3ptr13drop_in_place17h0209f58ef1a0925cE
.Ltmp339:
	jmp	.LBB56_10
.LBB56_1:
	movq	24(%rsp), %rdi
	callq	_Unwind_Resume@PLT
	ud2
.LBB56_2:
	addq	$40, %rsp
	.cfi_def_cfa_offset 8
	retq
.LBB56_3:
	.cfi_def_cfa_offset 48
	.loc	18 0 1 is_stmt 0
	movq	(%rsp), %rax
	.loc	18 175 1
	addq	$48, %rax
	movq	%rax, %rdi
	callq	_ZN4core3ptr13drop_in_place17h48a0c2cd1ecf88a5E
	jmp	.LBB56_1
.LBB56_4:
	.loc	18 0 1
	movq	(%rsp), %rax
	.loc	18 175 1
	addq	$40, %rax
	movq	%rax, %rdi
	callq	_ZN4core3ptr13drop_in_place17h509c0b136f844b88E
	jmp	.LBB56_3
.LBB56_5:
	.loc	18 0 1
	movq	(%rsp), %rax
	.loc	18 175 1
	addq	$24, %rax
	movq	%rax, %rdi
	callq	_ZN4core3ptr13drop_in_place17h7704956db62155c5E
	jmp	.LBB56_4
.LBB56_6:
	.loc	18 0 1
	movq	(%rsp), %rax
	.loc	18 175 1
	addq	$8, %rax
	movq	%rax, %rdi
	callq	_ZN4core3ptr13drop_in_place17h7704956db62155c5E
	jmp	.LBB56_5
.LBB56_7:
	.loc	18 0 1
	movq	(%rsp), %rax
	.loc	18 175 1
	addq	$48, %rax
	movq	%rax, %rdi
	callq	_ZN4core3ptr13drop_in_place17h48a0c2cd1ecf88a5E
	jmp	.LBB56_2
.LBB56_8:
	.loc	18 0 1
	movq	(%rsp), %rax
	.loc	18 175 1
	addq	$40, %rax
.Ltmp347:
	movq	%rax, %rdi
	callq	_ZN4core3ptr13drop_in_place17h509c0b136f844b88E
.Ltmp348:
	jmp	.LBB56_7
.LBB56_9:
	.loc	18 0 1
	movq	(%rsp), %rax
	.loc	18 175 1
	addq	$24, %rax
.Ltmp344:
	movq	%rax, %rdi
	callq	_ZN4core3ptr13drop_in_place17h7704956db62155c5E
.Ltmp345:
	jmp	.LBB56_8
.LBB56_10:
	.loc	18 0 1
	movq	(%rsp), %rax
	.loc	18 175 1
	addq	$8, %rax
.Ltmp341:
	movq	%rax, %rdi
	callq	_ZN4core3ptr13drop_in_place17h7704956db62155c5E
.Ltmp342:
	jmp	.LBB56_9
.Ltmp351:
.LBB56_11:
.Ltmp340:
	.loc	18 0 1
	movq	%rax, 24(%rsp)
	movl	%edx, 32(%rsp)
	jmp	.LBB56_6
.LBB56_12:
.Ltmp343:
	movq	%rax, 24(%rsp)
	movl	%edx, 32(%rsp)
	jmp	.LBB56_5
.LBB56_13:
.Ltmp346:
	movq	%rax, 24(%rsp)
	movl	%edx, 32(%rsp)
	jmp	.LBB56_4
.LBB56_14:
.Ltmp349:
	movq	%rax, 24(%rsp)
	movl	%edx, 32(%rsp)
	jmp	.LBB56_3
.Lfunc_end56:
	.size	_ZN4core3ptr13drop_in_place17h1823768c24b54923E, .Lfunc_end56-_ZN4core3ptr13drop_in_place17h1823768c24b54923E
	.cfi_endproc
	.section	.gcc_except_table,"a",@progbits
	.p2align	2
GCC_except_table56:
.Lexception10:
	.byte	255
	.byte	255
	.byte	1
	.uleb128 .Lcst_end10-.Lcst_begin10
.Lcst_begin10:
	.uleb128 .Ltmp338-.Lfunc_begin56
	.uleb128 .Ltmp339-.Ltmp338
	.uleb128 .Ltmp340-.Lfunc_begin56
	.byte	0
	.uleb128 .Ltmp339-.Lfunc_begin56
	.uleb128 .Ltmp347-.Ltmp339
	.byte	0
	.byte	0
	.uleb128 .Ltmp347-.Lfunc_begin56
	.uleb128 .Ltmp348-.Ltmp347
	.uleb128 .Ltmp349-.Lfunc_begin56
	.byte	0
	.uleb128 .Ltmp344-.Lfunc_begin56
	.uleb128 .Ltmp345-.Ltmp344
	.uleb128 .Ltmp346-.Lfunc_begin56
	.byte	0
	.uleb128 .Ltmp341-.Lfunc_begin56
	.uleb128 .Ltmp342-.Ltmp341
	.uleb128 .Ltmp343-.Lfunc_begin56
	.byte	0
.Lcst_end10:
	.p2align	2

	.section	.text._ZN4core3ptr13drop_in_place17h1aaaad2507a1ab65E,"ax",@progbits
	.p2align	4, 0x90
	.type	_ZN4core3ptr13drop_in_place17h1aaaad2507a1ab65E,@function
_ZN4core3ptr13drop_in_place17h1aaaad2507a1ab65E:
.Lfunc_begin57:
	.loc	18 175 0 is_stmt 1
	.cfi_startproc
	.cfi_personality 155, DW.ref.rust_eh_personality
	.cfi_lsda 27, .Lexception11
	subq	$40, %rsp
	.cfi_def_cfa_offset 48
	movq	%rdi, 16(%rsp)
.Ltmp355:
	.loc	18 175 1 prologue_end
	movq	(%rdi), %rax
	movq	8(%rdi), %rcx
	movq	(%rcx), %rcx
.Ltmp352:
	movq	%rdi, (%rsp)
	movq	%rax, %rdi
	callq	*%rcx
.Ltmp353:
	jmp	.LBB57_3
.LBB57_1:
	addq	$40, %rsp
	.cfi_def_cfa_offset 8
	retq
.LBB57_2:
	.cfi_def_cfa_offset 48
	movq	24(%rsp), %rdi
	callq	_Unwind_Resume@PLT
	ud2
.LBB57_3:
	.loc	18 0 1 is_stmt 0
	movq	(%rsp), %rax
	.loc	18 175 1
	movq	(%rax), %rdi
	movq	8(%rax), %rsi
	callq	_ZN5alloc5alloc8box_free17h49c25404b470c4e7E
	jmp	.LBB57_1
.LBB57_4:
	.loc	18 0 1
	movq	(%rsp), %rax
	.loc	18 175 1
	movq	(%rax), %rdi
	movq	8(%rax), %rsi
	callq	_ZN5alloc5alloc8box_free17h49c25404b470c4e7E
	jmp	.LBB57_2
.Ltmp356:
.LBB57_5:
.Ltmp354:
	.loc	18 0 1
	movq	%rax, 24(%rsp)
	movl	%edx, 32(%rsp)
	jmp	.LBB57_4
.Lfunc_end57:
	.size	_ZN4core3ptr13drop_in_place17h1aaaad2507a1ab65E, .Lfunc_end57-_ZN4core3ptr13drop_in_place17h1aaaad2507a1ab65E
	.cfi_endproc
	.section	.gcc_except_table,"a",@progbits
	.p2align	2
GCC_except_table57:
.Lexception11:
	.byte	255
	.byte	255
	.byte	1
	.uleb128 .Lcst_end11-.Lcst_begin11
.Lcst_begin11:
	.uleb128 .Ltmp352-.Lfunc_begin57
	.uleb128 .Ltmp353-.Ltmp352
	.uleb128 .Ltmp354-.Lfunc_begin57
	.byte	0
	.uleb128 .Ltmp353-.Lfunc_begin57
	.uleb128 .Lfunc_end57-.Ltmp353
	.byte	0
	.byte	0
.Lcst_end11:
	.p2align	2

	.section	.text._ZN4core3ptr13drop_in_place17h1e84a401dd5a3b2cE,"ax",@progbits
	.p2align	4, 0x90
	.type	_ZN4core3ptr13drop_in_place17h1e84a401dd5a3b2cE,@function
_ZN4core3ptr13drop_in_place17h1e84a401dd5a3b2cE:
.Lfunc_begin58:
	.loc	18 175 0 is_stmt 1
	.cfi_startproc
	.cfi_personality 155, DW.ref.rust_eh_personality
	.cfi_lsda 27, .Lexception12
	subq	$40, %rsp
	.cfi_def_cfa_offset 48
	movq	%rdi, 16(%rsp)
.Ltmp360:
	.loc	18 175 1 prologue_end
	movq	(%rdi), %rax
	movq	8(%rdi), %rcx
	movq	(%rcx), %rcx
.Ltmp357:
	movq	%rdi, (%rsp)
	movq	%rax, %rdi
	callq	*%rcx
.Ltmp358:
	jmp	.LBB58_3
.LBB58_1:
	addq	$40, %rsp
	.cfi_def_cfa_offset 8
	retq
.LBB58_2:
	.cfi_def_cfa_offset 48
	movq	24(%rsp), %rdi
	callq	_Unwind_Resume@PLT
	ud2
.LBB58_3:
	.loc	18 0 1 is_stmt 0
	movq	(%rsp), %rax
	.loc	18 175 1
	movq	(%rax), %rdi
	movq	8(%rax), %rsi
	callq	_ZN5alloc5alloc8box_free17h4de8bc6e11e72b11E
	jmp	.LBB58_1
.LBB58_4:
	.loc	18 0 1
	movq	(%rsp), %rax
	.loc	18 175 1
	movq	(%rax), %rdi
	movq	8(%rax), %rsi
	callq	_ZN5alloc5alloc8box_free17h4de8bc6e11e72b11E
	jmp	.LBB58_2
.Ltmp361:
.LBB58_5:
.Ltmp359:
	.loc	18 0 1
	movq	%rax, 24(%rsp)
	movl	%edx, 32(%rsp)
	jmp	.LBB58_4
.Lfunc_end58:
	.size	_ZN4core3ptr13drop_in_place17h1e84a401dd5a3b2cE, .Lfunc_end58-_ZN4core3ptr13drop_in_place17h1e84a401dd5a3b2cE
	.cfi_endproc
	.section	.gcc_except_table,"a",@progbits
	.p2align	2
GCC_except_table58:
.Lexception12:
	.byte	255
	.byte	255
	.byte	1
	.uleb128 .Lcst_end12-.Lcst_begin12
.Lcst_begin12:
	.uleb128 .Ltmp357-.Lfunc_begin58
	.uleb128 .Ltmp358-.Ltmp357
	.uleb128 .Ltmp359-.Lfunc_begin58
	.byte	0
	.uleb128 .Ltmp358-.Lfunc_begin58
	.uleb128 .Lfunc_end58-.Ltmp358
	.byte	0
	.byte	0
.Lcst_end12:
	.p2align	2

	.section	.text._ZN4core3ptr13drop_in_place17h2057c8817d53d96eE,"ax",@progbits
	.p2align	4, 0x90
	.type	_ZN4core3ptr13drop_in_place17h2057c8817d53d96eE,@function
_ZN4core3ptr13drop_in_place17h2057c8817d53d96eE:
.Lfunc_begin59:
	.loc	18 175 0 is_stmt 1
	.cfi_startproc
	.cfi_personality 155, DW.ref.rust_eh_personality
	.cfi_lsda 27, .Lexception13
	subq	$40, %rsp
	.cfi_def_cfa_offset 48
	movq	%rdi, 16(%rsp)
.Ltmp365:
	.loc	18 175 1 prologue_end
	movq	(%rdi), %rax
.Ltmp362:
	movq	%rdi, (%rsp)
	movq	%rax, %rdi
	callq	_ZN4core3ptr13drop_in_place17h6b76bda401722698E
.Ltmp363:
	jmp	.LBB59_3
.LBB59_1:
	addq	$40, %rsp
	.cfi_def_cfa_offset 8
	retq
.LBB59_2:
	.cfi_def_cfa_offset 48
	movq	24(%rsp), %rdi
	callq	_Unwind_Resume@PLT
	ud2
.LBB59_3:
	.loc	18 0 1 is_stmt 0
	movq	(%rsp), %rax
	.loc	18 175 1
	movq	(%rax), %rdi
	callq	_ZN5alloc5alloc8box_free17hbf5a93c90c332b3cE
	jmp	.LBB59_1
.LBB59_4:
	.loc	18 0 1
	movq	(%rsp), %rax
	.loc	18 175 1
	movq	(%rax), %rdi
	callq	_ZN5alloc5alloc8box_free17hbf5a93c90c332b3cE
	jmp	.LBB59_2
.Ltmp366:
.LBB59_5:
.Ltmp364:
	.loc	18 0 1
	movq	%rax, 24(%rsp)
	movl	%edx, 32(%rsp)
	jmp	.LBB59_4
.Lfunc_end59:
	.size	_ZN4core3ptr13drop_in_place17h2057c8817d53d96eE, .Lfunc_end59-_ZN4core3ptr13drop_in_place17h2057c8817d53d96eE
	.cfi_endproc
	.section	.gcc_except_table,"a",@progbits
	.p2align	2
GCC_except_table59:
.Lexception13:
	.byte	255
	.byte	255
	.byte	1
	.uleb128 .Lcst_end13-.Lcst_begin13
.Lcst_begin13:
	.uleb128 .Ltmp362-.Lfunc_begin59
	.uleb128 .Ltmp363-.Ltmp362
	.uleb128 .Ltmp364-.Lfunc_begin59
	.byte	0
	.uleb128 .Ltmp363-.Lfunc_begin59
	.uleb128 .Lfunc_end59-.Ltmp363
	.byte	0
	.byte	0
.Lcst_end13:
	.p2align	2

	.section	.text._ZN4core3ptr13drop_in_place17h2118b23765086d54E,"ax",@progbits
	.p2align	4, 0x90
	.type	_ZN4core3ptr13drop_in_place17h2118b23765086d54E,@function
_ZN4core3ptr13drop_in_place17h2118b23765086d54E:
.Lfunc_begin60:
	.loc	18 175 0 is_stmt 1
	.cfi_startproc
	subq	$24, %rsp
	.cfi_def_cfa_offset 32
	movq	%rdi, 16(%rsp)
.Ltmp367:
	.loc	18 175 1 prologue_end
	callq	_ZN4core3ptr13drop_in_place17hc5ec08b2af9238e9E
	addq	$24, %rsp
	.cfi_def_cfa_offset 8
	retq
.Ltmp368:
.Lfunc_end60:
	.size	_ZN4core3ptr13drop_in_place17h2118b23765086d54E, .Lfunc_end60-_ZN4core3ptr13drop_in_place17h2118b23765086d54E
	.cfi_endproc

	.section	.text._ZN4core3ptr13drop_in_place17h30e16be16c5d6e76E,"ax",@progbits
	.p2align	4, 0x90
	.type	_ZN4core3ptr13drop_in_place17h30e16be16c5d6e76E,@function
_ZN4core3ptr13drop_in_place17h30e16be16c5d6e76E:
.Lfunc_begin61:
	.loc	18 175 0
	.cfi_startproc
	subq	$40, %rsp
	.cfi_def_cfa_offset 48
	movq	%rdi, 16(%rsp)
	movq	%rdi, (%rsp)
.Ltmp369:
	.loc	18 175 1 prologue_end
	jmp	.LBB61_2
.LBB61_1:
	addq	$40, %rsp
	.cfi_def_cfa_offset 8
	retq
.LBB61_2:
	.cfi_def_cfa_offset 48
	.loc	18 0 1 is_stmt 0
	movq	(%rsp), %rax
	.loc	18 175 1
	movq	(%rax), %rdi
	movq	8(%rax), %rsi
	callq	_ZN5alloc5alloc8box_free17hd5194bf7f6e4e4aeE
	jmp	.LBB61_1
.Ltmp370:
.Lfunc_end61:
	.size	_ZN4core3ptr13drop_in_place17h30e16be16c5d6e76E, .Lfunc_end61-_ZN4core3ptr13drop_in_place17h30e16be16c5d6e76E
	.cfi_endproc

	.section	.text._ZN4core3ptr13drop_in_place17h473d389b013f537dE,"ax",@progbits
	.p2align	4, 0x90
	.type	_ZN4core3ptr13drop_in_place17h473d389b013f537dE,@function
_ZN4core3ptr13drop_in_place17h473d389b013f537dE:
.Lfunc_begin62:
	.loc	18 175 0 is_stmt 1
	.cfi_startproc
	.cfi_personality 155, DW.ref.rust_eh_personality
	.cfi_lsda 27, .Lexception14
	subq	$40, %rsp
	.cfi_def_cfa_offset 48
	movq	%rdi, 16(%rsp)
.Ltmp371:
	movq	%rdi, (%rsp)
.Ltmp374:
	.loc	18 175 1 prologue_end
	callq	_ZN66_$LT$std..ffi..c_str..CString$u20$as$u20$core..ops..drop..Drop$GT$4drop17hcad3888602a3c8b3E
.Ltmp372:
	jmp	.LBB62_4
.LBB62_1:
	movq	24(%rsp), %rdi
	callq	_Unwind_Resume@PLT
	ud2
.LBB62_2:
	addq	$40, %rsp
	.cfi_def_cfa_offset 8
	retq
.LBB62_3:
	.cfi_def_cfa_offset 48
	.loc	18 0 1 is_stmt 0
	movq	(%rsp), %rax
	.loc	18 175 1
	movq	%rax, %rdi
	callq	_ZN4core3ptr13drop_in_place17h30e16be16c5d6e76E
	jmp	.LBB62_1
.LBB62_4:
	.loc	18 0 1
	movq	(%rsp), %rax
	.loc	18 175 1
	movq	%rax, %rdi
	callq	_ZN4core3ptr13drop_in_place17h30e16be16c5d6e76E
	jmp	.LBB62_2
.Ltmp375:
.LBB62_5:
.Ltmp373:
	.loc	18 0 1
	movq	%rax, 24(%rsp)
	movl	%edx, 32(%rsp)
	jmp	.LBB62_3
.Lfunc_end62:
	.size	_ZN4core3ptr13drop_in_place17h473d389b013f537dE, .Lfunc_end62-_ZN4core3ptr13drop_in_place17h473d389b013f537dE
	.cfi_endproc
	.section	.gcc_except_table,"a",@progbits
	.p2align	2
GCC_except_table62:
.Lexception14:
	.byte	255
	.byte	255
	.byte	1
	.uleb128 .Lcst_end14-.Lcst_begin14
.Lcst_begin14:
	.uleb128 .Ltmp371-.Lfunc_begin62
	.uleb128 .Ltmp372-.Ltmp371
	.uleb128 .Ltmp373-.Lfunc_begin62
	.byte	0
	.uleb128 .Ltmp372-.Lfunc_begin62
	.uleb128 .Lfunc_end62-.Ltmp372
	.byte	0
	.byte	0
.Lcst_end14:
	.p2align	2

	.section	.text._ZN4core3ptr13drop_in_place17h48014bc24f7242d6E,"ax",@progbits
	.p2align	4, 0x90
	.type	_ZN4core3ptr13drop_in_place17h48014bc24f7242d6E,@function
_ZN4core3ptr13drop_in_place17h48014bc24f7242d6E:
.Lfunc_begin63:
	.loc	18 175 0 is_stmt 1
	.cfi_startproc
	subq	$24, %rsp
	.cfi_def_cfa_offset 32
	movq	%rdi, 16(%rsp)
.Ltmp376:
	.loc	18 175 1 prologue_end
	callq	_ZN4core3ptr13drop_in_place17h48a0c2cd1ecf88a5E
	addq	$24, %rsp
	.cfi_def_cfa_offset 8
	retq
.Ltmp377:
.Lfunc_end63:
	.size	_ZN4core3ptr13drop_in_place17h48014bc24f7242d6E, .Lfunc_end63-_ZN4core3ptr13drop_in_place17h48014bc24f7242d6E
	.cfi_endproc

	.section	.text._ZN4core3ptr13drop_in_place17h48a0c2cd1ecf88a5E,"ax",@progbits
	.p2align	4, 0x90
	.type	_ZN4core3ptr13drop_in_place17h48a0c2cd1ecf88a5E,@function
_ZN4core3ptr13drop_in_place17h48a0c2cd1ecf88a5E:
.Lfunc_begin64:
	.loc	18 175 0
	.cfi_startproc
	subq	$24, %rsp
	.cfi_def_cfa_offset 32
	movq	%rdi, 16(%rsp)
.Ltmp378:
	.loc	18 175 1 prologue_end
	callq	_ZN67_$LT$alloc..sync..Arc$LT$T$GT$$u20$as$u20$core..ops..drop..Drop$GT$4drop17h3a7004e534a417ecE
	addq	$24, %rsp
	.cfi_def_cfa_offset 8
	retq
.Ltmp379:
.Lfunc_end64:
	.size	_ZN4core3ptr13drop_in_place17h48a0c2cd1ecf88a5E, .Lfunc_end64-_ZN4core3ptr13drop_in_place17h48a0c2cd1ecf88a5E
	.cfi_endproc

	.section	.text._ZN4core3ptr13drop_in_place17h4a20c811e2aace86E,"ax",@progbits
	.p2align	4, 0x90
	.type	_ZN4core3ptr13drop_in_place17h4a20c811e2aace86E,@function
_ZN4core3ptr13drop_in_place17h4a20c811e2aace86E:
.Lfunc_begin65:
	.loc	18 175 0
	.cfi_startproc
	subq	$24, %rsp
	.cfi_def_cfa_offset 32
	movq	%rdi, 16(%rsp)
.Ltmp380:
	.loc	18 175 1 prologue_end
	callq	_ZN68_$LT$alloc..sync..Weak$LT$T$GT$$u20$as$u20$core..ops..drop..Drop$GT$4drop17hbd156639894b910bE
	addq	$24, %rsp
	.cfi_def_cfa_offset 8
	retq
.Ltmp381:
.Lfunc_end65:
	.size	_ZN4core3ptr13drop_in_place17h4a20c811e2aace86E, .Lfunc_end65-_ZN4core3ptr13drop_in_place17h4a20c811e2aace86E
	.cfi_endproc

	.section	.text._ZN4core3ptr13drop_in_place17h4bc010f51db89f78E,"ax",@progbits
	.p2align	4, 0x90
	.type	_ZN4core3ptr13drop_in_place17h4bc010f51db89f78E,@function
_ZN4core3ptr13drop_in_place17h4bc010f51db89f78E:
.Lfunc_begin66:
	.loc	18 175 0
	.cfi_startproc
	subq	$24, %rsp
	.cfi_def_cfa_offset 32
	movq	%rdi, 8(%rsp)
	movq	%rsi, 16(%rsp)
.Ltmp382:
	.loc	18 175 1 prologue_end
	callq	*(%rsi)
	addq	$24, %rsp
	.cfi_def_cfa_offset 8
	retq
.Ltmp383:
.Lfunc_end66:
	.size	_ZN4core3ptr13drop_in_place17h4bc010f51db89f78E, .Lfunc_end66-_ZN4core3ptr13drop_in_place17h4bc010f51db89f78E
	.cfi_endproc

	.section	.text._ZN4core3ptr13drop_in_place17h4ca56954c768c47eE,"ax",@progbits
	.p2align	4, 0x90
	.type	_ZN4core3ptr13drop_in_place17h4ca56954c768c47eE,@function
_ZN4core3ptr13drop_in_place17h4ca56954c768c47eE:
.Lfunc_begin67:
	.loc	18 175 0
	.cfi_startproc
	subq	$24, %rsp
	.cfi_def_cfa_offset 32
	movq	%rdi, 8(%rsp)
	movq	%rsi, 16(%rsp)
.Ltmp384:
	.loc	18 175 1 prologue_end
	callq	*(%rsi)
	addq	$24, %rsp
	.cfi_def_cfa_offset 8
	retq
.Ltmp385:
.Lfunc_end67:
	.size	_ZN4core3ptr13drop_in_place17h4ca56954c768c47eE, .Lfunc_end67-_ZN4core3ptr13drop_in_place17h4ca56954c768c47eE
	.cfi_endproc

	.section	.text._ZN4core3ptr13drop_in_place17h509c0b136f844b88E,"ax",@progbits
	.p2align	4, 0x90
	.type	_ZN4core3ptr13drop_in_place17h509c0b136f844b88E,@function
_ZN4core3ptr13drop_in_place17h509c0b136f844b88E:
.Lfunc_begin68:
	.loc	18 175 0
	.cfi_startproc
	subq	$24, %rsp
	.cfi_def_cfa_offset 32
	movq	%rdi, 16(%rsp)
.Ltmp386:
	.loc	18 175 1 prologue_end
	callq	_ZN4core3ptr13drop_in_place17hadcd597d0db0b933E
	addq	$24, %rsp
	.cfi_def_cfa_offset 8
	retq
.Ltmp387:
.Lfunc_end68:
	.size	_ZN4core3ptr13drop_in_place17h509c0b136f844b88E, .Lfunc_end68-_ZN4core3ptr13drop_in_place17h509c0b136f844b88E
	.cfi_endproc

	.section	.text._ZN4core3ptr13drop_in_place17h5634b4a2f185a0e6E,"ax",@progbits
	.p2align	4, 0x90
	.type	_ZN4core3ptr13drop_in_place17h5634b4a2f185a0e6E,@function
_ZN4core3ptr13drop_in_place17h5634b4a2f185a0e6E:
.Lfunc_begin69:
	.loc	18 175 0
	.cfi_startproc
	subq	$24, %rsp
	.cfi_def_cfa_offset 32
	movq	%rdi, 16(%rsp)
.Ltmp388:
	.loc	18 175 1 prologue_end
	callq	*_ZN72_$LT$std..sys..unix..thread..Thread$u20$as$u20$core..ops..drop..Drop$GT$4drop17h91b5d26bc9ceb57cE@GOTPCREL(%rip)
	addq	$24, %rsp
	.cfi_def_cfa_offset 8
	retq
.Ltmp389:
.Lfunc_end69:
	.size	_ZN4core3ptr13drop_in_place17h5634b4a2f185a0e6E, .Lfunc_end69-_ZN4core3ptr13drop_in_place17h5634b4a2f185a0e6E
	.cfi_endproc

	.section	.text._ZN4core3ptr13drop_in_place17h6b76bda401722698E,"ax",@progbits
	.p2align	4, 0x90
	.type	_ZN4core3ptr13drop_in_place17h6b76bda401722698E,@function
_ZN4core3ptr13drop_in_place17h6b76bda401722698E:
.Lfunc_begin70:
	.loc	18 175 0
	.cfi_startproc
	subq	$24, %rsp
	.cfi_def_cfa_offset 32
	movq	%rdi, 16(%rsp)
.Ltmp390:
	.loc	18 175 1 prologue_end
	callq	_ZN4core3ptr13drop_in_place17h1aaaad2507a1ab65E
	addq	$24, %rsp
	.cfi_def_cfa_offset 8
	retq
.Ltmp391:
.Lfunc_end70:
	.size	_ZN4core3ptr13drop_in_place17h6b76bda401722698E, .Lfunc_end70-_ZN4core3ptr13drop_in_place17h6b76bda401722698E
	.cfi_endproc

	.section	.text._ZN4core3ptr13drop_in_place17h6c3888401d8c2047E,"ax",@progbits
	.p2align	4, 0x90
	.type	_ZN4core3ptr13drop_in_place17h6c3888401d8c2047E,@function
_ZN4core3ptr13drop_in_place17h6c3888401d8c2047E:
.Lfunc_begin71:
	.loc	18 175 0
	.cfi_startproc
	subq	$24, %rsp
	.cfi_def_cfa_offset 32
	movq	%rdi, 16(%rsp)
.Ltmp392:
	.loc	18 175 1 prologue_end
	cmpq	$0, (%rdi)
	movq	%rdi, (%rsp)
	jne	.LBB71_2
.LBB71_1:
	addq	$24, %rsp
	.cfi_def_cfa_offset 8
	retq
.LBB71_2:
	.cfi_def_cfa_offset 32
	.loc	18 0 1 is_stmt 0
	movq	(%rsp), %rax
	.loc	18 175 1
	addq	$8, %rax
	movq	%rax, %rdi
	callq	_ZN4core3ptr13drop_in_place17h979f27e39d868ee4E
	jmp	.LBB71_1
.Ltmp393:
.Lfunc_end71:
	.size	_ZN4core3ptr13drop_in_place17h6c3888401d8c2047E, .Lfunc_end71-_ZN4core3ptr13drop_in_place17h6c3888401d8c2047E
	.cfi_endproc

	.section	.text._ZN4core3ptr13drop_in_place17h7704956db62155c5E,"ax",@progbits
	.p2align	4, 0x90
	.type	_ZN4core3ptr13drop_in_place17h7704956db62155c5E,@function
_ZN4core3ptr13drop_in_place17h7704956db62155c5E:
.Lfunc_begin72:
	.loc	18 175 0 is_stmt 1
	.cfi_startproc
	subq	$24, %rsp
	.cfi_def_cfa_offset 32
	xorl	%eax, %eax
	movl	%eax, %ecx
	movq	%rdi, 16(%rsp)
.Ltmp394:
	.loc	18 175 1 prologue_end
	cmpq	$0, (%rdi)
	movl	$1, %edx
	cmoveq	%rcx, %rdx
	cmpq	$0, %rdx
	movq	%rdi, (%rsp)
	jne	.LBB72_2
.LBB72_1:
	addq	$24, %rsp
	.cfi_def_cfa_offset 8
	retq
.LBB72_2:
	.cfi_def_cfa_offset 32
	.loc	18 0 1 is_stmt 0
	movq	(%rsp), %rax
	.loc	18 175 1
	movq	%rax, %rdi
	callq	_ZN4core3ptr13drop_in_place17h1e84a401dd5a3b2cE
	jmp	.LBB72_1
.Ltmp395:
.Lfunc_end72:
	.size	_ZN4core3ptr13drop_in_place17h7704956db62155c5E, .Lfunc_end72-_ZN4core3ptr13drop_in_place17h7704956db62155c5E
	.cfi_endproc

	.section	.text._ZN4core3ptr13drop_in_place17h88e558e66c88b87aE,"ax",@progbits
	.p2align	4, 0x90
	.type	_ZN4core3ptr13drop_in_place17h88e558e66c88b87aE,@function
_ZN4core3ptr13drop_in_place17h88e558e66c88b87aE:
.Lfunc_begin73:
	.loc	18 175 0 is_stmt 1
	.cfi_startproc
	subq	$24, %rsp
	.cfi_def_cfa_offset 32
	movq	%rdi, 16(%rsp)
.Ltmp396:
	.loc	18 175 1 prologue_end
	callq	_ZN4core3ptr13drop_in_place17hc063c215056008a0E
	addq	$24, %rsp
	.cfi_def_cfa_offset 8
	retq
.Ltmp397:
.Lfunc_end73:
	.size	_ZN4core3ptr13drop_in_place17h88e558e66c88b87aE, .Lfunc_end73-_ZN4core3ptr13drop_in_place17h88e558e66c88b87aE
	.cfi_endproc

	.section	.text._ZN4core3ptr13drop_in_place17h8fedf842870991bcE,"ax",@progbits
	.p2align	4, 0x90
	.type	_ZN4core3ptr13drop_in_place17h8fedf842870991bcE,@function
_ZN4core3ptr13drop_in_place17h8fedf842870991bcE:
.Lfunc_begin74:
	.loc	18 175 0
	.cfi_startproc
	subq	$24, %rsp
	.cfi_def_cfa_offset 32
	xorl	%eax, %eax
	movl	%eax, %ecx
	movq	%rdi, 16(%rsp)
.Ltmp398:
	.loc	18 175 1 prologue_end
	cmpq	$0, (%rdi)
	movl	$1, %edx
	cmoveq	%rcx, %rdx
	cmpq	$0, %rdx
	movq	%rdi, (%rsp)
	jne	.LBB74_2
.LBB74_1:
	addq	$24, %rsp
	.cfi_def_cfa_offset 8
	retq
.LBB74_2:
	.cfi_def_cfa_offset 32
	.loc	18 0 1 is_stmt 0
	movq	(%rsp), %rdi
	.loc	18 175 1
	callq	_ZN4core3ptr13drop_in_place17h473d389b013f537dE
	jmp	.LBB74_1
.Ltmp399:
.Lfunc_end74:
	.size	_ZN4core3ptr13drop_in_place17h8fedf842870991bcE, .Lfunc_end74-_ZN4core3ptr13drop_in_place17h8fedf842870991bcE
	.cfi_endproc

	.section	.text._ZN4core3ptr13drop_in_place17h979f27e39d868ee4E,"ax",@progbits
	.p2align	4, 0x90
	.type	_ZN4core3ptr13drop_in_place17h979f27e39d868ee4E,@function
_ZN4core3ptr13drop_in_place17h979f27e39d868ee4E:
.Lfunc_begin75:
	.loc	18 175 0 is_stmt 1
	.cfi_startproc
	subq	$24, %rsp
	.cfi_def_cfa_offset 32
	xorl	%eax, %eax
	movl	%eax, %ecx
	movq	%rdi, 16(%rsp)
.Ltmp400:
	.loc	18 175 1 prologue_end
	cmpq	$0, (%rdi)
	movl	$1, %edx
	cmoveq	%rcx, %rdx
	cmpq	$0, %rdx
	movq	%rdi, (%rsp)
	jne	.LBB75_2
.LBB75_1:
	addq	$24, %rsp
	.cfi_def_cfa_offset 8
	retq
.LBB75_2:
	.cfi_def_cfa_offset 32
	.loc	18 0 1 is_stmt 0
	movq	(%rsp), %rax
	.loc	18 175 1
	movq	%rax, %rdi
	callq	_ZN4core3ptr13drop_in_place17hcbc53ec65842bd95E
	jmp	.LBB75_1
.Ltmp401:
.Lfunc_end75:
	.size	_ZN4core3ptr13drop_in_place17h979f27e39d868ee4E, .Lfunc_end75-_ZN4core3ptr13drop_in_place17h979f27e39d868ee4E
	.cfi_endproc

	.section	.text._ZN4core3ptr13drop_in_place17haa991661459d814bE,"ax",@progbits
	.p2align	4, 0x90
	.type	_ZN4core3ptr13drop_in_place17haa991661459d814bE,@function
_ZN4core3ptr13drop_in_place17haa991661459d814bE:
.Lfunc_begin76:
	.loc	18 175 0 is_stmt 1
	.cfi_startproc
	subq	$24, %rsp
	.cfi_def_cfa_offset 32
	movq	%rdi, 16(%rsp)
.Ltmp402:
	.loc	18 175 1 prologue_end
	cmpq	$0, (%rdi)
	movq	%rdi, (%rsp)
	jne	.LBB76_2
.LBB76_1:
	addq	$24, %rsp
	.cfi_def_cfa_offset 8
	retq
.LBB76_2:
	.cfi_def_cfa_offset 32
	.loc	18 0 1 is_stmt 0
	movq	(%rsp), %rax
	.loc	18 175 1
	addq	$8, %rax
	movq	%rax, %rdi
	callq	_ZN4core3ptr13drop_in_place17h5634b4a2f185a0e6E
	jmp	.LBB76_1
.Ltmp403:
.Lfunc_end76:
	.size	_ZN4core3ptr13drop_in_place17haa991661459d814bE, .Lfunc_end76-_ZN4core3ptr13drop_in_place17haa991661459d814bE
	.cfi_endproc

	.section	.text._ZN4core3ptr13drop_in_place17hadcd597d0db0b933E,"ax",@progbits
	.p2align	4, 0x90
	.type	_ZN4core3ptr13drop_in_place17hadcd597d0db0b933E,@function
_ZN4core3ptr13drop_in_place17hadcd597d0db0b933E:
.Lfunc_begin77:
	.loc	18 175 0 is_stmt 1
	.cfi_startproc
	subq	$24, %rsp
	.cfi_def_cfa_offset 32
	movq	%rdi, 16(%rsp)
.Ltmp404:
	.loc	18 175 1 prologue_end
	callq	_ZN67_$LT$alloc..sync..Arc$LT$T$GT$$u20$as$u20$core..ops..drop..Drop$GT$4drop17h80dbb6a477ad831eE
	addq	$24, %rsp
	.cfi_def_cfa_offset 8
	retq
.Ltmp405:
.Lfunc_end77:
	.size	_ZN4core3ptr13drop_in_place17hadcd597d0db0b933E, .Lfunc_end77-_ZN4core3ptr13drop_in_place17hadcd597d0db0b933E
	.cfi_endproc

	.section	.text._ZN4core3ptr13drop_in_place17hb3f8580104547b7cE,"ax",@progbits
	.p2align	4, 0x90
	.type	_ZN4core3ptr13drop_in_place17hb3f8580104547b7cE,@function
_ZN4core3ptr13drop_in_place17hb3f8580104547b7cE:
.Lfunc_begin78:
	.loc	18 175 0
	.cfi_startproc
	subq	$24, %rsp
	.cfi_def_cfa_offset 32
	movq	%rdi, 16(%rsp)
.Ltmp406:
	.loc	18 175 1 prologue_end
	callq	_ZN4core3ptr13drop_in_place17h1665cb471f104fd3E
	addq	$24, %rsp
	.cfi_def_cfa_offset 8
	retq
.Ltmp407:
.Lfunc_end78:
	.size	_ZN4core3ptr13drop_in_place17hb3f8580104547b7cE, .Lfunc_end78-_ZN4core3ptr13drop_in_place17hb3f8580104547b7cE
	.cfi_endproc

	.section	.text._ZN4core3ptr13drop_in_place17hc063c215056008a0E,"ax",@progbits
	.p2align	4, 0x90
	.type	_ZN4core3ptr13drop_in_place17hc063c215056008a0E,@function
_ZN4core3ptr13drop_in_place17hc063c215056008a0E:
.Lfunc_begin79:
	.loc	18 175 0
	.cfi_startproc
	.cfi_personality 155, DW.ref.rust_eh_personality
	.cfi_lsda 27, .Lexception15
	subq	$40, %rsp
	.cfi_def_cfa_offset 48
	movq	%rdi, 16(%rsp)
.Ltmp408:
	movq	%rdi, (%rsp)
.Ltmp411:
	.loc	18 175 1 prologue_end
	callq	_ZN66_$LT$alloc..vec..Vec$LT$T$GT$$u20$as$u20$core..ops..drop..Drop$GT$4drop17h16d7bf6b30e4b214E
.Ltmp409:
	jmp	.LBB79_4
.LBB79_1:
	movq	24(%rsp), %rdi
	callq	_Unwind_Resume@PLT
	ud2
.LBB79_2:
	addq	$40, %rsp
	.cfi_def_cfa_offset 8
	retq
.LBB79_3:
	.cfi_def_cfa_offset 48
	.loc	18 0 1 is_stmt 0
	movq	(%rsp), %rax
	.loc	18 175 1
	movq	%rax, %rdi
	callq	_ZN4core3ptr13drop_in_place17hf521e8419e0a862cE
	jmp	.LBB79_1
.LBB79_4:
	.loc	18 0 1
	movq	(%rsp), %rax
	.loc	18 175 1
	movq	%rax, %rdi
	callq	_ZN4core3ptr13drop_in_place17hf521e8419e0a862cE
	jmp	.LBB79_2
.Ltmp412:
.LBB79_5:
.Ltmp410:
	.loc	18 0 1
	movq	%rax, 24(%rsp)
	movl	%edx, 32(%rsp)
	jmp	.LBB79_3
.Lfunc_end79:
	.size	_ZN4core3ptr13drop_in_place17hc063c215056008a0E, .Lfunc_end79-_ZN4core3ptr13drop_in_place17hc063c215056008a0E
	.cfi_endproc
	.section	.gcc_except_table,"a",@progbits
	.p2align	2
GCC_except_table79:
.Lexception15:
	.byte	255
	.byte	255
	.byte	1
	.uleb128 .Lcst_end15-.Lcst_begin15
.Lcst_begin15:
	.uleb128 .Ltmp408-.Lfunc_begin79
	.uleb128 .Ltmp409-.Ltmp408
	.uleb128 .Ltmp410-.Lfunc_begin79
	.byte	0
	.uleb128 .Ltmp409-.Lfunc_begin79
	.uleb128 .Lfunc_end79-.Ltmp409
	.byte	0
	.byte	0
.Lcst_end15:
	.p2align	2

	.section	.text._ZN4core3ptr13drop_in_place17hc3e4caf1a642190aE,"ax",@progbits
	.p2align	4, 0x90
	.type	_ZN4core3ptr13drop_in_place17hc3e4caf1a642190aE,@function
_ZN4core3ptr13drop_in_place17hc3e4caf1a642190aE:
.Lfunc_begin80:
	.loc	18 175 0 is_stmt 1
	.cfi_startproc
	subq	$24, %rsp
	.cfi_def_cfa_offset 32
	movq	%rdi, 8(%rsp)
	movq	%rsi, 16(%rsp)
.Ltmp413:
	.loc	18 175 1 prologue_end
	callq	*(%rsi)
	addq	$24, %rsp
	.cfi_def_cfa_offset 8
	retq
.Ltmp414:
.Lfunc_end80:
	.size	_ZN4core3ptr13drop_in_place17hc3e4caf1a642190aE, .Lfunc_end80-_ZN4core3ptr13drop_in_place17hc3e4caf1a642190aE
	.cfi_endproc

	.section	.text._ZN4core3ptr13drop_in_place17hc5ec08b2af9238e9E,"ax",@progbits
	.p2align	4, 0x90
	.type	_ZN4core3ptr13drop_in_place17hc5ec08b2af9238e9E,@function
_ZN4core3ptr13drop_in_place17hc5ec08b2af9238e9E:
.Lfunc_begin81:
	.loc	18 175 0
	.cfi_startproc
	.cfi_personality 155, DW.ref.rust_eh_personality
	.cfi_lsda 27, .Lexception16
	subq	$40, %rsp
	.cfi_def_cfa_offset 48
	movq	%rdi, 16(%rsp)
.Ltmp415:
	movq	%rdi, (%rsp)
.Ltmp421:
	.loc	18 175 1 prologue_end
	callq	_ZN4core3ptr13drop_in_place17haa991661459d814bE
.Ltmp416:
	jmp	.LBB81_6
.LBB81_1:
	movq	24(%rsp), %rdi
	callq	_Unwind_Resume@PLT
	ud2
.LBB81_2:
	addq	$40, %rsp
	.cfi_def_cfa_offset 8
	retq
.LBB81_3:
	.cfi_def_cfa_offset 48
	.loc	18 0 1 is_stmt 0
	movq	(%rsp), %rax
	.loc	18 175 1
	addq	$24, %rax
	movq	%rax, %rdi
	callq	_ZN4core3ptr13drop_in_place17h48014bc24f7242d6E
	jmp	.LBB81_1
.LBB81_4:
	.loc	18 0 1
	movq	(%rsp), %rax
	.loc	18 175 1
	addq	$16, %rax
	movq	%rax, %rdi
	callq	_ZN4core3ptr13drop_in_place17h0209f58ef1a0925cE
	jmp	.LBB81_3
.LBB81_5:
	.loc	18 0 1
	movq	(%rsp), %rax
	.loc	18 175 1
	addq	$24, %rax
	movq	%rax, %rdi
	callq	_ZN4core3ptr13drop_in_place17h48014bc24f7242d6E
	jmp	.LBB81_2
.LBB81_6:
	.loc	18 0 1
	movq	(%rsp), %rax
	.loc	18 175 1
	addq	$16, %rax
.Ltmp418:
	movq	%rax, %rdi
	callq	_ZN4core3ptr13drop_in_place17h0209f58ef1a0925cE
.Ltmp419:
	jmp	.LBB81_5
.Ltmp422:
.LBB81_7:
.Ltmp417:
	.loc	18 0 1
	movq	%rax, 24(%rsp)
	movl	%edx, 32(%rsp)
	jmp	.LBB81_4
.LBB81_8:
.Ltmp420:
	movq	%rax, 24(%rsp)
	movl	%edx, 32(%rsp)
	jmp	.LBB81_3
.Lfunc_end81:
	.size	_ZN4core3ptr13drop_in_place17hc5ec08b2af9238e9E, .Lfunc_end81-_ZN4core3ptr13drop_in_place17hc5ec08b2af9238e9E
	.cfi_endproc
	.section	.gcc_except_table,"a",@progbits
	.p2align	2
GCC_except_table81:
.Lexception16:
	.byte	255
	.byte	255
	.byte	1
	.uleb128 .Lcst_end16-.Lcst_begin16
.Lcst_begin16:
	.uleb128 .Ltmp415-.Lfunc_begin81
	.uleb128 .Ltmp416-.Ltmp415
	.uleb128 .Ltmp417-.Lfunc_begin81
	.byte	0
	.uleb128 .Ltmp416-.Lfunc_begin81
	.uleb128 .Ltmp418-.Ltmp416
	.byte	0
	.byte	0
	.uleb128 .Ltmp418-.Lfunc_begin81
	.uleb128 .Ltmp419-.Ltmp418
	.uleb128 .Ltmp420-.Lfunc_begin81
	.byte	0
.Lcst_end16:
	.p2align	2

	.section	.text._ZN4core3ptr13drop_in_place17hc7c2571abf49c7e6E,"ax",@progbits
	.p2align	4, 0x90
	.type	_ZN4core3ptr13drop_in_place17hc7c2571abf49c7e6E,@function
_ZN4core3ptr13drop_in_place17hc7c2571abf49c7e6E:
.Lfunc_begin82:
	.loc	18 175 0 is_stmt 1
	.cfi_startproc
	subq	$24, %rsp
	.cfi_def_cfa_offset 32
	movq	%rdi, 16(%rsp)
.Ltmp423:
	.loc	18 175 1 prologue_end
	callq	_ZN4core3ptr13drop_in_place17h6c3888401d8c2047E
	addq	$24, %rsp
	.cfi_def_cfa_offset 8
	retq
.Ltmp424:
.Lfunc_end82:
	.size	_ZN4core3ptr13drop_in_place17hc7c2571abf49c7e6E, .Lfunc_end82-_ZN4core3ptr13drop_in_place17hc7c2571abf49c7e6E
	.cfi_endproc

	.section	.text._ZN4core3ptr13drop_in_place17hcbc53ec65842bd95E,"ax",@progbits
	.p2align	4, 0x90
	.type	_ZN4core3ptr13drop_in_place17hcbc53ec65842bd95E,@function
_ZN4core3ptr13drop_in_place17hcbc53ec65842bd95E:
.Lfunc_begin83:
	.loc	18 175 0
	.cfi_startproc
	.cfi_personality 155, DW.ref.rust_eh_personality
	.cfi_lsda 27, .Lexception17
	subq	$40, %rsp
	.cfi_def_cfa_offset 48
	movq	%rdi, 16(%rsp)
.Ltmp428:
	.loc	18 175 1 prologue_end
	movq	(%rdi), %rax
	movq	8(%rdi), %rcx
	movq	(%rcx), %rcx
.Ltmp425:
	movq	%rdi, (%rsp)
	movq	%rax, %rdi
	callq	*%rcx
.Ltmp426:
	jmp	.LBB83_3
.LBB83_1:
	addq	$40, %rsp
	.cfi_def_cfa_offset 8
	retq
.LBB83_2:
	.cfi_def_cfa_offset 48
	movq	24(%rsp), %rdi
	callq	_Unwind_Resume@PLT
	ud2
.LBB83_3:
	.loc	18 0 1 is_stmt 0
	movq	(%rsp), %rax
	.loc	18 175 1
	movq	(%rax), %rdi
	movq	8(%rax), %rsi
	callq	_ZN5alloc5alloc8box_free17h0b328d5788b8cc01E
	jmp	.LBB83_1
.LBB83_4:
	.loc	18 0 1
	movq	(%rsp), %rax
	.loc	18 175 1
	movq	(%rax), %rdi
	movq	8(%rax), %rsi
	callq	_ZN5alloc5alloc8box_free17h0b328d5788b8cc01E
	jmp	.LBB83_2
.Ltmp429:
.LBB83_5:
.Ltmp427:
	.loc	18 0 1
	movq	%rax, 24(%rsp)
	movl	%edx, 32(%rsp)
	jmp	.LBB83_4
.Lfunc_end83:
	.size	_ZN4core3ptr13drop_in_place17hcbc53ec65842bd95E, .Lfunc_end83-_ZN4core3ptr13drop_in_place17hcbc53ec65842bd95E
	.cfi_endproc
	.section	.gcc_except_table,"a",@progbits
	.p2align	2
GCC_except_table83:
.Lexception17:
	.byte	255
	.byte	255
	.byte	1
	.uleb128 .Lcst_end17-.Lcst_begin17
.Lcst_begin17:
	.uleb128 .Ltmp425-.Lfunc_begin83
	.uleb128 .Ltmp426-.Ltmp425
	.uleb128 .Ltmp427-.Lfunc_begin83
	.byte	0
	.uleb128 .Ltmp426-.Lfunc_begin83
	.uleb128 .Lfunc_end83-.Ltmp426
	.byte	0
	.byte	0
.Lcst_end17:
	.p2align	2

	.section	.text._ZN4core3ptr13drop_in_place17hd19c71b88e15c34dE,"ax",@progbits
	.p2align	4, 0x90
	.type	_ZN4core3ptr13drop_in_place17hd19c71b88e15c34dE,@function
_ZN4core3ptr13drop_in_place17hd19c71b88e15c34dE:
.Lfunc_begin84:
	.loc	18 175 0 is_stmt 1
	.cfi_startproc
	subq	$24, %rsp
	.cfi_def_cfa_offset 32
	movq	%rdi, 16(%rsp)
.Ltmp430:
	.loc	18 175 1 prologue_end
	callq	_ZN67_$LT$alloc..sync..Arc$LT$T$GT$$u20$as$u20$core..ops..drop..Drop$GT$4drop17h564cbc2fa8d00d79E
	addq	$24, %rsp
	.cfi_def_cfa_offset 8
	retq
.Ltmp431:
.Lfunc_end84:
	.size	_ZN4core3ptr13drop_in_place17hd19c71b88e15c34dE, .Lfunc_end84-_ZN4core3ptr13drop_in_place17hd19c71b88e15c34dE
	.cfi_endproc

	.section	.text._ZN4core3ptr13drop_in_place17he32c7883d4a6cbc5E,"ax",@progbits
	.p2align	4, 0x90
	.type	_ZN4core3ptr13drop_in_place17he32c7883d4a6cbc5E,@function
_ZN4core3ptr13drop_in_place17he32c7883d4a6cbc5E:
.Lfunc_begin85:
	.loc	18 175 0
	.cfi_startproc
	subq	$16, %rsp
	.cfi_def_cfa_offset 24
	movq	%rdi, 8(%rsp)
.Ltmp432:
	.loc	18 175 1 prologue_end
	addq	$16, %rsp
	.cfi_def_cfa_offset 8
	retq
.Ltmp433:
.Lfunc_end85:
	.size	_ZN4core3ptr13drop_in_place17he32c7883d4a6cbc5E, .Lfunc_end85-_ZN4core3ptr13drop_in_place17he32c7883d4a6cbc5E
	.cfi_endproc

	.section	.text._ZN4core3ptr13drop_in_place17hf26cf63f19488079E,"ax",@progbits
	.p2align	4, 0x90
	.type	_ZN4core3ptr13drop_in_place17hf26cf63f19488079E,@function
_ZN4core3ptr13drop_in_place17hf26cf63f19488079E:
.Lfunc_begin86:
	.loc	18 175 0
	.cfi_startproc
	subq	$24, %rsp
	.cfi_def_cfa_offset 32
	movq	%rdi, 16(%rsp)
.Ltmp434:
	.loc	18 175 1 prologue_end
	callq	_ZN68_$LT$alloc..sync..Weak$LT$T$GT$$u20$as$u20$core..ops..drop..Drop$GT$4drop17h6852d0dee439a026E
	addq	$24, %rsp
	.cfi_def_cfa_offset 8
	retq
.Ltmp435:
.Lfunc_end86:
	.size	_ZN4core3ptr13drop_in_place17hf26cf63f19488079E, .Lfunc_end86-_ZN4core3ptr13drop_in_place17hf26cf63f19488079E
	.cfi_endproc

	.section	.text._ZN4core3ptr13drop_in_place17hf521e8419e0a862cE,"ax",@progbits
	.p2align	4, 0x90
	.type	_ZN4core3ptr13drop_in_place17hf521e8419e0a862cE,@function
_ZN4core3ptr13drop_in_place17hf521e8419e0a862cE:
.Lfunc_begin87:
	.loc	18 175 0
	.cfi_startproc
	subq	$24, %rsp
	.cfi_def_cfa_offset 32
	movq	%rdi, 16(%rsp)
.Ltmp436:
	.loc	18 175 1 prologue_end
	callq	_ZN77_$LT$alloc..raw_vec..RawVec$LT$T$C$A$GT$$u20$as$u20$core..ops..drop..Drop$GT$4drop17h84ae1ef08f25595aE
	addq	$24, %rsp
	.cfi_def_cfa_offset 8
	retq
.Ltmp437:
.Lfunc_end87:
	.size	_ZN4core3ptr13drop_in_place17hf521e8419e0a862cE, .Lfunc_end87-_ZN4core3ptr13drop_in_place17hf521e8419e0a862cE
	.cfi_endproc

	.section	.text._ZN4core3ptr13drop_in_place17hf59a65104a070924E,"ax",@progbits
	.p2align	4, 0x90
	.type	_ZN4core3ptr13drop_in_place17hf59a65104a070924E,@function
_ZN4core3ptr13drop_in_place17hf59a65104a070924E:
.Lfunc_begin88:
	.loc	18 175 0
	.cfi_startproc
	subq	$24, %rsp
	.cfi_def_cfa_offset 32
	movq	%rdi, 16(%rsp)
.Ltmp438:
	.loc	18 175 1 prologue_end
	callq	_ZN68_$LT$alloc..sync..Weak$LT$T$GT$$u20$as$u20$core..ops..drop..Drop$GT$4drop17h50c388dc1baa6c16E
	addq	$24, %rsp
	.cfi_def_cfa_offset 8
	retq
.Ltmp439:
.Lfunc_end88:
	.size	_ZN4core3ptr13drop_in_place17hf59a65104a070924E, .Lfunc_end88-_ZN4core3ptr13drop_in_place17hf59a65104a070924E
	.cfi_endproc

	.section	.text._ZN4core3ptr13drop_in_place17hf77800bd392a08c2E,"ax",@progbits
	.p2align	4, 0x90
	.type	_ZN4core3ptr13drop_in_place17hf77800bd392a08c2E,@function
_ZN4core3ptr13drop_in_place17hf77800bd392a08c2E:
.Lfunc_begin89:
	.loc	18 175 0
	.cfi_startproc
	subq	$24, %rsp
	.cfi_def_cfa_offset 32
	xorl	%eax, %eax
	movl	%eax, %ecx
	movq	%rdi, 16(%rsp)
.Ltmp440:
	.loc	18 175 1 prologue_end
	cmpq	$0, (%rdi)
	movl	$1, %edx
	cmoveq	%rcx, %rdx
	cmpq	$0, %rdx
	movq	%rdi, (%rsp)
	jne	.LBB89_2
.LBB89_1:
	addq	$24, %rsp
	.cfi_def_cfa_offset 8
	retq
.LBB89_2:
	.cfi_def_cfa_offset 32
	.loc	18 0 1 is_stmt 0
	movq	(%rsp), %rax
	.loc	18 175 1
	movq	%rax, %rdi
	callq	_ZN4core3ptr13drop_in_place17h88e558e66c88b87aE
	jmp	.LBB89_1
.Ltmp441:
.Lfunc_end89:
	.size	_ZN4core3ptr13drop_in_place17hf77800bd392a08c2E, .Lfunc_end89-_ZN4core3ptr13drop_in_place17hf77800bd392a08c2E
	.cfi_endproc

	.section	.text._ZN4core3ptr19swap_nonoverlapping17h5d65b4bc486bcbf4E,"ax",@progbits
	.p2align	4, 0x90
	.type	_ZN4core3ptr19swap_nonoverlapping17h5d65b4bc486bcbf4E,@function
_ZN4core3ptr19swap_nonoverlapping17h5d65b4bc486bcbf4E:
.Lfunc_begin90:
	.loc	18 428 0 is_stmt 1
	.cfi_startproc
	subq	$88, %rsp
	.cfi_def_cfa_offset 96
	movq	%rdi, 32(%rsp)
	movq	%rsi, 40(%rsp)
	movq	%rdx, 48(%rsp)
.Ltmp442:
	.loc	18 438 13 prologue_end
	movq	%rdi, 56(%rsp)
.Ltmp443:
	.loc	18 439 13
	movq	%rsi, 64(%rsp)
.Ltmp444:
	.loc	14 304 5
	movq	$24, 80(%rsp)
	movq	80(%rsp), %rax
	movq	%rdx, 24(%rsp)
	movq	%rdi, 16(%rsp)
	movq	%rsi, 8(%rsp)
	movq	%rax, (%rsp)
.Ltmp445:
	.loc	14 0 5 is_stmt 0
	movq	(%rsp), %rax
	movq	24(%rsp), %rcx
	.loc	18 440 15 is_stmt 1
	imulq	%rcx, %rax
	movq	%rax, 72(%rsp)
	movq	16(%rsp), %rdi
	movq	8(%rsp), %rsi
.Ltmp446:
	.loc	18 443 14
	movq	%rax, %rdx
	callq	_ZN4core3ptr25swap_nonoverlapping_bytes17h6f55f8a57792f190E
.Ltmp447:
	.loc	18 444 2
	addq	$88, %rsp
	.cfi_def_cfa_offset 8
	retq
.Ltmp448:
.Lfunc_end90:
	.size	_ZN4core3ptr19swap_nonoverlapping17h5d65b4bc486bcbf4E, .Lfunc_end90-_ZN4core3ptr19swap_nonoverlapping17h5d65b4bc486bcbf4E
	.cfi_endproc

	.section	.text._ZN4core3ptr19swap_nonoverlapping17h5f41207627973179E,"ax",@progbits
	.p2align	4, 0x90
	.type	_ZN4core3ptr19swap_nonoverlapping17h5f41207627973179E,@function
_ZN4core3ptr19swap_nonoverlapping17h5f41207627973179E:
.Lfunc_begin91:
	.loc	18 428 0
	.cfi_startproc
	subq	$88, %rsp
	.cfi_def_cfa_offset 96
	movq	%rdi, 32(%rsp)
	movq	%rsi, 40(%rsp)
	movq	%rdx, 48(%rsp)
.Ltmp449:
	.loc	18 438 13 prologue_end
	movq	%rdi, 56(%rsp)
.Ltmp450:
	.loc	18 439 13
	movq	%rsi, 64(%rsp)
.Ltmp451:
	.loc	14 304 5
	movq	$8, 80(%rsp)
	movq	80(%rsp), %rax
	movq	%rdx, 24(%rsp)
	movq	%rdi, 16(%rsp)
	movq	%rsi, 8(%rsp)
	movq	%rax, (%rsp)
.Ltmp452:
	.loc	14 0 5 is_stmt 0
	movq	(%rsp), %rax
	movq	24(%rsp), %rcx
	.loc	18 440 15 is_stmt 1
	imulq	%rcx, %rax
	movq	%rax, 72(%rsp)
	movq	16(%rsp), %rdi
	movq	8(%rsp), %rsi
.Ltmp453:
	.loc	18 443 14
	movq	%rax, %rdx
	callq	_ZN4core3ptr25swap_nonoverlapping_bytes17h6f55f8a57792f190E
.Ltmp454:
	.loc	18 444 2
	addq	$88, %rsp
	.cfi_def_cfa_offset 8
	retq
.Ltmp455:
.Lfunc_end91:
	.size	_ZN4core3ptr19swap_nonoverlapping17h5f41207627973179E, .Lfunc_end91-_ZN4core3ptr19swap_nonoverlapping17h5f41207627973179E
	.cfi_endproc

	.section	.text._ZN4core3ptr19swap_nonoverlapping17h8984ef8a754a9edeE,"ax",@progbits
	.p2align	4, 0x90
	.type	_ZN4core3ptr19swap_nonoverlapping17h8984ef8a754a9edeE,@function
_ZN4core3ptr19swap_nonoverlapping17h8984ef8a754a9edeE:
.Lfunc_begin92:
	.loc	18 428 0
	.cfi_startproc
	subq	$88, %rsp
	.cfi_def_cfa_offset 96
	movq	%rdi, 32(%rsp)
	movq	%rsi, 40(%rsp)
	movq	%rdx, 48(%rsp)
.Ltmp456:
	.loc	18 438 13 prologue_end
	movq	%rdi, 56(%rsp)
.Ltmp457:
	.loc	18 439 13
	movq	%rsi, 64(%rsp)
.Ltmp458:
	.loc	14 304 5
	movq	$16, 80(%rsp)
	movq	80(%rsp), %rax
	movq	%rdx, 24(%rsp)
	movq	%rdi, 16(%rsp)
	movq	%rsi, 8(%rsp)
	movq	%rax, (%rsp)
.Ltmp459:
	.loc	14 0 5 is_stmt 0
	movq	(%rsp), %rax
	movq	24(%rsp), %rcx
	.loc	18 440 15 is_stmt 1
	imulq	%rcx, %rax
	movq	%rax, 72(%rsp)
	movq	16(%rsp), %rdi
	movq	8(%rsp), %rsi
.Ltmp460:
	.loc	18 443 14
	movq	%rax, %rdx
	callq	_ZN4core3ptr25swap_nonoverlapping_bytes17h6f55f8a57792f190E
.Ltmp461:
	.loc	18 444 2
	addq	$88, %rsp
	.cfi_def_cfa_offset 8
	retq
.Ltmp462:
.Lfunc_end92:
	.size	_ZN4core3ptr19swap_nonoverlapping17h8984ef8a754a9edeE, .Lfunc_end92-_ZN4core3ptr19swap_nonoverlapping17h8984ef8a754a9edeE
	.cfi_endproc

	.section	.text._ZN4core3ptr23swap_nonoverlapping_one17h3f892083adf61238E,"ax",@progbits
	.p2align	4, 0x90
	.type	_ZN4core3ptr23swap_nonoverlapping_one17h3f892083adf61238E,@function
_ZN4core3ptr23swap_nonoverlapping_one17h3f892083adf61238E:
.Lfunc_begin93:
	.loc	18 447 0
	.cfi_startproc
	.cfi_personality 155, DW.ref.rust_eh_personality
	.cfi_lsda 27, .Lexception18
	subq	$88, %rsp
	.cfi_def_cfa_offset 96
	movq	%rdi, 40(%rsp)
	movq	%rsi, 48(%rsp)
.Ltmp468:
	.loc	18 450 8 prologue_end
	movb	$0, 39(%rsp)
.Ltmp469:
	.loc	14 304 5
	movq	$8, 80(%rsp)
	movq	80(%rsp), %rax
	movq	%rdi, 24(%rsp)
	movq	%rsi, 16(%rsp)
	movq	%rax, 8(%rsp)
.Ltmp470:
	.loc	14 0 5 is_stmt 0
	movq	8(%rsp), %rax
	.loc	18 450 8 is_stmt 1
	cmpq	$32, %rax
	.loc	18 450 5 is_stmt 0
	jb	.LBB93_3
	.loc	18 0 5
	movq	24(%rsp), %rdi
	movq	16(%rsp), %rsi
	.loc	18 460 18 is_stmt 1
	movl	$1, %edx
	callq	_ZN4core3ptr19swap_nonoverlapping17h5f41207627973179E
	jmp	.LBB93_7
.LBB93_3:
	.loc	18 454 21
	movb	$1, 39(%rsp)
	movq	24(%rsp), %rdi
	callq	_ZN4core3ptr4read17hf00a9e2fe033e03eE
	movq	%rax, 56(%rsp)
	movq	%rax, (%rsp)
.Ltmp463:
	.loc	18 0 21 is_stmt 0
	movl	$1, %edx
	movq	16(%rsp), %rdi
	movq	24(%rsp), %rsi
.Ltmp471:
	.loc	18 455 13 is_stmt 1
	callq	_ZN4core10intrinsics19copy_nonoverlapping17h371c703a301926c6E
.Ltmp464:
	jmp	.LBB93_5
.LBB93_5:
	.loc	18 456 22
	movb	$0, 39(%rsp)
.Ltmp465:
	movq	16(%rsp), %rdi
	movq	(%rsp), %rsi
	.loc	18 456 13 is_stmt 0
	callq	_ZN4core3ptr5write17h730ccc39eefa5669E
.Ltmp466:
	jmp	.LBB93_6
.Ltmp472:
.LBB93_6:
	.loc	18 457 9 is_stmt 1
	movb	$0, 39(%rsp)
	.loc	18 450 5
	jmp	.LBB93_8
.LBB93_7:
	jmp	.LBB93_8
.LBB93_8:
	.loc	18 462 2
	addq	$88, %rsp
	.cfi_def_cfa_offset 8
	retq
.LBB93_9:
	.cfi_def_cfa_offset 96
	.loc	18 447 1
	movq	64(%rsp), %rdi
	callq	_Unwind_Resume@PLT
	ud2
.LBB93_10:
	.loc	18 457 9
	jmp	.LBB93_9
.LBB93_11:
	testb	$1, 39(%rsp)
	jne	.LBB93_10
	jmp	.LBB93_9
.Ltmp473:
.LBB93_12:
.Ltmp467:
	.loc	18 0 9 is_stmt 0
	movq	%rax, 64(%rsp)
	movl	%edx, 72(%rsp)
	jmp	.LBB93_11
.Lfunc_end93:
	.size	_ZN4core3ptr23swap_nonoverlapping_one17h3f892083adf61238E, .Lfunc_end93-_ZN4core3ptr23swap_nonoverlapping_one17h3f892083adf61238E
	.cfi_endproc
	.section	.gcc_except_table,"a",@progbits
	.p2align	2
GCC_except_table93:
.Lexception18:
	.byte	255
	.byte	255
	.byte	1
	.uleb128 .Lcst_end18-.Lcst_begin18
.Lcst_begin18:
	.uleb128 .Lfunc_begin93-.Lfunc_begin93
	.uleb128 .Ltmp463-.Lfunc_begin93
	.byte	0
	.byte	0
	.uleb128 .Ltmp463-.Lfunc_begin93
	.uleb128 .Ltmp466-.Ltmp463
	.uleb128 .Ltmp467-.Lfunc_begin93
	.byte	0
	.uleb128 .Ltmp466-.Lfunc_begin93
	.uleb128 .Lfunc_end93-.Ltmp466
	.byte	0
	.byte	0
.Lcst_end18:
	.p2align	2

	.section	.text._ZN4core3ptr23swap_nonoverlapping_one17h74cca2bf20f48b58E,"ax",@progbits
	.p2align	4, 0x90
	.type	_ZN4core3ptr23swap_nonoverlapping_one17h74cca2bf20f48b58E,@function
_ZN4core3ptr23swap_nonoverlapping_one17h74cca2bf20f48b58E:
.Lfunc_begin94:
	.loc	18 447 0 is_stmt 1
	.cfi_startproc
	.cfi_personality 155, DW.ref.rust_eh_personality
	.cfi_lsda 27, .Lexception19
	subq	$104, %rsp
	.cfi_def_cfa_offset 112
	movq	%rdi, 64(%rsp)
	movq	%rsi, 72(%rsp)
.Ltmp479:
	.loc	18 450 8 prologue_end
	movb	$0, 63(%rsp)
.Ltmp480:
	.loc	14 304 5
	movq	$16, 96(%rsp)
	movq	96(%rsp), %rax
	movq	%rdi, 24(%rsp)
	movq	%rsi, 16(%rsp)
	movq	%rax, 8(%rsp)
.Ltmp481:
	.loc	14 0 5 is_stmt 0
	movq	8(%rsp), %rax
	.loc	18 450 8 is_stmt 1
	cmpq	$32, %rax
	.loc	18 450 5 is_stmt 0
	jb	.LBB94_3
	.loc	18 0 5
	movq	24(%rsp), %rdi
	movq	16(%rsp), %rsi
	.loc	18 460 18 is_stmt 1
	movl	$1, %edx
	callq	_ZN4core3ptr19swap_nonoverlapping17h8984ef8a754a9edeE
	jmp	.LBB94_7
.LBB94_3:
	.loc	18 454 21
	movb	$1, 63(%rsp)
	movq	24(%rsp), %rdi
	callq	_ZN4core3ptr4read17hf4f9e7a85c0479baE
	movq	%rdx, 48(%rsp)
	movq	%rax, 40(%rsp)
.Ltmp474:
	.loc	18 0 21 is_stmt 0
	movl	$1, %edx
	movq	16(%rsp), %rdi
	movq	24(%rsp), %rsi
.Ltmp482:
	.loc	18 455 13 is_stmt 1
	callq	_ZN4core10intrinsics19copy_nonoverlapping17h8ef679636b6782a6E
.Ltmp475:
	jmp	.LBB94_5
.LBB94_5:
	.loc	18 456 22
	movb	$0, 63(%rsp)
	movq	40(%rsp), %rsi
	movq	48(%rsp), %rdx
.Ltmp476:
	movq	16(%rsp), %rdi
	.loc	18 456 13 is_stmt 0
	callq	_ZN4core3ptr5write17h8592c1ba23ababf8E
.Ltmp477:
	jmp	.LBB94_6
.Ltmp483:
.LBB94_6:
	.loc	18 457 9 is_stmt 1
	movb	$0, 63(%rsp)
	.loc	18 450 5
	jmp	.LBB94_8
.LBB94_7:
	jmp	.LBB94_8
.LBB94_8:
	.loc	18 462 2
	addq	$104, %rsp
	.cfi_def_cfa_offset 8
	retq
.LBB94_9:
	.cfi_def_cfa_offset 112
	.loc	18 447 1
	movq	80(%rsp), %rdi
	callq	_Unwind_Resume@PLT
	ud2
.LBB94_10:
	.loc	18 457 9
	leaq	40(%rsp), %rdi
	callq	_ZN4core3ptr13drop_in_place17haa991661459d814bE
	jmp	.LBB94_9
.LBB94_11:
	testb	$1, 63(%rsp)
	jne	.LBB94_10
	jmp	.LBB94_9
.Ltmp484:
.LBB94_12:
.Ltmp478:
	.loc	18 0 9 is_stmt 0
	movq	%rax, 80(%rsp)
	movl	%edx, 88(%rsp)
	jmp	.LBB94_11
.Lfunc_end94:
	.size	_ZN4core3ptr23swap_nonoverlapping_one17h74cca2bf20f48b58E, .Lfunc_end94-_ZN4core3ptr23swap_nonoverlapping_one17h74cca2bf20f48b58E
	.cfi_endproc
	.section	.gcc_except_table,"a",@progbits
	.p2align	2
GCC_except_table94:
.Lexception19:
	.byte	255
	.byte	255
	.byte	1
	.uleb128 .Lcst_end19-.Lcst_begin19
.Lcst_begin19:
	.uleb128 .Lfunc_begin94-.Lfunc_begin94
	.uleb128 .Ltmp474-.Lfunc_begin94
	.byte	0
	.byte	0
	.uleb128 .Ltmp474-.Lfunc_begin94
	.uleb128 .Ltmp477-.Ltmp474
	.uleb128 .Ltmp478-.Lfunc_begin94
	.byte	0
	.uleb128 .Ltmp477-.Lfunc_begin94
	.uleb128 .Lfunc_end94-.Ltmp477
	.byte	0
	.byte	0
.Lcst_end19:
	.p2align	2

	.section	.text._ZN4core3ptr23swap_nonoverlapping_one17hccb5249a521e02ddE,"ax",@progbits
	.p2align	4, 0x90
	.type	_ZN4core3ptr23swap_nonoverlapping_one17hccb5249a521e02ddE,@function
_ZN4core3ptr23swap_nonoverlapping_one17hccb5249a521e02ddE:
.Lfunc_begin95:
	.loc	18 447 0 is_stmt 1
	.cfi_startproc
	.cfi_personality 155, DW.ref.rust_eh_personality
	.cfi_lsda 27, .Lexception20
	subq	$136, %rsp
	.cfi_def_cfa_offset 144
	movq	%rdi, 96(%rsp)
	movq	%rsi, 104(%rsp)
.Ltmp490:
	.loc	18 450 8 prologue_end
	movb	$0, 95(%rsp)
.Ltmp491:
	.loc	14 304 5
	movq	$24, 128(%rsp)
	movq	128(%rsp), %rax
	movq	%rdi, 24(%rsp)
	movq	%rsi, 16(%rsp)
	movq	%rax, 8(%rsp)
.Ltmp492:
	.loc	14 0 5 is_stmt 0
	movq	8(%rsp), %rax
	.loc	18 450 8 is_stmt 1
	cmpq	$32, %rax
	.loc	18 450 5 is_stmt 0
	jb	.LBB95_3
	.loc	18 0 5
	movq	24(%rsp), %rdi
	movq	16(%rsp), %rsi
	.loc	18 460 18 is_stmt 1
	movl	$1, %edx
	callq	_ZN4core3ptr19swap_nonoverlapping17h5d65b4bc486bcbf4E
	jmp	.LBB95_7
.LBB95_3:
	.loc	18 454 21
	movb	$1, 95(%rsp)
	leaq	40(%rsp), %rdi
	movq	24(%rsp), %rsi
	callq	_ZN4core3ptr4read17h43e90b96826d8970E
.Ltmp485:
	.loc	18 0 21 is_stmt 0
	movl	$1, %edx
	movq	16(%rsp), %rdi
	movq	24(%rsp), %rsi
.Ltmp493:
	.loc	18 455 13 is_stmt 1
	callq	_ZN4core10intrinsics19copy_nonoverlapping17hb1396f282768f031E
.Ltmp486:
	jmp	.LBB95_5
.LBB95_5:
	.loc	18 456 22
	movb	$0, 95(%rsp)
	movq	56(%rsp), %rax
	movq	%rax, 80(%rsp)
	movups	40(%rsp), %xmm0
	movaps	%xmm0, 64(%rsp)
.Ltmp487:
	leaq	64(%rsp), %rsi
	movq	16(%rsp), %rdi
	.loc	18 456 13 is_stmt 0
	callq	_ZN4core3ptr5write17h69347c84ddb43c41E
.Ltmp488:
	jmp	.LBB95_6
.Ltmp494:
.LBB95_6:
	.loc	18 457 9 is_stmt 1
	movb	$0, 95(%rsp)
	.loc	18 450 5
	jmp	.LBB95_8
.LBB95_7:
	jmp	.LBB95_8
.LBB95_8:
	.loc	18 462 2
	addq	$136, %rsp
	.cfi_def_cfa_offset 8
	retq
.LBB95_9:
	.cfi_def_cfa_offset 144
	.loc	18 447 1
	movq	112(%rsp), %rdi
	callq	_Unwind_Resume@PLT
	ud2
.LBB95_10:
	.loc	18 457 9
	leaq	40(%rsp), %rdi
	callq	_ZN4core3ptr13drop_in_place17h6c3888401d8c2047E
	jmp	.LBB95_9
.LBB95_11:
	testb	$1, 95(%rsp)
	jne	.LBB95_10
	jmp	.LBB95_9
.Ltmp495:
.LBB95_12:
.Ltmp489:
	.loc	18 0 9 is_stmt 0
	movq	%rax, 112(%rsp)
	movl	%edx, 120(%rsp)
	jmp	.LBB95_11
.Lfunc_end95:
	.size	_ZN4core3ptr23swap_nonoverlapping_one17hccb5249a521e02ddE, .Lfunc_end95-_ZN4core3ptr23swap_nonoverlapping_one17hccb5249a521e02ddE
	.cfi_endproc
	.section	.gcc_except_table,"a",@progbits
	.p2align	2
GCC_except_table95:
.Lexception20:
	.byte	255
	.byte	255
	.byte	1
	.uleb128 .Lcst_end20-.Lcst_begin20
.Lcst_begin20:
	.uleb128 .Lfunc_begin95-.Lfunc_begin95
	.uleb128 .Ltmp485-.Lfunc_begin95
	.byte	0
	.byte	0
	.uleb128 .Ltmp485-.Lfunc_begin95
	.uleb128 .Ltmp488-.Ltmp485
	.uleb128 .Ltmp489-.Lfunc_begin95
	.byte	0
	.uleb128 .Ltmp488-.Lfunc_begin95
	.uleb128 .Lfunc_end95-.Ltmp488
	.byte	0
	.byte	0
.Lcst_end20:
	.p2align	2

	.section	.text._ZN4core3ptr24slice_from_raw_parts_mut17h70af391c3e5f6909E,"ax",@progbits
	.p2align	4, 0x90
	.type	_ZN4core3ptr24slice_from_raw_parts_mut17h70af391c3e5f6909E,@function
_ZN4core3ptr24slice_from_raw_parts_mut17h70af391c3e5f6909E:
.Lfunc_begin96:
	.loc	18 300 0 is_stmt 1
	.cfi_startproc
	subq	$48, %rsp
	.cfi_def_cfa_offset 56
	movq	%rdi, 32(%rsp)
	movq	%rsi, 40(%rsp)
.Ltmp496:
	.loc	18 303 26 prologue_end
	movq	%rdi, 16(%rsp)
	movq	%rsi, 24(%rsp)
	.loc	18 303 14 is_stmt 0
	movq	16(%rsp), %rax
	movq	24(%rsp), %rcx
	movq	%rax, (%rsp)
	movq	%rcx, 8(%rsp)
	movq	(%rsp), %rax
	movq	8(%rsp), %rdx
	.loc	18 304 2 is_stmt 1
	addq	$48, %rsp
	.cfi_def_cfa_offset 8
	retq
.Ltmp497:
.Lfunc_end96:
	.size	_ZN4core3ptr24slice_from_raw_parts_mut17h70af391c3e5f6909E, .Lfunc_end96-_ZN4core3ptr24slice_from_raw_parts_mut17h70af391c3e5f6909E
	.cfi_endproc

	.section	.text._ZN4core3ptr25swap_nonoverlapping_bytes17h6f55f8a57792f190E,"ax",@progbits
	.p2align	4, 0x90
	.type	_ZN4core3ptr25swap_nonoverlapping_bytes17h6f55f8a57792f190E,@function
_ZN4core3ptr25swap_nonoverlapping_bytes17h6f55f8a57792f190E:
.Lfunc_begin97:
	.loc	18 465 0
	.cfi_startproc
	pushq	%rbp
	.cfi_def_cfa_offset 16
	.cfi_offset %rbp, -16
	movq	%rsp, %rbp
	.cfi_def_cfa_register %rbp
	andq	$-32, %rsp
	subq	$320, %rsp
	movq	%rdi, 192(%rsp)
	movq	%rsi, 200(%rsp)
	movq	%rdx, 208(%rsp)
.Ltmp498:
	.loc	14 304 5 prologue_end
	movq	$32, 280(%rsp)
	movq	280(%rsp), %rax
.Ltmp499:
	.loc	18 476 22
	movq	%rax, 216(%rsp)
	movq	%rdi, 104(%rsp)
	movq	%rsi, 96(%rsp)
	movq	%rdx, 88(%rsp)
	movq	%rax, 80(%rsp)
.Ltmp500:
	.loc	18 481 17
	movq	$0, 120(%rsp)
.LBB97_2:
	.loc	18 0 17 is_stmt 0
	movq	80(%rsp), %rax
.Ltmp501:
	.loc	18 482 11 is_stmt 1
	addq	120(%rsp), %rax
	movq	88(%rsp), %rcx
	cmpq	%rcx, %rax
	.loc	18 482 5 is_stmt 0
	jbe	.LBB97_4
	.loc	18 0 5
	movq	88(%rsp), %rax
	.loc	18 507 8 is_stmt 1
	cmpq	%rax, 120(%rsp)
	.loc	18 507 5 is_stmt 0
	jb	.LBB97_13
	jmp	.LBB97_12
.LBB97_4:
	.loc	18 0 5
	leaq	128(%rsp), %rax
	movq	%rax, 288(%rsp)
.Ltmp502:
	.loc	18 486 17 is_stmt 1
	leaq	128(%rsp), %rax
	movq	%rax, 224(%rsp)
.Ltmp503:
	.loc	18 495 27
	movq	120(%rsp), %rsi
	movq	104(%rsp), %rdi
	movq	%rax, 72(%rsp)
	.loc	18 495 21 is_stmt 0
	callq	_ZN4core3ptr7mut_ptr31_$LT$impl$u20$$BP$mut$u20$T$GT$3add17h9855fd366af36993E
	movq	%rax, 232(%rsp)
	movq	%rax, 64(%rsp)
.Ltmp504:
	.loc	18 496 27 is_stmt 1
	movq	120(%rsp), %rsi
	movq	96(%rsp), %rdi
	.loc	18 496 21 is_stmt 0
	callq	_ZN4core3ptr7mut_ptr31_$LT$impl$u20$$BP$mut$u20$T$GT$3add17h9855fd366af36993E
	movq	%rax, 240(%rsp)
	movq	%rax, 56(%rsp)
	.loc	18 0 21
	movq	64(%rsp), %rdi
	movq	72(%rsp), %rsi
	movq	80(%rsp), %rdx
.Ltmp505:
	.loc	18 500 13 is_stmt 1
	callq	_ZN4core10intrinsics19copy_nonoverlapping17ha6c4225c210f8d45E
	.loc	18 0 13 is_stmt 0
	movq	56(%rsp), %rdi
	movq	64(%rsp), %rsi
	movq	80(%rsp), %rdx
	.loc	18 501 13 is_stmt 1
	callq	_ZN4core10intrinsics19copy_nonoverlapping17ha6c4225c210f8d45E
	.loc	18 0 13 is_stmt 0
	movq	72(%rsp), %rdi
	movq	56(%rsp), %rsi
	movq	80(%rsp), %rdx
	.loc	18 502 13 is_stmt 1
	callq	_ZN4core10intrinsics19copy_nonoverlapping17ha6c4225c210f8d45E
.Ltmp506:
	.loc	18 0 13 is_stmt 0
	movq	80(%rsp), %rax
	.loc	18 504 9 is_stmt 1
	addq	120(%rsp), %rax
	movq	%rax, 120(%rsp)
.Ltmp507:
	.loc	18 482 5
	jmp	.LBB97_2
.LBB97_12:
	.loc	18 507 5
	jmp	.LBB97_21
.LBB97_13:
	.loc	18 0 5 is_stmt 0
	movq	88(%rsp), %rax
.Ltmp508:
	.loc	18 510 19 is_stmt 1
	subq	120(%rsp), %rax
	movq	%rax, 248(%rsp)
	leaq	160(%rsp), %rcx
	movq	%rcx, 296(%rsp)
	movq	%rax, 48(%rsp)
	movq	%rcx, 40(%rsp)
	.loc	18 0 19 is_stmt 0
	movq	40(%rsp), %rax
.Ltmp509:
	.loc	18 512 17 is_stmt 1
	movq	%rax, 256(%rsp)
.Ltmp510:
	.loc	18 516 27
	movq	120(%rsp), %rsi
	movq	104(%rsp), %rdi
	movq	%rax, 32(%rsp)
	.loc	18 516 21 is_stmt 0
	callq	_ZN4core3ptr7mut_ptr31_$LT$impl$u20$$BP$mut$u20$T$GT$3add17h9855fd366af36993E
	movq	%rax, 264(%rsp)
	movq	%rax, 24(%rsp)
.Ltmp511:
	.loc	18 517 27 is_stmt 1
	movq	120(%rsp), %rsi
	movq	96(%rsp), %rdi
	.loc	18 517 21 is_stmt 0
	callq	_ZN4core3ptr7mut_ptr31_$LT$impl$u20$$BP$mut$u20$T$GT$3add17h9855fd366af36993E
	movq	%rax, 272(%rsp)
	movq	%rax, 16(%rsp)
	.loc	18 0 21
	movq	24(%rsp), %rdi
	movq	32(%rsp), %rsi
	movq	48(%rsp), %rdx
.Ltmp512:
	.loc	18 519 13 is_stmt 1
	callq	_ZN4core10intrinsics19copy_nonoverlapping17ha6c4225c210f8d45E
	.loc	18 0 13 is_stmt 0
	movq	16(%rsp), %rdi
	movq	24(%rsp), %rsi
	movq	48(%rsp), %rdx
	.loc	18 520 13 is_stmt 1
	callq	_ZN4core10intrinsics19copy_nonoverlapping17ha6c4225c210f8d45E
	.loc	18 0 13 is_stmt 0
	movq	32(%rsp), %rdi
	movq	16(%rsp), %rsi
	movq	48(%rsp), %rdx
	.loc	18 521 13 is_stmt 1
	callq	_ZN4core10intrinsics19copy_nonoverlapping17ha6c4225c210f8d45E
.Ltmp513:
	.loc	18 507 5
	jmp	.LBB97_21
.Ltmp514:
.LBB97_21:
	.loc	18 524 2
	movq	%rbp, %rsp
	popq	%rbp
	.cfi_def_cfa %rsp, 8
	retq
.Ltmp515:
.Lfunc_end97:
	.size	_ZN4core3ptr25swap_nonoverlapping_bytes17h6f55f8a57792f190E, .Lfunc_end97-_ZN4core3ptr25swap_nonoverlapping_bytes17h6f55f8a57792f190E
	.cfi_endproc

	.section	.text._ZN4core3ptr4read17h3d86881979b5aa34E,"ax",@progbits
	.p2align	4, 0x90
	.type	_ZN4core3ptr4read17h3d86881979b5aa34E,@function
_ZN4core3ptr4read17h3d86881979b5aa34E:
.Lfunc_begin98:
	.loc	18 684 0
	.cfi_startproc
	subq	$72, %rsp
	.cfi_def_cfa_offset 80
	movq	%rdi, 32(%rsp)
.Ltmp516:
	.file	19 "/rustc/e1884a8e3c3e813aada8254edfa120e85bf5ffca/library/core/src/mem/maybe_uninit.rs"
	.loc	19 285 6 prologue_end
	movq	40(%rsp), %rax
.Ltmp517:
	.loc	18 686 19
	movq	%rax, 24(%rsp)
	movq	%rdi, 16(%rsp)
	.loc	18 0 19 is_stmt 0
	leaq	24(%rsp), %rax
	movq	%rax, 64(%rsp)
	movq	%rax, 8(%rsp)
	movq	16(%rsp), %rdi
	movq	8(%rsp), %rsi
.Ltmp518:
	.loc	18 694 9 is_stmt 1
	movl	$1, %edx
	callq	_ZN4core10intrinsics19copy_nonoverlapping17h8fc0a340623f58ccE
	.loc	18 695 9
	movq	24(%rsp), %rax
	movq	%rax, 48(%rsp)
	movq	%rax, 56(%rsp)
	movq	%rax, (%rsp)
.Ltmp519:
	.loc	18 0 9 is_stmt 0
	movq	(%rsp), %rax
	.loc	18 697 2 is_stmt 1
	addq	$72, %rsp
	.cfi_def_cfa_offset 8
	retq
.Ltmp520:
.Lfunc_end98:
	.size	_ZN4core3ptr4read17h3d86881979b5aa34E, .Lfunc_end98-_ZN4core3ptr4read17h3d86881979b5aa34E
	.cfi_endproc

	.section	.text._ZN4core3ptr4read17h43e90b96826d8970E,"ax",@progbits
	.p2align	4, 0x90
	.type	_ZN4core3ptr4read17h43e90b96826d8970E,@function
_ZN4core3ptr4read17h43e90b96826d8970E:
.Lfunc_begin99:
	.loc	18 684 0
	.cfi_startproc
	subq	$120, %rsp
	.cfi_def_cfa_offset 128
	movq	%rdi, %rax
	movq	%rsi, 80(%rsp)
	movq	%rsi, 24(%rsp)
	movq	%rdi, 16(%rsp)
	movq	%rax, 8(%rsp)
	leaq	32(%rsp), %rax
	movq	%rax, 112(%rsp)
	movq	%rax, (%rsp)
	movq	24(%rsp), %rdi
	movq	(%rsp), %rsi
.Ltmp521:
	.loc	18 694 9 prologue_end
	movl	$1, %edx
	callq	_ZN4core10intrinsics19copy_nonoverlapping17hb1396f282768f031E
	.loc	18 695 9
	movq	32(%rsp), %rax
	movq	%rax, 56(%rsp)
	movq	40(%rsp), %rax
	movq	%rax, 64(%rsp)
	movq	48(%rsp), %rax
	movq	%rax, 72(%rsp)
.Ltmp522:
	.loc	19 513 38
	movq	56(%rsp), %rax
	movq	%rax, 88(%rsp)
	movq	64(%rsp), %rax
	movq	%rax, 96(%rsp)
	movq	72(%rsp), %rax
	movq	%rax, 104(%rsp)
.Ltmp523:
	.loc	9 88 9
	movq	88(%rsp), %rax
	movq	16(%rsp), %rcx
	movq	%rax, (%rcx)
	movq	96(%rsp), %rax
	movq	%rax, 8(%rcx)
	movq	104(%rsp), %rax
	movq	%rax, 16(%rcx)
.Ltmp524:
	.loc	9 0 9 is_stmt 0
	movq	8(%rsp), %rax
	.loc	18 697 2 is_stmt 1
	addq	$120, %rsp
	.cfi_def_cfa_offset 8
	retq
.Ltmp525:
.Lfunc_end99:
	.size	_ZN4core3ptr4read17h43e90b96826d8970E, .Lfunc_end99-_ZN4core3ptr4read17h43e90b96826d8970E
	.cfi_endproc

	.section	.text._ZN4core3ptr4read17hf00a9e2fe033e03eE,"ax",@progbits
	.p2align	4, 0x90
	.type	_ZN4core3ptr4read17hf00a9e2fe033e03eE,@function
_ZN4core3ptr4read17hf00a9e2fe033e03eE:
.Lfunc_begin100:
	.loc	18 684 0
	.cfi_startproc
	subq	$72, %rsp
	.cfi_def_cfa_offset 80
	movq	%rdi, 32(%rsp)
.Ltmp526:
	.loc	19 285 6 prologue_end
	movq	40(%rsp), %rax
.Ltmp527:
	.loc	18 686 19
	movq	%rax, 24(%rsp)
	movq	%rdi, 16(%rsp)
	.loc	18 0 19 is_stmt 0
	leaq	24(%rsp), %rax
	movq	%rax, 64(%rsp)
	movq	16(%rsp), %rdi
.Ltmp528:
	.loc	18 694 9 is_stmt 1
	leaq	24(%rsp), %rsi
	movl	$1, %edx
	callq	_ZN4core10intrinsics19copy_nonoverlapping17h371c703a301926c6E
	.loc	18 695 9
	movq	24(%rsp), %rax
	movq	%rax, 48(%rsp)
	movq	%rax, 56(%rsp)
	movq	%rax, 8(%rsp)
.Ltmp529:
	.loc	18 0 9 is_stmt 0
	movq	8(%rsp), %rax
	.loc	18 697 2 is_stmt 1
	addq	$72, %rsp
	.cfi_def_cfa_offset 8
	retq
.Ltmp530:
.Lfunc_end100:
	.size	_ZN4core3ptr4read17hf00a9e2fe033e03eE, .Lfunc_end100-_ZN4core3ptr4read17hf00a9e2fe033e03eE
	.cfi_endproc

	.section	.text._ZN4core3ptr4read17hf4f9e7a85c0479baE,"ax",@progbits
	.p2align	4, 0x90
	.type	_ZN4core3ptr4read17hf4f9e7a85c0479baE,@function
_ZN4core3ptr4read17hf4f9e7a85c0479baE:
.Lfunc_begin101:
	.loc	18 684 0
	.cfi_startproc
	subq	$104, %rsp
	.cfi_def_cfa_offset 112
	movq	%rdi, 40(%rsp)
.Ltmp531:
	.loc	19 285 6 prologue_end
	movq	48(%rsp), %rax
	movq	56(%rsp), %rcx
.Ltmp532:
	.loc	18 686 19
	movq	%rcx, 32(%rsp)
	movq	%rax, 24(%rsp)
	movq	%rdi, 16(%rsp)
	.loc	18 0 19 is_stmt 0
	leaq	24(%rsp), %rax
	movq	%rax, 96(%rsp)
	movq	16(%rsp), %rdi
.Ltmp533:
	.loc	18 694 9 is_stmt 1
	leaq	24(%rsp), %rsi
	movl	$1, %edx
	callq	_ZN4core10intrinsics19copy_nonoverlapping17h8ef679636b6782a6E
	.loc	18 695 9
	movq	24(%rsp), %rax
	movq	32(%rsp), %rcx
	movq	%rax, 64(%rsp)
	movq	%rcx, 72(%rsp)
	movq	%rax, 80(%rsp)
	movq	%rcx, 88(%rsp)
	movq	%rax, 8(%rsp)
	movq	%rcx, (%rsp)
.Ltmp534:
	.loc	18 0 9 is_stmt 0
	movq	8(%rsp), %rax
	movq	(%rsp), %rdx
	.loc	18 697 2 is_stmt 1
	addq	$104, %rsp
	.cfi_def_cfa_offset 8
	retq
.Ltmp535:
.Lfunc_end101:
	.size	_ZN4core3ptr4read17hf4f9e7a85c0479baE, .Lfunc_end101-_ZN4core3ptr4read17hf4f9e7a85c0479baE
	.cfi_endproc

	.section	.text._ZN4core3ptr5write17h69347c84ddb43c41E,"ax",@progbits
	.p2align	4, 0x90
	.type	_ZN4core3ptr5write17h69347c84ddb43c41E,@function
_ZN4core3ptr5write17h69347c84ddb43c41E:
.Lfunc_begin102:
	.loc	18 879 0
	.cfi_startproc
	subq	$16, %rsp
	.cfi_def_cfa_offset 24
	movq	%rdi, 8(%rsp)
.Ltmp536:
	.loc	18 885 51 prologue_end
	movq	(%rsi), %rax
	movq	%rax, (%rdi)
	movq	8(%rsi), %rax
	movq	%rax, 8(%rdi)
	movq	16(%rsi), %rax
	movq	%rax, 16(%rdi)
	.loc	18 886 2
	addq	$16, %rsp
	.cfi_def_cfa_offset 8
	retq
.Ltmp537:
.Lfunc_end102:
	.size	_ZN4core3ptr5write17h69347c84ddb43c41E, .Lfunc_end102-_ZN4core3ptr5write17h69347c84ddb43c41E
	.cfi_endproc

	.section	.text._ZN4core3ptr5write17h730ccc39eefa5669E,"ax",@progbits
	.p2align	4, 0x90
	.type	_ZN4core3ptr5write17h730ccc39eefa5669E,@function
_ZN4core3ptr5write17h730ccc39eefa5669E:
.Lfunc_begin103:
	.loc	18 879 0
	.cfi_startproc
	subq	$24, %rsp
	.cfi_def_cfa_offset 32
	movq	%rdi, 8(%rsp)
	movq	%rsi, 16(%rsp)
.Ltmp538:
	.loc	18 885 51 prologue_end
	movq	%rsi, (%rdi)
	.loc	18 886 2
	addq	$24, %rsp
	.cfi_def_cfa_offset 8
	retq
.Ltmp539:
.Lfunc_end103:
	.size	_ZN4core3ptr5write17h730ccc39eefa5669E, .Lfunc_end103-_ZN4core3ptr5write17h730ccc39eefa5669E
	.cfi_endproc

	.section	.text._ZN4core3ptr5write17h8592c1ba23ababf8E,"ax",@progbits
	.p2align	4, 0x90
	.type	_ZN4core3ptr5write17h8592c1ba23ababf8E,@function
_ZN4core3ptr5write17h8592c1ba23ababf8E:
.Lfunc_begin104:
	.loc	18 879 0
	.cfi_startproc
	subq	$32, %rsp
	.cfi_def_cfa_offset 40
	movq	%rdi, 8(%rsp)
	movq	%rsi, 16(%rsp)
	movq	%rdx, 24(%rsp)
.Ltmp540:
	.loc	18 885 51 prologue_end
	movq	%rsi, (%rdi)
	movq	%rdx, 8(%rdi)
	.loc	18 886 2
	addq	$32, %rsp
	.cfi_def_cfa_offset 8
	retq
.Ltmp541:
.Lfunc_end104:
	.size	_ZN4core3ptr5write17h8592c1ba23ababf8E, .Lfunc_end104-_ZN4core3ptr5write17h8592c1ba23ababf8E
	.cfi_endproc

	.section	".text._ZN4core3ptr6unique15Unique$LT$T$GT$13new_unchecked17h4967a789b3d09d0cE","ax",@progbits
	.p2align	4, 0x90
	.type	_ZN4core3ptr6unique15Unique$LT$T$GT$13new_unchecked17h4967a789b3d09d0cE,@function
_ZN4core3ptr6unique15Unique$LT$T$GT$13new_unchecked17h4967a789b3d09d0cE:
.Lfunc_begin105:
	.file	20 "/rustc/e1884a8e3c3e813aada8254edfa120e85bf5ffca/library/core/src/ptr/unique.rs"
	.loc	20 87 0
	.cfi_startproc
	subq	$24, %rsp
	.cfi_def_cfa_offset 32
	movq	%rdi, 16(%rsp)
.Ltmp542:
	.loc	20 89 18 prologue_end
	movq	%rdi, (%rsp)
	.loc	20 90 6
	movq	(%rsp), %rax
	addq	$24, %rsp
	.cfi_def_cfa_offset 8
	retq
.Ltmp543:
.Lfunc_end105:
	.size	_ZN4core3ptr6unique15Unique$LT$T$GT$13new_unchecked17h4967a789b3d09d0cE, .Lfunc_end105-_ZN4core3ptr6unique15Unique$LT$T$GT$13new_unchecked17h4967a789b3d09d0cE
	.cfi_endproc

	.section	".text._ZN4core3ptr6unique15Unique$LT$T$GT$4cast17h09a82e6a67971338E","ax",@progbits
	.p2align	4, 0x90
	.type	_ZN4core3ptr6unique15Unique$LT$T$GT$4cast17h09a82e6a67971338E,@function
_ZN4core3ptr6unique15Unique$LT$T$GT$4cast17h09a82e6a67971338E:
.Lfunc_begin106:
	.loc	20 135 0
	.cfi_startproc
	subq	$24, %rsp
	.cfi_def_cfa_offset 32
	movq	%rdi, 16(%rsp)
.Ltmp544:
	.loc	20 139 40 prologue_end
	callq	_ZN4core3ptr6unique15Unique$LT$T$GT$6as_ptr17hb2c8d65f30f29afeE
	movq	%rax, 8(%rsp)
	.loc	20 0 40 is_stmt 0
	movq	8(%rsp), %rax
	.loc	20 139 18
	movq	%rax, %rdi
	callq	_ZN4core3ptr6unique15Unique$LT$T$GT$13new_unchecked17h4967a789b3d09d0cE
	movq	%rax, (%rsp)
	.loc	20 0 18
	movq	(%rsp), %rax
	.loc	20 140 6 is_stmt 1
	addq	$24, %rsp
	.cfi_def_cfa_offset 8
	retq
.Ltmp545:
.Lfunc_end106:
	.size	_ZN4core3ptr6unique15Unique$LT$T$GT$4cast17h09a82e6a67971338E, .Lfunc_end106-_ZN4core3ptr6unique15Unique$LT$T$GT$4cast17h09a82e6a67971338E
	.cfi_endproc

	.section	".text._ZN4core3ptr6unique15Unique$LT$T$GT$4cast17h20995250aaa582d8E","ax",@progbits
	.p2align	4, 0x90
	.type	_ZN4core3ptr6unique15Unique$LT$T$GT$4cast17h20995250aaa582d8E,@function
_ZN4core3ptr6unique15Unique$LT$T$GT$4cast17h20995250aaa582d8E:
.Lfunc_begin107:
	.loc	20 135 0
	.cfi_startproc
	subq	$24, %rsp
	.cfi_def_cfa_offset 32
	movq	%rdi, 16(%rsp)
.Ltmp546:
	.loc	20 139 40 prologue_end
	callq	_ZN4core3ptr6unique15Unique$LT$T$GT$6as_ptr17h34fd4e51395a4a83E
	movq	%rax, 8(%rsp)
	.loc	20 0 40 is_stmt 0
	movq	8(%rsp), %rax
	.loc	20 139 18
	movq	%rax, %rdi
	callq	_ZN4core3ptr6unique15Unique$LT$T$GT$13new_unchecked17h4967a789b3d09d0cE
	movq	%rax, (%rsp)
	.loc	20 0 18
	movq	(%rsp), %rax
	.loc	20 140 6 is_stmt 1
	addq	$24, %rsp
	.cfi_def_cfa_offset 8
	retq
.Ltmp547:
.Lfunc_end107:
	.size	_ZN4core3ptr6unique15Unique$LT$T$GT$4cast17h20995250aaa582d8E, .Lfunc_end107-_ZN4core3ptr6unique15Unique$LT$T$GT$4cast17h20995250aaa582d8E
	.cfi_endproc

	.section	".text._ZN4core3ptr6unique15Unique$LT$T$GT$4cast17h21d2354967c18aebE","ax",@progbits
	.p2align	4, 0x90
	.type	_ZN4core3ptr6unique15Unique$LT$T$GT$4cast17h21d2354967c18aebE,@function
_ZN4core3ptr6unique15Unique$LT$T$GT$4cast17h21d2354967c18aebE:
.Lfunc_begin108:
	.loc	20 135 0
	.cfi_startproc
	subq	$40, %rsp
	.cfi_def_cfa_offset 48
	movq	%rdi, 24(%rsp)
	movq	%rsi, 32(%rsp)
.Ltmp548:
	.loc	20 139 40 prologue_end
	callq	_ZN4core3ptr6unique15Unique$LT$T$GT$6as_ptr17h3326d1c89a98e717E
	movq	%rax, 16(%rsp)
	.loc	20 0 40 is_stmt 0
	movq	16(%rsp), %rax
	.loc	20 139 18
	movq	%rax, %rdi
	callq	_ZN4core3ptr6unique15Unique$LT$T$GT$13new_unchecked17h4967a789b3d09d0cE
	movq	%rax, 8(%rsp)
	.loc	20 0 18
	movq	8(%rsp), %rax
	.loc	20 140 6 is_stmt 1
	addq	$40, %rsp
	.cfi_def_cfa_offset 8
	retq
.Ltmp549:
.Lfunc_end108:
	.size	_ZN4core3ptr6unique15Unique$LT$T$GT$4cast17h21d2354967c18aebE, .Lfunc_end108-_ZN4core3ptr6unique15Unique$LT$T$GT$4cast17h21d2354967c18aebE
	.cfi_endproc

	.section	".text._ZN4core3ptr6unique15Unique$LT$T$GT$4cast17h42a6bff03816f078E","ax",@progbits
	.p2align	4, 0x90
	.type	_ZN4core3ptr6unique15Unique$LT$T$GT$4cast17h42a6bff03816f078E,@function
_ZN4core3ptr6unique15Unique$LT$T$GT$4cast17h42a6bff03816f078E:
.Lfunc_begin109:
	.loc	20 135 0
	.cfi_startproc
	subq	$40, %rsp
	.cfi_def_cfa_offset 48
	movq	%rdi, 24(%rsp)
	movq	%rsi, 32(%rsp)
.Ltmp550:
	.loc	20 139 40 prologue_end
	callq	_ZN4core3ptr6unique15Unique$LT$T$GT$6as_ptr17h514ae5c81f2ea6c9E
	movq	%rax, 16(%rsp)
	.loc	20 0 40 is_stmt 0
	movq	16(%rsp), %rax
	.loc	20 139 18
	movq	%rax, %rdi
	callq	_ZN4core3ptr6unique15Unique$LT$T$GT$13new_unchecked17h4967a789b3d09d0cE
	movq	%rax, 8(%rsp)
	.loc	20 0 18
	movq	8(%rsp), %rax
	.loc	20 140 6 is_stmt 1
	addq	$40, %rsp
	.cfi_def_cfa_offset 8
	retq
.Ltmp551:
.Lfunc_end109:
	.size	_ZN4core3ptr6unique15Unique$LT$T$GT$4cast17h42a6bff03816f078E, .Lfunc_end109-_ZN4core3ptr6unique15Unique$LT$T$GT$4cast17h42a6bff03816f078E
	.cfi_endproc

	.section	".text._ZN4core3ptr6unique15Unique$LT$T$GT$4cast17h6d1ccf966b5d57b9E","ax",@progbits
	.p2align	4, 0x90
	.type	_ZN4core3ptr6unique15Unique$LT$T$GT$4cast17h6d1ccf966b5d57b9E,@function
_ZN4core3ptr6unique15Unique$LT$T$GT$4cast17h6d1ccf966b5d57b9E:
.Lfunc_begin110:
	.loc	20 135 0
	.cfi_startproc
	subq	$40, %rsp
	.cfi_def_cfa_offset 48
	movq	%rdi, 24(%rsp)
	movq	%rsi, 32(%rsp)
.Ltmp552:
	.loc	20 139 40 prologue_end
	callq	_ZN4core3ptr6unique15Unique$LT$T$GT$6as_ptr17hef2cf288ead2c78bE
	movq	%rax, 16(%rsp)
	.loc	20 0 40 is_stmt 0
	movq	16(%rsp), %rax
	.loc	20 139 18
	movq	%rax, %rdi
	callq	_ZN4core3ptr6unique15Unique$LT$T$GT$13new_unchecked17h4967a789b3d09d0cE
	movq	%rax, 8(%rsp)
	.loc	20 0 18
	movq	8(%rsp), %rax
	.loc	20 140 6 is_stmt 1
	addq	$40, %rsp
	.cfi_def_cfa_offset 8
	retq
.Ltmp553:
.Lfunc_end110:
	.size	_ZN4core3ptr6unique15Unique$LT$T$GT$4cast17h6d1ccf966b5d57b9E, .Lfunc_end110-_ZN4core3ptr6unique15Unique$LT$T$GT$4cast17h6d1ccf966b5d57b9E
	.cfi_endproc

	.section	".text._ZN4core3ptr6unique15Unique$LT$T$GT$4cast17h76b03592e64a159cE","ax",@progbits
	.p2align	4, 0x90
	.type	_ZN4core3ptr6unique15Unique$LT$T$GT$4cast17h76b03592e64a159cE,@function
_ZN4core3ptr6unique15Unique$LT$T$GT$4cast17h76b03592e64a159cE:
.Lfunc_begin111:
	.loc	20 135 0
	.cfi_startproc
	subq	$24, %rsp
	.cfi_def_cfa_offset 32
	movq	%rdi, 16(%rsp)
.Ltmp554:
	.loc	20 139 40 prologue_end
	callq	_ZN4core3ptr6unique15Unique$LT$T$GT$6as_ptr17h42e6fe9aa0c35170E
	movq	%rax, 8(%rsp)
	.loc	20 0 40 is_stmt 0
	movq	8(%rsp), %rdi
	.loc	20 139 18
	callq	_ZN4core3ptr6unique15Unique$LT$T$GT$13new_unchecked17h4967a789b3d09d0cE
	movq	%rax, (%rsp)
	.loc	20 0 18
	movq	(%rsp), %rax
	.loc	20 140 6 is_stmt 1
	addq	$24, %rsp
	.cfi_def_cfa_offset 8
	retq
.Ltmp555:
.Lfunc_end111:
	.size	_ZN4core3ptr6unique15Unique$LT$T$GT$4cast17h76b03592e64a159cE, .Lfunc_end111-_ZN4core3ptr6unique15Unique$LT$T$GT$4cast17h76b03592e64a159cE
	.cfi_endproc

	.section	".text._ZN4core3ptr6unique15Unique$LT$T$GT$4cast17h94db831d9220448bE","ax",@progbits
	.p2align	4, 0x90
	.type	_ZN4core3ptr6unique15Unique$LT$T$GT$4cast17h94db831d9220448bE,@function
_ZN4core3ptr6unique15Unique$LT$T$GT$4cast17h94db831d9220448bE:
.Lfunc_begin112:
	.loc	20 135 0
	.cfi_startproc
	subq	$40, %rsp
	.cfi_def_cfa_offset 48
	movq	%rdi, 24(%rsp)
	movq	%rsi, 32(%rsp)
.Ltmp556:
	.loc	20 139 40 prologue_end
	callq	_ZN4core3ptr6unique15Unique$LT$T$GT$6as_ptr17hf8f4907fc63c128cE
	movq	%rax, 16(%rsp)
	.loc	20 0 40 is_stmt 0
	movq	16(%rsp), %rax
	.loc	20 139 18
	movq	%rax, %rdi
	callq	_ZN4core3ptr6unique15Unique$LT$T$GT$13new_unchecked17h4967a789b3d09d0cE
	movq	%rax, 8(%rsp)
	.loc	20 0 18
	movq	8(%rsp), %rax
	.loc	20 140 6 is_stmt 1
	addq	$40, %rsp
	.cfi_def_cfa_offset 8
	retq
.Ltmp557:
.Lfunc_end112:
	.size	_ZN4core3ptr6unique15Unique$LT$T$GT$4cast17h94db831d9220448bE, .Lfunc_end112-_ZN4core3ptr6unique15Unique$LT$T$GT$4cast17h94db831d9220448bE
	.cfi_endproc

	.section	".text._ZN4core3ptr6unique15Unique$LT$T$GT$4cast17hf03b14d422139b91E","ax",@progbits
	.p2align	4, 0x90
	.type	_ZN4core3ptr6unique15Unique$LT$T$GT$4cast17hf03b14d422139b91E,@function
_ZN4core3ptr6unique15Unique$LT$T$GT$4cast17hf03b14d422139b91E:
.Lfunc_begin113:
	.loc	20 135 0
	.cfi_startproc
	subq	$24, %rsp
	.cfi_def_cfa_offset 32
	movq	%rdi, 16(%rsp)
.Ltmp558:
	.loc	20 139 40 prologue_end
	callq	_ZN4core3ptr6unique15Unique$LT$T$GT$6as_ptr17hbd5cd27d31509143E
	movq	%rax, 8(%rsp)
	.loc	20 0 40 is_stmt 0
	movq	8(%rsp), %rax
	.loc	20 139 18
	movq	%rax, %rdi
	callq	_ZN4core3ptr6unique15Unique$LT$T$GT$13new_unchecked17h4967a789b3d09d0cE
	movq	%rax, (%rsp)
	.loc	20 0 18
	movq	(%rsp), %rax
	.loc	20 140 6 is_stmt 1
	addq	$24, %rsp
	.cfi_def_cfa_offset 8
	retq
.Ltmp559:
.Lfunc_end113:
	.size	_ZN4core3ptr6unique15Unique$LT$T$GT$4cast17hf03b14d422139b91E, .Lfunc_end113-_ZN4core3ptr6unique15Unique$LT$T$GT$4cast17hf03b14d422139b91E
	.cfi_endproc

	.section	".text._ZN4core3ptr6unique15Unique$LT$T$GT$6as_ptr17h3326d1c89a98e717E","ax",@progbits
	.p2align	4, 0x90
	.type	_ZN4core3ptr6unique15Unique$LT$T$GT$6as_ptr17h3326d1c89a98e717E,@function
_ZN4core3ptr6unique15Unique$LT$T$GT$6as_ptr17h3326d1c89a98e717E:
.Lfunc_begin114:
	.loc	20 105 0
	.cfi_startproc
	subq	$16, %rsp
	.cfi_def_cfa_offset 24
	movq	%rdi, (%rsp)
	movq	%rsi, 8(%rsp)
.Ltmp560:
	.loc	20 107 6 prologue_end
	movq	%rdi, %rax
	movq	%rsi, %rdx
	addq	$16, %rsp
	.cfi_def_cfa_offset 8
	retq
.Ltmp561:
.Lfunc_end114:
	.size	_ZN4core3ptr6unique15Unique$LT$T$GT$6as_ptr17h3326d1c89a98e717E, .Lfunc_end114-_ZN4core3ptr6unique15Unique$LT$T$GT$6as_ptr17h3326d1c89a98e717E
	.cfi_endproc

	.section	".text._ZN4core3ptr6unique15Unique$LT$T$GT$6as_ptr17h34fd4e51395a4a83E","ax",@progbits
	.p2align	4, 0x90
	.type	_ZN4core3ptr6unique15Unique$LT$T$GT$6as_ptr17h34fd4e51395a4a83E,@function
_ZN4core3ptr6unique15Unique$LT$T$GT$6as_ptr17h34fd4e51395a4a83E:
.Lfunc_begin115:
	.loc	20 105 0
	.cfi_startproc
	pushq	%rax
	.cfi_def_cfa_offset 16
	movq	%rdi, (%rsp)
.Ltmp562:
	.loc	20 107 6 prologue_end
	movq	%rdi, %rax
	popq	%rcx
	.cfi_def_cfa_offset 8
	retq
.Ltmp563:
.Lfunc_end115:
	.size	_ZN4core3ptr6unique15Unique$LT$T$GT$6as_ptr17h34fd4e51395a4a83E, .Lfunc_end115-_ZN4core3ptr6unique15Unique$LT$T$GT$6as_ptr17h34fd4e51395a4a83E
	.cfi_endproc

	.section	".text._ZN4core3ptr6unique15Unique$LT$T$GT$6as_ptr17h42e6fe9aa0c35170E","ax",@progbits
	.p2align	4, 0x90
	.type	_ZN4core3ptr6unique15Unique$LT$T$GT$6as_ptr17h42e6fe9aa0c35170E,@function
_ZN4core3ptr6unique15Unique$LT$T$GT$6as_ptr17h42e6fe9aa0c35170E:
.Lfunc_begin116:
	.loc	20 105 0
	.cfi_startproc
	pushq	%rax
	.cfi_def_cfa_offset 16
	movq	%rdi, (%rsp)
.Ltmp564:
	.loc	20 107 6 prologue_end
	movq	%rdi, %rax
	popq	%rcx
	.cfi_def_cfa_offset 8
	retq
.Ltmp565:
.Lfunc_end116:
	.size	_ZN4core3ptr6unique15Unique$LT$T$GT$6as_ptr17h42e6fe9aa0c35170E, .Lfunc_end116-_ZN4core3ptr6unique15Unique$LT$T$GT$6as_ptr17h42e6fe9aa0c35170E
	.cfi_endproc

	.section	".text._ZN4core3ptr6unique15Unique$LT$T$GT$6as_ptr17h514ae5c81f2ea6c9E","ax",@progbits
	.p2align	4, 0x90
	.type	_ZN4core3ptr6unique15Unique$LT$T$GT$6as_ptr17h514ae5c81f2ea6c9E,@function
_ZN4core3ptr6unique15Unique$LT$T$GT$6as_ptr17h514ae5c81f2ea6c9E:
.Lfunc_begin117:
	.loc	20 105 0
	.cfi_startproc
	subq	$16, %rsp
	.cfi_def_cfa_offset 24
	movq	%rdi, (%rsp)
	movq	%rsi, 8(%rsp)
.Ltmp566:
	.loc	20 107 6 prologue_end
	movq	%rdi, %rax
	movq	%rsi, %rdx
	addq	$16, %rsp
	.cfi_def_cfa_offset 8
	retq
.Ltmp567:
.Lfunc_end117:
	.size	_ZN4core3ptr6unique15Unique$LT$T$GT$6as_ptr17h514ae5c81f2ea6c9E, .Lfunc_end117-_ZN4core3ptr6unique15Unique$LT$T$GT$6as_ptr17h514ae5c81f2ea6c9E
	.cfi_endproc

	.section	".text._ZN4core3ptr6unique15Unique$LT$T$GT$6as_ptr17hb2c8d65f30f29afeE","ax",@progbits
	.p2align	4, 0x90
	.type	_ZN4core3ptr6unique15Unique$LT$T$GT$6as_ptr17hb2c8d65f30f29afeE,@function
_ZN4core3ptr6unique15Unique$LT$T$GT$6as_ptr17hb2c8d65f30f29afeE:
.Lfunc_begin118:
	.loc	20 105 0
	.cfi_startproc
	pushq	%rax
	.cfi_def_cfa_offset 16
	movq	%rdi, (%rsp)
.Ltmp568:
	.loc	20 107 6 prologue_end
	movq	%rdi, %rax
	popq	%rcx
	.cfi_def_cfa_offset 8
	retq
.Ltmp569:
.Lfunc_end118:
	.size	_ZN4core3ptr6unique15Unique$LT$T$GT$6as_ptr17hb2c8d65f30f29afeE, .Lfunc_end118-_ZN4core3ptr6unique15Unique$LT$T$GT$6as_ptr17hb2c8d65f30f29afeE
	.cfi_endproc

	.section	".text._ZN4core3ptr6unique15Unique$LT$T$GT$6as_ptr17hbd5cd27d31509143E","ax",@progbits
	.p2align	4, 0x90
	.type	_ZN4core3ptr6unique15Unique$LT$T$GT$6as_ptr17hbd5cd27d31509143E,@function
_ZN4core3ptr6unique15Unique$LT$T$GT$6as_ptr17hbd5cd27d31509143E:
.Lfunc_begin119:
	.loc	20 105 0
	.cfi_startproc
	pushq	%rax
	.cfi_def_cfa_offset 16
	movq	%rdi, (%rsp)
.Ltmp570:
	.loc	20 107 6 prologue_end
	movq	%rdi, %rax
	popq	%rcx
	.cfi_def_cfa_offset 8
	retq
.Ltmp571:
.Lfunc_end119:
	.size	_ZN4core3ptr6unique15Unique$LT$T$GT$6as_ptr17hbd5cd27d31509143E, .Lfunc_end119-_ZN4core3ptr6unique15Unique$LT$T$GT$6as_ptr17hbd5cd27d31509143E
	.cfi_endproc

	.section	".text._ZN4core3ptr6unique15Unique$LT$T$GT$6as_ptr17hef2cf288ead2c78bE","ax",@progbits
	.p2align	4, 0x90
	.type	_ZN4core3ptr6unique15Unique$LT$T$GT$6as_ptr17hef2cf288ead2c78bE,@function
_ZN4core3ptr6unique15Unique$LT$T$GT$6as_ptr17hef2cf288ead2c78bE:
.Lfunc_begin120:
	.loc	20 105 0
	.cfi_startproc
	subq	$16, %rsp
	.cfi_def_cfa_offset 24
	movq	%rdi, (%rsp)
	movq	%rsi, 8(%rsp)
.Ltmp572:
	.loc	20 107 6 prologue_end
	movq	%rdi, %rax
	movq	%rsi, %rdx
	addq	$16, %rsp
	.cfi_def_cfa_offset 8
	retq
.Ltmp573:
.Lfunc_end120:
	.size	_ZN4core3ptr6unique15Unique$LT$T$GT$6as_ptr17hef2cf288ead2c78bE, .Lfunc_end120-_ZN4core3ptr6unique15Unique$LT$T$GT$6as_ptr17hef2cf288ead2c78bE
	.cfi_endproc

	.section	".text._ZN4core3ptr6unique15Unique$LT$T$GT$6as_ptr17hf8f4907fc63c128cE","ax",@progbits
	.p2align	4, 0x90
	.type	_ZN4core3ptr6unique15Unique$LT$T$GT$6as_ptr17hf8f4907fc63c128cE,@function
_ZN4core3ptr6unique15Unique$LT$T$GT$6as_ptr17hf8f4907fc63c128cE:
.Lfunc_begin121:
	.loc	20 105 0
	.cfi_startproc
	subq	$16, %rsp
	.cfi_def_cfa_offset 24
	movq	%rdi, (%rsp)
	movq	%rsi, 8(%rsp)
.Ltmp574:
	.loc	20 107 6 prologue_end
	movq	%rdi, %rax
	movq	%rsi, %rdx
	addq	$16, %rsp
	.cfi_def_cfa_offset 8
	retq
.Ltmp575:
.Lfunc_end121:
	.size	_ZN4core3ptr6unique15Unique$LT$T$GT$6as_ptr17hf8f4907fc63c128cE, .Lfunc_end121-_ZN4core3ptr6unique15Unique$LT$T$GT$6as_ptr17hf8f4907fc63c128cE
	.cfi_endproc

	.section	".text._ZN4core3ptr6unique15Unique$LT$T$GT$6as_ref17h0883fda567f53037E","ax",@progbits
	.p2align	4, 0x90
	.type	_ZN4core3ptr6unique15Unique$LT$T$GT$6as_ref17h0883fda567f53037E,@function
_ZN4core3ptr6unique15Unique$LT$T$GT$6as_ref17h0883fda567f53037E:
.Lfunc_begin122:
	.loc	20 115 0
	.cfi_startproc
	subq	$24, %rsp
	.cfi_def_cfa_offset 32
	movq	%rdi, 16(%rsp)
.Ltmp576:
	.loc	20 118 20 prologue_end
	movq	(%rdi), %rdi
	callq	_ZN4core3ptr6unique15Unique$LT$T$GT$6as_ptr17hb2c8d65f30f29afeE
	movq	%rax, 8(%rsp)
	.loc	20 0 20 is_stmt 0
	movq	8(%rsp), %rax
	.loc	20 119 6 is_stmt 1
	addq	$24, %rsp
	.cfi_def_cfa_offset 8
	retq
.Ltmp577:
.Lfunc_end122:
	.size	_ZN4core3ptr6unique15Unique$LT$T$GT$6as_ref17h0883fda567f53037E, .Lfunc_end122-_ZN4core3ptr6unique15Unique$LT$T$GT$6as_ref17h0883fda567f53037E
	.cfi_endproc

	.section	".text._ZN4core3ptr6unique15Unique$LT$T$GT$6as_ref17h5ab3d679dd3df78aE","ax",@progbits
	.p2align	4, 0x90
	.type	_ZN4core3ptr6unique15Unique$LT$T$GT$6as_ref17h5ab3d679dd3df78aE,@function
_ZN4core3ptr6unique15Unique$LT$T$GT$6as_ref17h5ab3d679dd3df78aE:
.Lfunc_begin123:
	.loc	20 115 0
	.cfi_startproc
	subq	$24, %rsp
	.cfi_def_cfa_offset 32
	movq	%rdi, 16(%rsp)
.Ltmp578:
	.loc	20 118 20 prologue_end
	movq	(%rdi), %rax
	movq	8(%rdi), %rsi
	movq	%rax, %rdi
	callq	_ZN4core3ptr6unique15Unique$LT$T$GT$6as_ptr17hef2cf288ead2c78bE
	movq	%rax, 8(%rsp)
	movq	%rdx, (%rsp)
	.loc	20 0 20 is_stmt 0
	movq	8(%rsp), %rax
	movq	(%rsp), %rdx
	.loc	20 119 6 is_stmt 1
	addq	$24, %rsp
	.cfi_def_cfa_offset 8
	retq
.Ltmp579:
.Lfunc_end123:
	.size	_ZN4core3ptr6unique15Unique$LT$T$GT$6as_ref17h5ab3d679dd3df78aE, .Lfunc_end123-_ZN4core3ptr6unique15Unique$LT$T$GT$6as_ref17h5ab3d679dd3df78aE
	.cfi_endproc

	.section	".text._ZN4core3ptr6unique15Unique$LT$T$GT$6as_ref17h8fe125e413f1e8abE","ax",@progbits
	.p2align	4, 0x90
	.type	_ZN4core3ptr6unique15Unique$LT$T$GT$6as_ref17h8fe125e413f1e8abE,@function
_ZN4core3ptr6unique15Unique$LT$T$GT$6as_ref17h8fe125e413f1e8abE:
.Lfunc_begin124:
	.loc	20 115 0
	.cfi_startproc
	subq	$24, %rsp
	.cfi_def_cfa_offset 32
	movq	%rdi, 16(%rsp)
.Ltmp580:
	.loc	20 118 20 prologue_end
	movq	(%rdi), %rax
	movq	8(%rdi), %rsi
	movq	%rax, %rdi
	callq	_ZN4core3ptr6unique15Unique$LT$T$GT$6as_ptr17h514ae5c81f2ea6c9E
	movq	%rax, 8(%rsp)
	movq	%rdx, (%rsp)
	.loc	20 0 20 is_stmt 0
	movq	8(%rsp), %rax
	movq	(%rsp), %rdx
	.loc	20 119 6 is_stmt 1
	addq	$24, %rsp
	.cfi_def_cfa_offset 8
	retq
.Ltmp581:
.Lfunc_end124:
	.size	_ZN4core3ptr6unique15Unique$LT$T$GT$6as_ref17h8fe125e413f1e8abE, .Lfunc_end124-_ZN4core3ptr6unique15Unique$LT$T$GT$6as_ref17h8fe125e413f1e8abE
	.cfi_endproc

	.section	".text._ZN4core3ptr6unique15Unique$LT$T$GT$6as_ref17ha49df391b027efedE","ax",@progbits
	.p2align	4, 0x90
	.type	_ZN4core3ptr6unique15Unique$LT$T$GT$6as_ref17ha49df391b027efedE,@function
_ZN4core3ptr6unique15Unique$LT$T$GT$6as_ref17ha49df391b027efedE:
.Lfunc_begin125:
	.loc	20 115 0
	.cfi_startproc
	subq	$24, %rsp
	.cfi_def_cfa_offset 32
	movq	%rdi, 16(%rsp)
.Ltmp582:
	.loc	20 118 20 prologue_end
	movq	(%rdi), %rdi
	callq	_ZN4core3ptr6unique15Unique$LT$T$GT$6as_ptr17hbd5cd27d31509143E
	movq	%rax, 8(%rsp)
	.loc	20 0 20 is_stmt 0
	movq	8(%rsp), %rax
	.loc	20 119 6 is_stmt 1
	addq	$24, %rsp
	.cfi_def_cfa_offset 8
	retq
.Ltmp583:
.Lfunc_end125:
	.size	_ZN4core3ptr6unique15Unique$LT$T$GT$6as_ref17ha49df391b027efedE, .Lfunc_end125-_ZN4core3ptr6unique15Unique$LT$T$GT$6as_ref17ha49df391b027efedE
	.cfi_endproc

	.section	".text._ZN4core3ptr6unique15Unique$LT$T$GT$6as_ref17hba7ffecb4a09e21cE","ax",@progbits
	.p2align	4, 0x90
	.type	_ZN4core3ptr6unique15Unique$LT$T$GT$6as_ref17hba7ffecb4a09e21cE,@function
_ZN4core3ptr6unique15Unique$LT$T$GT$6as_ref17hba7ffecb4a09e21cE:
.Lfunc_begin126:
	.loc	20 115 0
	.cfi_startproc
	subq	$24, %rsp
	.cfi_def_cfa_offset 32
	movq	%rdi, 16(%rsp)
.Ltmp584:
	.loc	20 118 20 prologue_end
	movq	(%rdi), %rax
	movq	8(%rdi), %rsi
	movq	%rax, %rdi
	callq	_ZN4core3ptr6unique15Unique$LT$T$GT$6as_ptr17h3326d1c89a98e717E
	movq	%rax, 8(%rsp)
	movq	%rdx, (%rsp)
	.loc	20 0 20 is_stmt 0
	movq	8(%rsp), %rax
	movq	(%rsp), %rdx
	.loc	20 119 6 is_stmt 1
	addq	$24, %rsp
	.cfi_def_cfa_offset 8
	retq
.Ltmp585:
.Lfunc_end126:
	.size	_ZN4core3ptr6unique15Unique$LT$T$GT$6as_ref17hba7ffecb4a09e21cE, .Lfunc_end126-_ZN4core3ptr6unique15Unique$LT$T$GT$6as_ref17hba7ffecb4a09e21cE
	.cfi_endproc

	.section	".text._ZN4core3ptr6unique15Unique$LT$T$GT$6as_ref17hbee12d71859591a6E","ax",@progbits
	.p2align	4, 0x90
	.type	_ZN4core3ptr6unique15Unique$LT$T$GT$6as_ref17hbee12d71859591a6E,@function
_ZN4core3ptr6unique15Unique$LT$T$GT$6as_ref17hbee12d71859591a6E:
.Lfunc_begin127:
	.loc	20 115 0
	.cfi_startproc
	subq	$24, %rsp
	.cfi_def_cfa_offset 32
	movq	%rdi, 16(%rsp)
.Ltmp586:
	.loc	20 118 20 prologue_end
	movq	(%rdi), %rax
	movq	8(%rdi), %rsi
	movq	%rax, %rdi
	callq	_ZN4core3ptr6unique15Unique$LT$T$GT$6as_ptr17hf8f4907fc63c128cE
	movq	%rax, 8(%rsp)
	movq	%rdx, (%rsp)
	.loc	20 0 20 is_stmt 0
	movq	8(%rsp), %rax
	movq	(%rsp), %rdx
	.loc	20 119 6 is_stmt 1
	addq	$24, %rsp
	.cfi_def_cfa_offset 8
	retq
.Ltmp587:
.Lfunc_end127:
	.size	_ZN4core3ptr6unique15Unique$LT$T$GT$6as_ref17hbee12d71859591a6E, .Lfunc_end127-_ZN4core3ptr6unique15Unique$LT$T$GT$6as_ref17hbee12d71859591a6E
	.cfi_endproc

	.section	".text._ZN4core3ptr6unique15Unique$LT$T$GT$6as_ref17hfe5c685827bf6fa8E","ax",@progbits
	.p2align	4, 0x90
	.type	_ZN4core3ptr6unique15Unique$LT$T$GT$6as_ref17hfe5c685827bf6fa8E,@function
_ZN4core3ptr6unique15Unique$LT$T$GT$6as_ref17hfe5c685827bf6fa8E:
.Lfunc_begin128:
	.loc	20 115 0
	.cfi_startproc
	subq	$24, %rsp
	.cfi_def_cfa_offset 32
	movq	%rdi, 16(%rsp)
.Ltmp588:
	.loc	20 118 20 prologue_end
	movq	(%rdi), %rdi
	callq	_ZN4core3ptr6unique15Unique$LT$T$GT$6as_ptr17h34fd4e51395a4a83E
	movq	%rax, 8(%rsp)
	.loc	20 0 20 is_stmt 0
	movq	8(%rsp), %rax
	.loc	20 119 6 is_stmt 1
	addq	$24, %rsp
	.cfi_def_cfa_offset 8
	retq
.Ltmp589:
.Lfunc_end128:
	.size	_ZN4core3ptr6unique15Unique$LT$T$GT$6as_ref17hfe5c685827bf6fa8E, .Lfunc_end128-_ZN4core3ptr6unique15Unique$LT$T$GT$6as_ref17hfe5c685827bf6fa8E
	.cfi_endproc

	.section	".text._ZN4core3ptr7mut_ptr31_$LT$impl$u20$$BP$mut$u20$T$GT$13guaranteed_eq17h0976ded26595b876E","ax",@progbits
	.p2align	4, 0x90
	.type	_ZN4core3ptr7mut_ptr31_$LT$impl$u20$$BP$mut$u20$T$GT$13guaranteed_eq17h0976ded26595b876E,@function
_ZN4core3ptr7mut_ptr31_$LT$impl$u20$$BP$mut$u20$T$GT$13guaranteed_eq17h0976ded26595b876E:
.Lfunc_begin129:
	.file	21 "/rustc/e1884a8e3c3e813aada8254edfa120e85bf5ffca/library/core/src/ptr/mut_ptr.rs"
	.loc	21 422 0
	.cfi_startproc
	subq	$32, %rsp
	.cfi_def_cfa_offset 40
	movq	%rdi, 8(%rsp)
	movq	%rsi, 16(%rsp)
.Ltmp590:
	.loc	21 426 9 prologue_end
	cmpq	%rsi, %rdi
	sete	%al
	andb	$1, %al
	movb	%al, 31(%rsp)
	movb	31(%rsp), %al
	movb	%al, 7(%rsp)
	.loc	21 0 9 is_stmt 0
	movb	7(%rsp), %al
	.loc	21 427 6 is_stmt 1
	andb	$1, %al
	movzbl	%al, %eax
	addq	$32, %rsp
	.cfi_def_cfa_offset 8
	retq
.Ltmp591:
.Lfunc_end129:
	.size	_ZN4core3ptr7mut_ptr31_$LT$impl$u20$$BP$mut$u20$T$GT$13guaranteed_eq17h0976ded26595b876E, .Lfunc_end129-_ZN4core3ptr7mut_ptr31_$LT$impl$u20$$BP$mut$u20$T$GT$13guaranteed_eq17h0976ded26595b876E
	.cfi_endproc

	.section	".text._ZN4core3ptr7mut_ptr31_$LT$impl$u20$$BP$mut$u20$T$GT$3add17h9855fd366af36993E","ax",@progbits
	.p2align	4, 0x90
	.type	_ZN4core3ptr7mut_ptr31_$LT$impl$u20$$BP$mut$u20$T$GT$3add17h9855fd366af36993E,@function
_ZN4core3ptr7mut_ptr31_$LT$impl$u20$$BP$mut$u20$T$GT$3add17h9855fd366af36993E:
.Lfunc_begin130:
	.loc	21 601 0
	.cfi_startproc
	subq	$24, %rsp
	.cfi_def_cfa_offset 32
	movq	%rdi, 8(%rsp)
	movq	%rsi, 16(%rsp)
.Ltmp592:
	.loc	21 606 18 prologue_end
	callq	_ZN4core3ptr7mut_ptr31_$LT$impl$u20$$BP$mut$u20$T$GT$6offset17he4fbefb5ddbb8a8aE
	movq	%rax, (%rsp)
	.loc	21 0 18 is_stmt 0
	movq	(%rsp), %rax
	.loc	21 607 6 is_stmt 1
	addq	$24, %rsp
	.cfi_def_cfa_offset 8
	retq
.Ltmp593:
.Lfunc_end130:
	.size	_ZN4core3ptr7mut_ptr31_$LT$impl$u20$$BP$mut$u20$T$GT$3add17h9855fd366af36993E, .Lfunc_end130-_ZN4core3ptr7mut_ptr31_$LT$impl$u20$$BP$mut$u20$T$GT$3add17h9855fd366af36993E
	.cfi_endproc

	.section	".text._ZN4core3ptr7mut_ptr31_$LT$impl$u20$$BP$mut$u20$T$GT$6offset17he4fbefb5ddbb8a8aE","ax",@progbits
	.p2align	4, 0x90
	.type	_ZN4core3ptr7mut_ptr31_$LT$impl$u20$$BP$mut$u20$T$GT$6offset17he4fbefb5ddbb8a8aE,@function
_ZN4core3ptr7mut_ptr31_$LT$impl$u20$$BP$mut$u20$T$GT$6offset17he4fbefb5ddbb8a8aE:
.Lfunc_begin131:
	.loc	21 225 0
	.cfi_startproc
	subq	$32, %rsp
	.cfi_def_cfa_offset 40
	movq	%rdi, 8(%rsp)
	movq	%rsi, 16(%rsp)
.Ltmp594:
	.loc	21 232 18 prologue_end
	addq	%rsi, %rdi
	movq	%rdi, 24(%rsp)
	movq	24(%rsp), %rax
	movq	%rax, (%rsp)
	.loc	21 0 18 is_stmt 0
	movq	(%rsp), %rax
	.loc	21 233 6 is_stmt 1
	addq	$32, %rsp
	.cfi_def_cfa_offset 8
	retq
.Ltmp595:
.Lfunc_end131:
	.size	_ZN4core3ptr7mut_ptr31_$LT$impl$u20$$BP$mut$u20$T$GT$6offset17he4fbefb5ddbb8a8aE, .Lfunc_end131-_ZN4core3ptr7mut_ptr31_$LT$impl$u20$$BP$mut$u20$T$GT$6offset17he4fbefb5ddbb8a8aE
	.cfi_endproc

	.section	".text._ZN4core3ptr7mut_ptr31_$LT$impl$u20$$BP$mut$u20$T$GT$7is_null17h11120dedb0340362E","ax",@progbits
	.p2align	4, 0x90
	.type	_ZN4core3ptr7mut_ptr31_$LT$impl$u20$$BP$mut$u20$T$GT$7is_null17h11120dedb0340362E,@function
_ZN4core3ptr7mut_ptr31_$LT$impl$u20$$BP$mut$u20$T$GT$7is_null17h11120dedb0340362E:
.Lfunc_begin132:
	.loc	21 36 0
	.cfi_startproc
	subq	$24, %rsp
	.cfi_def_cfa_offset 32
	movq	%rdi, 16(%rsp)
	movq	%rdi, 8(%rsp)
	xorl	%eax, %eax
	movl	%eax, %esi
	movq	8(%rsp), %rdi
.Ltmp596:
	.loc	21 39 9 prologue_end
	callq	_ZN4core3ptr7mut_ptr31_$LT$impl$u20$$BP$mut$u20$T$GT$13guaranteed_eq17h0976ded26595b876E
	movb	%al, 7(%rsp)
	.loc	21 0 9 is_stmt 0
	movb	7(%rsp), %al
	.loc	21 40 6 is_stmt 1
	andb	$1, %al
	movzbl	%al, %eax
	addq	$24, %rsp
	.cfi_def_cfa_offset 8
	retq
.Ltmp597:
.Lfunc_end132:
	.size	_ZN4core3ptr7mut_ptr31_$LT$impl$u20$$BP$mut$u20$T$GT$7is_null17h11120dedb0340362E, .Lfunc_end132-_ZN4core3ptr7mut_ptr31_$LT$impl$u20$$BP$mut$u20$T$GT$7is_null17h11120dedb0340362E
	.cfi_endproc

	.section	".text._ZN4core3ptr7mut_ptr41_$LT$impl$u20$$BP$mut$u20$$u5b$T$u5d$$GT$10as_mut_ptr17hb85ca5895628aa7fE","ax",@progbits
	.p2align	4, 0x90
	.type	_ZN4core3ptr7mut_ptr41_$LT$impl$u20$$BP$mut$u20$$u5b$T$u5d$$GT$10as_mut_ptr17hb85ca5895628aa7fE,@function
_ZN4core3ptr7mut_ptr41_$LT$impl$u20$$BP$mut$u20$$u5b$T$u5d$$GT$10as_mut_ptr17hb85ca5895628aa7fE:
.Lfunc_begin133:
	.loc	21 1164 0
	.cfi_startproc
	subq	$16, %rsp
	.cfi_def_cfa_offset 24
	movq	%rdi, (%rsp)
	movq	%rsi, 8(%rsp)
.Ltmp598:
	.loc	21 1166 6 prologue_end
	movq	%rdi, %rax
	addq	$16, %rsp
	.cfi_def_cfa_offset 8
	retq
.Ltmp599:
.Lfunc_end133:
	.size	_ZN4core3ptr7mut_ptr41_$LT$impl$u20$$BP$mut$u20$$u5b$T$u5d$$GT$10as_mut_ptr17hb85ca5895628aa7fE, .Lfunc_end133-_ZN4core3ptr7mut_ptr41_$LT$impl$u20$$BP$mut$u20$$u5b$T$u5d$$GT$10as_mut_ptr17hb85ca5895628aa7fE
	.cfi_endproc

	.section	".text._ZN4core3ptr8non_null16NonNull$LT$T$GT$13new_unchecked17hc8b5f2ba1e0b788dE","ax",@progbits
	.p2align	4, 0x90
	.type	_ZN4core3ptr8non_null16NonNull$LT$T$GT$13new_unchecked17hc8b5f2ba1e0b788dE,@function
_ZN4core3ptr8non_null16NonNull$LT$T$GT$13new_unchecked17hc8b5f2ba1e0b788dE:
.Lfunc_begin134:
	.loc	2 154 0
	.cfi_startproc
	subq	$16, %rsp
	.cfi_def_cfa_offset 24
	movq	%rdi, 8(%rsp)
.Ltmp600:
	.loc	2 156 18 prologue_end
	movq	%rdi, (%rsp)
	.loc	2 157 6
	movq	(%rsp), %rax
	addq	$16, %rsp
	.cfi_def_cfa_offset 8
	retq
.Ltmp601:
.Lfunc_end134:
	.size	_ZN4core3ptr8non_null16NonNull$LT$T$GT$13new_unchecked17hc8b5f2ba1e0b788dE, .Lfunc_end134-_ZN4core3ptr8non_null16NonNull$LT$T$GT$13new_unchecked17hc8b5f2ba1e0b788dE
	.cfi_endproc

	.section	".text._ZN4core3ptr8non_null16NonNull$LT$T$GT$13new_unchecked17hfb08688f2de35746E","ax",@progbits
	.p2align	4, 0x90
	.type	_ZN4core3ptr8non_null16NonNull$LT$T$GT$13new_unchecked17hfb08688f2de35746E,@function
_ZN4core3ptr8non_null16NonNull$LT$T$GT$13new_unchecked17hfb08688f2de35746E:
.Lfunc_begin135:
	.loc	2 154 0
	.cfi_startproc
	subq	$32, %rsp
	.cfi_def_cfa_offset 40
	movq	%rdi, 16(%rsp)
	movq	%rsi, 24(%rsp)
.Ltmp602:
	.loc	2 156 18 prologue_end
	movq	%rdi, (%rsp)
	movq	%rsi, 8(%rsp)
	.loc	2 157 6
	movq	(%rsp), %rax
	movq	8(%rsp), %rdx
	addq	$32, %rsp
	.cfi_def_cfa_offset 8
	retq
.Ltmp603:
.Lfunc_end135:
	.size	_ZN4core3ptr8non_null16NonNull$LT$T$GT$13new_unchecked17hfb08688f2de35746E, .Lfunc_end135-_ZN4core3ptr8non_null16NonNull$LT$T$GT$13new_unchecked17hfb08688f2de35746E
	.cfi_endproc

	.section	".text._ZN4core3ptr8non_null16NonNull$LT$T$GT$3new17h576c1385beb5e368E","ax",@progbits
	.p2align	4, 0x90
	.type	_ZN4core3ptr8non_null16NonNull$LT$T$GT$3new17h576c1385beb5e368E,@function
_ZN4core3ptr8non_null16NonNull$LT$T$GT$3new17h576c1385beb5e368E:
.Lfunc_begin136:
	.loc	2 162 0
	.cfi_startproc
	subq	$40, %rsp
	.cfi_def_cfa_offset 48
	movq	%rdi, 32(%rsp)
	movq	%rdi, 16(%rsp)
.Ltmp604:
	.loc	2 163 13 prologue_end
	callq	_ZN4core3ptr7mut_ptr31_$LT$impl$u20$$BP$mut$u20$T$GT$7is_null17h11120dedb0340362E
	movb	%al, 15(%rsp)
	.loc	2 0 13 is_stmt 0
	movb	15(%rsp), %al
	.loc	2 163 12
	xorb	$-1, %al
	.loc	2 163 9
	testb	$1, %al
	jne	.LBB136_3
	.loc	2 167 13 is_stmt 1
	movq	$0, 24(%rsp)
	.loc	2 163 9
	jmp	.LBB136_5
.LBB136_3:
	.loc	2 0 9 is_stmt 0
	movq	16(%rsp), %rdi
	.loc	2 165 27 is_stmt 1
	callq	_ZN4core3ptr8non_null16NonNull$LT$T$GT$13new_unchecked17hc8b5f2ba1e0b788dE
	movq	%rax, (%rsp)
	.loc	2 0 27 is_stmt 0
	movq	(%rsp), %rax
	.loc	2 165 13
	movq	%rax, 24(%rsp)
.LBB136_5:
	.loc	2 169 6 is_stmt 1
	movq	24(%rsp), %rax
	addq	$40, %rsp
	.cfi_def_cfa_offset 8
	retq
.Ltmp605:
.Lfunc_end136:
	.size	_ZN4core3ptr8non_null16NonNull$LT$T$GT$3new17h576c1385beb5e368E, .Lfunc_end136-_ZN4core3ptr8non_null16NonNull$LT$T$GT$3new17h576c1385beb5e368E
	.cfi_endproc

	.section	".text._ZN4core3ptr8non_null16NonNull$LT$T$GT$4cast17h01e4fd89eee3be39E","ax",@progbits
	.p2align	4, 0x90
	.type	_ZN4core3ptr8non_null16NonNull$LT$T$GT$4cast17h01e4fd89eee3be39E,@function
_ZN4core3ptr8non_null16NonNull$LT$T$GT$4cast17h01e4fd89eee3be39E:
.Lfunc_begin137:
	.loc	2 255 0
	.cfi_startproc
	subq	$24, %rsp
	.cfi_def_cfa_offset 32
	movq	%rdi, 16(%rsp)
.Ltmp606:
	.loc	2 257 41 prologue_end
	callq	_ZN4core3ptr8non_null16NonNull$LT$T$GT$6as_ptr17h08cf5da251a33e63E
	movq	%rax, 8(%rsp)
	.loc	2 0 41 is_stmt 0
	movq	8(%rsp), %rax
	.loc	2 257 18
	movq	%rax, %rdi
	callq	_ZN4core3ptr8non_null16NonNull$LT$T$GT$13new_unchecked17hc8b5f2ba1e0b788dE
	movq	%rax, (%rsp)
	.loc	2 0 18
	movq	(%rsp), %rax
	.loc	2 258 6 is_stmt 1
	addq	$24, %rsp
	.cfi_def_cfa_offset 8
	retq
.Ltmp607:
.Lfunc_end137:
	.size	_ZN4core3ptr8non_null16NonNull$LT$T$GT$4cast17h01e4fd89eee3be39E, .Lfunc_end137-_ZN4core3ptr8non_null16NonNull$LT$T$GT$4cast17h01e4fd89eee3be39E
	.cfi_endproc

	.section	".text._ZN4core3ptr8non_null16NonNull$LT$T$GT$4cast17hd717b9b1655e2f43E","ax",@progbits
	.p2align	4, 0x90
	.type	_ZN4core3ptr8non_null16NonNull$LT$T$GT$4cast17hd717b9b1655e2f43E,@function
_ZN4core3ptr8non_null16NonNull$LT$T$GT$4cast17hd717b9b1655e2f43E:
.Lfunc_begin138:
	.loc	2 255 0
	.cfi_startproc
	subq	$24, %rsp
	.cfi_def_cfa_offset 32
	movq	%rdi, 16(%rsp)
.Ltmp608:
	.loc	2 257 41 prologue_end
	callq	_ZN4core3ptr8non_null16NonNull$LT$T$GT$6as_ptr17h0d53f001debc5a9dE
	movq	%rax, 8(%rsp)
	.loc	2 0 41 is_stmt 0
	movq	8(%rsp), %rax
	.loc	2 257 18
	movq	%rax, %rdi
	callq	_ZN4core3ptr8non_null16NonNull$LT$T$GT$13new_unchecked17hc8b5f2ba1e0b788dE
	movq	%rax, (%rsp)
	.loc	2 0 18
	movq	(%rsp), %rax
	.loc	2 258 6 is_stmt 1
	addq	$24, %rsp
	.cfi_def_cfa_offset 8
	retq
.Ltmp609:
.Lfunc_end138:
	.size	_ZN4core3ptr8non_null16NonNull$LT$T$GT$4cast17hd717b9b1655e2f43E, .Lfunc_end138-_ZN4core3ptr8non_null16NonNull$LT$T$GT$4cast17hd717b9b1655e2f43E
	.cfi_endproc

	.section	".text._ZN4core3ptr8non_null16NonNull$LT$T$GT$4cast17hdabb3e0d16f6905cE","ax",@progbits
	.p2align	4, 0x90
	.type	_ZN4core3ptr8non_null16NonNull$LT$T$GT$4cast17hdabb3e0d16f6905cE,@function
_ZN4core3ptr8non_null16NonNull$LT$T$GT$4cast17hdabb3e0d16f6905cE:
.Lfunc_begin139:
	.loc	2 255 0
	.cfi_startproc
	subq	$24, %rsp
	.cfi_def_cfa_offset 32
	movq	%rdi, 16(%rsp)
.Ltmp610:
	.loc	2 257 41 prologue_end
	callq	_ZN4core3ptr8non_null16NonNull$LT$T$GT$6as_ptr17h5ee6587b1dbde73fE
	movq	%rax, 8(%rsp)
	.loc	2 0 41 is_stmt 0
	movq	8(%rsp), %rax
	.loc	2 257 18
	movq	%rax, %rdi
	callq	_ZN4core3ptr8non_null16NonNull$LT$T$GT$13new_unchecked17hc8b5f2ba1e0b788dE
	movq	%rax, (%rsp)
	.loc	2 0 18
	movq	(%rsp), %rax
	.loc	2 258 6 is_stmt 1
	addq	$24, %rsp
	.cfi_def_cfa_offset 8
	retq
.Ltmp611:
.Lfunc_end139:
	.size	_ZN4core3ptr8non_null16NonNull$LT$T$GT$4cast17hdabb3e0d16f6905cE, .Lfunc_end139-_ZN4core3ptr8non_null16NonNull$LT$T$GT$4cast17hdabb3e0d16f6905cE
	.cfi_endproc

	.section	".text._ZN4core3ptr8non_null16NonNull$LT$T$GT$6as_ptr17h08cf5da251a33e63E","ax",@progbits
	.p2align	4, 0x90
	.type	_ZN4core3ptr8non_null16NonNull$LT$T$GT$6as_ptr17h08cf5da251a33e63E,@function
_ZN4core3ptr8non_null16NonNull$LT$T$GT$6as_ptr17h08cf5da251a33e63E:
.Lfunc_begin140:
	.loc	2 175 0
	.cfi_startproc
	pushq	%rax
	.cfi_def_cfa_offset 16
	movq	%rdi, (%rsp)
.Ltmp612:
	.loc	2 177 6 prologue_end
	movq	%rdi, %rax
	popq	%rcx
	.cfi_def_cfa_offset 8
	retq
.Ltmp613:
.Lfunc_end140:
	.size	_ZN4core3ptr8non_null16NonNull$LT$T$GT$6as_ptr17h08cf5da251a33e63E, .Lfunc_end140-_ZN4core3ptr8non_null16NonNull$LT$T$GT$6as_ptr17h08cf5da251a33e63E
	.cfi_endproc

	.section	".text._ZN4core3ptr8non_null16NonNull$LT$T$GT$6as_ptr17h0d53f001debc5a9dE","ax",@progbits
	.p2align	4, 0x90
	.type	_ZN4core3ptr8non_null16NonNull$LT$T$GT$6as_ptr17h0d53f001debc5a9dE,@function
_ZN4core3ptr8non_null16NonNull$LT$T$GT$6as_ptr17h0d53f001debc5a9dE:
.Lfunc_begin141:
	.loc	2 175 0
	.cfi_startproc
	pushq	%rax
	.cfi_def_cfa_offset 16
	movq	%rdi, (%rsp)
.Ltmp614:
	.loc	2 177 6 prologue_end
	movq	%rdi, %rax
	popq	%rcx
	.cfi_def_cfa_offset 8
	retq
.Ltmp615:
.Lfunc_end141:
	.size	_ZN4core3ptr8non_null16NonNull$LT$T$GT$6as_ptr17h0d53f001debc5a9dE, .Lfunc_end141-_ZN4core3ptr8non_null16NonNull$LT$T$GT$6as_ptr17h0d53f001debc5a9dE
	.cfi_endproc

	.section	".text._ZN4core3ptr8non_null16NonNull$LT$T$GT$6as_ptr17h25dd663c5fd7d09fE","ax",@progbits
	.p2align	4, 0x90
	.type	_ZN4core3ptr8non_null16NonNull$LT$T$GT$6as_ptr17h25dd663c5fd7d09fE,@function
_ZN4core3ptr8non_null16NonNull$LT$T$GT$6as_ptr17h25dd663c5fd7d09fE:
.Lfunc_begin142:
	.loc	2 175 0
	.cfi_startproc
	subq	$16, %rsp
	.cfi_def_cfa_offset 24
	movq	%rdi, (%rsp)
	movq	%rsi, 8(%rsp)
.Ltmp616:
	.loc	2 177 6 prologue_end
	movq	%rdi, %rax
	movq	%rsi, %rdx
	addq	$16, %rsp
	.cfi_def_cfa_offset 8
	retq
.Ltmp617:
.Lfunc_end142:
	.size	_ZN4core3ptr8non_null16NonNull$LT$T$GT$6as_ptr17h25dd663c5fd7d09fE, .Lfunc_end142-_ZN4core3ptr8non_null16NonNull$LT$T$GT$6as_ptr17h25dd663c5fd7d09fE
	.cfi_endproc

	.section	".text._ZN4core3ptr8non_null16NonNull$LT$T$GT$6as_ptr17h5ee6587b1dbde73fE","ax",@progbits
	.p2align	4, 0x90
	.type	_ZN4core3ptr8non_null16NonNull$LT$T$GT$6as_ptr17h5ee6587b1dbde73fE,@function
_ZN4core3ptr8non_null16NonNull$LT$T$GT$6as_ptr17h5ee6587b1dbde73fE:
.Lfunc_begin143:
	.loc	2 175 0
	.cfi_startproc
	pushq	%rax
	.cfi_def_cfa_offset 16
	movq	%rdi, (%rsp)
.Ltmp618:
	.loc	2 177 6 prologue_end
	movq	%rdi, %rax
	popq	%rcx
	.cfi_def_cfa_offset 8
	retq
.Ltmp619:
.Lfunc_end143:
	.size	_ZN4core3ptr8non_null16NonNull$LT$T$GT$6as_ptr17h5ee6587b1dbde73fE, .Lfunc_end143-_ZN4core3ptr8non_null16NonNull$LT$T$GT$6as_ptr17h5ee6587b1dbde73fE
	.cfi_endproc

	.section	".text._ZN4core3ptr8non_null16NonNull$LT$T$GT$6as_ptr17ha325ff73ce120d0cE","ax",@progbits
	.p2align	4, 0x90
	.type	_ZN4core3ptr8non_null16NonNull$LT$T$GT$6as_ptr17ha325ff73ce120d0cE,@function
_ZN4core3ptr8non_null16NonNull$LT$T$GT$6as_ptr17ha325ff73ce120d0cE:
.Lfunc_begin144:
	.loc	2 175 0
	.cfi_startproc
	pushq	%rax
	.cfi_def_cfa_offset 16
	movq	%rdi, (%rsp)
.Ltmp620:
	.loc	2 177 6 prologue_end
	movq	%rdi, %rax
	popq	%rcx
	.cfi_def_cfa_offset 8
	retq
.Ltmp621:
.Lfunc_end144:
	.size	_ZN4core3ptr8non_null16NonNull$LT$T$GT$6as_ptr17ha325ff73ce120d0cE, .Lfunc_end144-_ZN4core3ptr8non_null16NonNull$LT$T$GT$6as_ptr17ha325ff73ce120d0cE
	.cfi_endproc

	.section	".text._ZN4core3ptr8non_null16NonNull$LT$T$GT$6as_ref17h1edcbfc1637f9191E","ax",@progbits
	.p2align	4, 0x90
	.type	_ZN4core3ptr8non_null16NonNull$LT$T$GT$6as_ref17h1edcbfc1637f9191E,@function
_ZN4core3ptr8non_null16NonNull$LT$T$GT$6as_ref17h1edcbfc1637f9191E:
.Lfunc_begin145:
	.loc	2 209 0
	.cfi_startproc
	subq	$24, %rsp
	.cfi_def_cfa_offset 32
	movq	%rdi, 16(%rsp)
.Ltmp622:
	.loc	2 212 20 prologue_end
	movq	(%rdi), %rdi
	callq	_ZN4core3ptr8non_null16NonNull$LT$T$GT$6as_ptr17h5ee6587b1dbde73fE
	movq	%rax, 8(%rsp)
	.loc	2 0 20 is_stmt 0
	movq	8(%rsp), %rax
	.loc	2 213 6 is_stmt 1
	addq	$24, %rsp
	.cfi_def_cfa_offset 8
	retq
.Ltmp623:
.Lfunc_end145:
	.size	_ZN4core3ptr8non_null16NonNull$LT$T$GT$6as_ref17h1edcbfc1637f9191E, .Lfunc_end145-_ZN4core3ptr8non_null16NonNull$LT$T$GT$6as_ref17h1edcbfc1637f9191E
	.cfi_endproc

	.section	".text._ZN4core3ptr8non_null16NonNull$LT$T$GT$6as_ref17h3d0b9e1f37d79a28E","ax",@progbits
	.p2align	4, 0x90
	.type	_ZN4core3ptr8non_null16NonNull$LT$T$GT$6as_ref17h3d0b9e1f37d79a28E,@function
_ZN4core3ptr8non_null16NonNull$LT$T$GT$6as_ref17h3d0b9e1f37d79a28E:
.Lfunc_begin146:
	.loc	2 209 0
	.cfi_startproc
	subq	$24, %rsp
	.cfi_def_cfa_offset 32
	movq	%rdi, 16(%rsp)
.Ltmp624:
	.loc	2 212 20 prologue_end
	movq	(%rdi), %rdi
	callq	_ZN4core3ptr8non_null16NonNull$LT$T$GT$6as_ptr17h0d53f001debc5a9dE
	movq	%rax, 8(%rsp)
	.loc	2 0 20 is_stmt 0
	movq	8(%rsp), %rax
	.loc	2 213 6 is_stmt 1
	addq	$24, %rsp
	.cfi_def_cfa_offset 8
	retq
.Ltmp625:
.Lfunc_end146:
	.size	_ZN4core3ptr8non_null16NonNull$LT$T$GT$6as_ref17h3d0b9e1f37d79a28E, .Lfunc_end146-_ZN4core3ptr8non_null16NonNull$LT$T$GT$6as_ref17h3d0b9e1f37d79a28E
	.cfi_endproc

	.section	".text._ZN4core3ptr8non_null16NonNull$LT$T$GT$6as_ref17hf37455873ed6b352E","ax",@progbits
	.p2align	4, 0x90
	.type	_ZN4core3ptr8non_null16NonNull$LT$T$GT$6as_ref17hf37455873ed6b352E,@function
_ZN4core3ptr8non_null16NonNull$LT$T$GT$6as_ref17hf37455873ed6b352E:
.Lfunc_begin147:
	.loc	2 209 0
	.cfi_startproc
	subq	$24, %rsp
	.cfi_def_cfa_offset 32
	movq	%rdi, 16(%rsp)
.Ltmp626:
	.loc	2 212 20 prologue_end
	movq	(%rdi), %rdi
	callq	_ZN4core3ptr8non_null16NonNull$LT$T$GT$6as_ptr17h08cf5da251a33e63E
	movq	%rax, 8(%rsp)
	.loc	2 0 20 is_stmt 0
	movq	8(%rsp), %rax
	.loc	2 213 6 is_stmt 1
	addq	$24, %rsp
	.cfi_def_cfa_offset 8
	retq
.Ltmp627:
.Lfunc_end147:
	.size	_ZN4core3ptr8non_null16NonNull$LT$T$GT$6as_ref17hf37455873ed6b352E, .Lfunc_end147-_ZN4core3ptr8non_null16NonNull$LT$T$GT$6as_ref17hf37455873ed6b352E
	.cfi_endproc

	.section	".text._ZN4core3ptr8non_null26NonNull$LT$$u5b$T$u5d$$GT$10as_mut_ptr17hf366a51d3b108071E","ax",@progbits
	.p2align	4, 0x90
	.type	_ZN4core3ptr8non_null26NonNull$LT$$u5b$T$u5d$$GT$10as_mut_ptr17hf366a51d3b108071E,@function
_ZN4core3ptr8non_null26NonNull$LT$$u5b$T$u5d$$GT$10as_mut_ptr17hf366a51d3b108071E:
.Lfunc_begin148:
	.loc	2 349 0
	.cfi_startproc
	subq	$40, %rsp
	.cfi_def_cfa_offset 48
	movq	%rdi, 24(%rsp)
	movq	%rsi, 32(%rsp)
.Ltmp628:
	.loc	2 350 9 prologue_end
	callq	_ZN4core3ptr8non_null26NonNull$LT$$u5b$T$u5d$$GT$15as_non_null_ptr17he6ea705ad151dc0dE
	movq	%rax, 16(%rsp)
	.loc	2 0 9 is_stmt 0
	movq	16(%rsp), %rdi
	.loc	2 350 9
	callq	_ZN4core3ptr8non_null16NonNull$LT$T$GT$6as_ptr17ha325ff73ce120d0cE
	movq	%rax, 8(%rsp)
	.loc	2 0 9
	movq	8(%rsp), %rax
	.loc	2 351 6 is_stmt 1
	addq	$40, %rsp
	.cfi_def_cfa_offset 8
	retq
.Ltmp629:
.Lfunc_end148:
	.size	_ZN4core3ptr8non_null26NonNull$LT$$u5b$T$u5d$$GT$10as_mut_ptr17hf366a51d3b108071E, .Lfunc_end148-_ZN4core3ptr8non_null26NonNull$LT$$u5b$T$u5d$$GT$10as_mut_ptr17hf366a51d3b108071E
	.cfi_endproc

	.section	".text._ZN4core3ptr8non_null26NonNull$LT$$u5b$T$u5d$$GT$15as_non_null_ptr17he6ea705ad151dc0dE","ax",@progbits
	.p2align	4, 0x90
	.type	_ZN4core3ptr8non_null26NonNull$LT$$u5b$T$u5d$$GT$15as_non_null_ptr17he6ea705ad151dc0dE,@function
_ZN4core3ptr8non_null26NonNull$LT$$u5b$T$u5d$$GT$15as_non_null_ptr17he6ea705ad151dc0dE:
.Lfunc_begin149:
	.loc	2 330 0
	.cfi_startproc
	subq	$56, %rsp
	.cfi_def_cfa_offset 64
	movq	%rdi, 40(%rsp)
	movq	%rsi, 48(%rsp)
.Ltmp630:
	.loc	2 332 41 prologue_end
	callq	_ZN4core3ptr8non_null16NonNull$LT$T$GT$6as_ptr17h25dd663c5fd7d09fE
	movq	%rax, 32(%rsp)
	movq	%rdx, 24(%rsp)
	.loc	2 0 41 is_stmt 0
	movq	32(%rsp), %rdi
	movq	24(%rsp), %rsi
	.loc	2 332 41
	callq	_ZN4core3ptr7mut_ptr41_$LT$impl$u20$$BP$mut$u20$$u5b$T$u5d$$GT$10as_mut_ptr17hb85ca5895628aa7fE
	movq	%rax, 16(%rsp)
	.loc	2 0 41
	movq	16(%rsp), %rdi
	.loc	2 332 18
	callq	_ZN4core3ptr8non_null16NonNull$LT$T$GT$13new_unchecked17hc8b5f2ba1e0b788dE
	movq	%rax, 8(%rsp)
	.loc	2 0 18
	movq	8(%rsp), %rax
	.loc	2 333 6 is_stmt 1
	addq	$56, %rsp
	.cfi_def_cfa_offset 8
	retq
.Ltmp631:
.Lfunc_end149:
	.size	_ZN4core3ptr8non_null26NonNull$LT$$u5b$T$u5d$$GT$15as_non_null_ptr17he6ea705ad151dc0dE, .Lfunc_end149-_ZN4core3ptr8non_null26NonNull$LT$$u5b$T$u5d$$GT$15as_non_null_ptr17he6ea705ad151dc0dE
	.cfi_endproc

	.section	".text._ZN4core3ptr8non_null26NonNull$LT$$u5b$T$u5d$$GT$20slice_from_raw_parts17h877bab0c207514f8E","ax",@progbits
	.p2align	4, 0x90
	.type	_ZN4core3ptr8non_null26NonNull$LT$$u5b$T$u5d$$GT$20slice_from_raw_parts17h877bab0c207514f8E,@function
_ZN4core3ptr8non_null26NonNull$LT$$u5b$T$u5d$$GT$20slice_from_raw_parts17h877bab0c207514f8E:
.Lfunc_begin150:
	.loc	2 288 0
	.cfi_startproc
	subq	$72, %rsp
	.cfi_def_cfa_offset 80
	movq	%rdi, 56(%rsp)
	movq	%rsi, 64(%rsp)
	movq	%rsi, 48(%rsp)
.Ltmp632:
	.loc	2 290 70 prologue_end
	callq	_ZN4core3ptr8non_null16NonNull$LT$T$GT$6as_ptr17ha325ff73ce120d0cE
	movq	%rax, 40(%rsp)
	.loc	2 0 70 is_stmt 0
	movq	40(%rsp), %rdi
	movq	48(%rsp), %rsi
	.loc	2 290 38
	callq	_ZN4core3ptr24slice_from_raw_parts_mut17h70af391c3e5f6909E
	movq	%rax, 32(%rsp)
	movq	%rdx, 24(%rsp)
	.loc	2 0 38
	movq	32(%rsp), %rdi
	movq	24(%rsp), %rsi
	.loc	2 290 18
	callq	_ZN4core3ptr8non_null16NonNull$LT$T$GT$13new_unchecked17hfb08688f2de35746E
	movq	%rax, 16(%rsp)
	movq	%rdx, 8(%rsp)
	.loc	2 0 18
	movq	16(%rsp), %rax
	movq	8(%rsp), %rdx
	.loc	2 291 6 is_stmt 1
	addq	$72, %rsp
	.cfi_def_cfa_offset 8
	retq
.Ltmp633:
.Lfunc_end150:
	.size	_ZN4core3ptr8non_null26NonNull$LT$$u5b$T$u5d$$GT$20slice_from_raw_parts17h877bab0c207514f8E, .Lfunc_end150-_ZN4core3ptr8non_null26NonNull$LT$$u5b$T$u5d$$GT$20slice_from_raw_parts17h877bab0c207514f8E
	.cfi_endproc

	.section	".text._ZN4core4cell19UnsafeCell$LT$T$GT$3get17h2cfbece41a06e5b6E","ax",@progbits
	.p2align	4, 0x90
	.type	_ZN4core4cell19UnsafeCell$LT$T$GT$3get17h2cfbece41a06e5b6E,@function
_ZN4core4cell19UnsafeCell$LT$T$GT$3get17h2cfbece41a06e5b6E:
.Lfunc_begin151:
	.file	22 "/rustc/e1884a8e3c3e813aada8254edfa120e85bf5ffca/library/core/src/cell.rs"
	.loc	22 1711 0
	.cfi_startproc
	pushq	%rax
	.cfi_def_cfa_offset 16
	movq	%rdi, (%rsp)
.Ltmp634:
	.loc	22 1716 6 prologue_end
	movq	%rdi, %rax
	popq	%rcx
	.cfi_def_cfa_offset 8
	retq
.Ltmp635:
.Lfunc_end151:
	.size	_ZN4core4cell19UnsafeCell$LT$T$GT$3get17h2cfbece41a06e5b6E, .Lfunc_end151-_ZN4core4cell19UnsafeCell$LT$T$GT$3get17h2cfbece41a06e5b6E
	.cfi_endproc

	.section	".text._ZN4core4cell19UnsafeCell$LT$T$GT$3get17ha658f60d42a1725fE","ax",@progbits
	.p2align	4, 0x90
	.type	_ZN4core4cell19UnsafeCell$LT$T$GT$3get17ha658f60d42a1725fE,@function
_ZN4core4cell19UnsafeCell$LT$T$GT$3get17ha658f60d42a1725fE:
.Lfunc_begin152:
	.loc	22 1711 0
	.cfi_startproc
	pushq	%rax
	.cfi_def_cfa_offset 16
	movq	%rdi, (%rsp)
.Ltmp636:
	.loc	22 1716 6 prologue_end
	movq	%rdi, %rax
	popq	%rcx
	.cfi_def_cfa_offset 8
	retq
.Ltmp637:
.Lfunc_end152:
	.size	_ZN4core4cell19UnsafeCell$LT$T$GT$3get17ha658f60d42a1725fE, .Lfunc_end152-_ZN4core4cell19UnsafeCell$LT$T$GT$3get17ha658f60d42a1725fE
	.cfi_endproc

	.section	".text._ZN4core4cell19UnsafeCell$LT$T$GT$3get17hfb5acb011539592aE","ax",@progbits
	.p2align	4, 0x90
	.type	_ZN4core4cell19UnsafeCell$LT$T$GT$3get17hfb5acb011539592aE,@function
_ZN4core4cell19UnsafeCell$LT$T$GT$3get17hfb5acb011539592aE:
.Lfunc_begin153:
	.loc	22 1711 0
	.cfi_startproc
	pushq	%rax
	.cfi_def_cfa_offset 16
	movq	%rdi, (%rsp)
.Ltmp638:
	.loc	22 1716 6 prologue_end
	movq	%rdi, %rax
	popq	%rcx
	.cfi_def_cfa_offset 8
	retq
.Ltmp639:
.Lfunc_end153:
	.size	_ZN4core4cell19UnsafeCell$LT$T$GT$3get17hfb5acb011539592aE, .Lfunc_end153-_ZN4core4cell19UnsafeCell$LT$T$GT$3get17hfb5acb011539592aE
	.cfi_endproc

	.section	".text._ZN4core4cell19UnsafeCell$LT$T$GT$3new17h11df2450e78faa11E","ax",@progbits
	.p2align	4, 0x90
	.type	_ZN4core4cell19UnsafeCell$LT$T$GT$3new17h11df2450e78faa11E,@function
_ZN4core4cell19UnsafeCell$LT$T$GT$3new17h11df2450e78faa11E:
.Lfunc_begin154:
	.loc	22 1668 0
	.cfi_startproc
	subq	$16, %rsp
	.cfi_def_cfa_offset 24
	movq	%rdi, 8(%rsp)
.Ltmp640:
	.loc	22 1669 9 prologue_end
	movq	%rdi, (%rsp)
	.loc	22 1670 6
	movq	(%rsp), %rax
	addq	$16, %rsp
	.cfi_def_cfa_offset 8
	retq
.Ltmp641:
.Lfunc_end154:
	.size	_ZN4core4cell19UnsafeCell$LT$T$GT$3new17h11df2450e78faa11E, .Lfunc_end154-_ZN4core4cell19UnsafeCell$LT$T$GT$3new17h11df2450e78faa11E
	.cfi_endproc

	.section	".text._ZN4core4cell19UnsafeCell$LT$T$GT$3new17h192e2daf68620f8cE","ax",@progbits
	.p2align	4, 0x90
	.type	_ZN4core4cell19UnsafeCell$LT$T$GT$3new17h192e2daf68620f8cE,@function
_ZN4core4cell19UnsafeCell$LT$T$GT$3new17h192e2daf68620f8cE:
.Lfunc_begin155:
	.loc	22 1668 0
	.cfi_startproc
	subq	$24, %rsp
	.cfi_def_cfa_offset 32
	movq	%rdi, %rax
.Ltmp642:
	.loc	22 1669 22 prologue_end
	movq	(%rsi), %rcx
	movq	%rcx, (%rsp)
	movq	8(%rsi), %rcx
	movq	%rcx, 8(%rsp)
	movq	16(%rsi), %rcx
	movq	%rcx, 16(%rsp)
	.loc	22 1669 9 is_stmt 0
	movq	(%rsp), %rcx
	movq	%rcx, (%rdi)
	movq	8(%rsp), %rcx
	movq	%rcx, 8(%rdi)
	movq	16(%rsp), %rcx
	movq	%rcx, 16(%rdi)
	.loc	22 1670 6 is_stmt 1
	addq	$24, %rsp
	.cfi_def_cfa_offset 8
	retq
.Ltmp643:
.Lfunc_end155:
	.size	_ZN4core4cell19UnsafeCell$LT$T$GT$3new17h192e2daf68620f8cE, .Lfunc_end155-_ZN4core4cell19UnsafeCell$LT$T$GT$3new17h192e2daf68620f8cE
	.cfi_endproc

	.section	".text._ZN4core4cell19UnsafeCell$LT$T$GT$3new17hab7fad1db9c8eca7E","ax",@progbits
	.p2align	4, 0x90
	.type	_ZN4core4cell19UnsafeCell$LT$T$GT$3new17hab7fad1db9c8eca7E,@function
_ZN4core4cell19UnsafeCell$LT$T$GT$3new17hab7fad1db9c8eca7E:
.Lfunc_begin156:
	.loc	22 1668 0
	.cfi_startproc
	subq	$16, %rsp
	.cfi_def_cfa_offset 24
	movq	%rdi, 8(%rsp)
.Ltmp644:
	.loc	22 1669 9 prologue_end
	movq	%rdi, (%rsp)
	.loc	22 1670 6
	movq	(%rsp), %rax
	addq	$16, %rsp
	.cfi_def_cfa_offset 8
	retq
.Ltmp645:
.Lfunc_end156:
	.size	_ZN4core4cell19UnsafeCell$LT$T$GT$3new17hab7fad1db9c8eca7E, .Lfunc_end156-_ZN4core4cell19UnsafeCell$LT$T$GT$3new17hab7fad1db9c8eca7E
	.cfi_endproc

	.section	.text._ZN4core4hint9black_box17hc987a70a17193fd3E,"ax",@progbits
	.p2align	4, 0x90
	.type	_ZN4core4hint9black_box17hc987a70a17193fd3E,@function
_ZN4core4hint9black_box17hc987a70a17193fd3E:
.Lfunc_begin157:
	.file	23 "/rustc/e1884a8e3c3e813aada8254edfa120e85bf5ffca/library/core/src/hint.rs"
	.loc	23 159 0
	.cfi_startproc
	pushq	%rax
	.cfi_def_cfa_offset 16
	movq	%rsp, %rax
.Ltmp646:
	.loc	23 170 9 prologue_end
	#APP
	#NO_APP
	.loc	23 174 2
	popq	%rax
	.cfi_def_cfa_offset 8
	retq
.Ltmp647:
.Lfunc_end157:
	.size	_ZN4core4hint9black_box17hc987a70a17193fd3E, .Lfunc_end157-_ZN4core4hint9black_box17hc987a70a17193fd3E
	.cfi_endproc

	.section	".text._ZN4core4iter5range101_$LT$impl$u20$core..iter..traits..iterator..Iterator$u20$for$u20$core..ops..range..Range$LT$A$GT$$GT$4next17h11bd64e246dcd188E","ax",@progbits
	.p2align	4, 0x90
	.type	_ZN4core4iter5range101_$LT$impl$u20$core..iter..traits..iterator..Iterator$u20$for$u20$core..ops..range..Range$LT$A$GT$$GT$4next17h11bd64e246dcd188E,@function
_ZN4core4iter5range101_$LT$impl$u20$core..iter..traits..iterator..Iterator$u20$for$u20$core..ops..range..Range$LT$A$GT$$GT$4next17h11bd64e246dcd188E:
.Lfunc_begin158:
	.loc	10 504 0
	.cfi_startproc
	subq	$72, %rsp
	.cfi_def_cfa_offset 80
	movq	%rdi, 56(%rsp)
.Ltmp648:
	.loc	10 505 12 prologue_end
	movq	%rdi, %rax
	.loc	10 505 25 is_stmt 0
	movq	%rdi, %rcx
	addq	$8, %rcx
	movq	%rdi, 32(%rsp)
	.loc	10 505 12
	movq	%rax, %rdi
	movq	%rcx, %rsi
	callq	_ZN4core3cmp5impls55_$LT$impl$u20$core..cmp..PartialOrd$u20$for$u20$i64$GT$2lt17h78f8f4d44236359dE
	movb	%al, 31(%rsp)
	.loc	10 0 12
	movb	31(%rsp), %al
	.loc	10 505 9
	testb	$1, %al
	jne	.LBB158_3
	jmp	.LBB158_2
.LBB158_2:
	.loc	10 510 13 is_stmt 1
	movq	$0, 40(%rsp)
	.loc	10 505 9
	jmp	.LBB158_7
.LBB158_3:
	.loc	10 0 9 is_stmt 0
	movq	32(%rsp), %rax
	.loc	10 507 54 is_stmt 1
	movq	%rax, %rdi
	callq	_ZN4core5clone5impls52_$LT$impl$u20$core..clone..Clone$u20$for$u20$i64$GT$5clone17h53b8ef8f58a56be4E
	movq	%rax, 16(%rsp)
	.loc	10 0 54 is_stmt 0
	movq	16(%rsp), %rdi
	.loc	10 507 30
	movl	$1, %esi
	callq	_ZN47_$LT$i64$u20$as$u20$core..iter..range..Step$GT$17forward_unchecked17h1bdf44c9d8fb49bcE
	movq	%rax, 64(%rsp)
	movq	%rax, 8(%rsp)
	.loc	10 0 30
	movq	32(%rsp), %rax
.Ltmp649:
	.loc	10 508 18 is_stmt 1
	movq	%rax, %rdi
	movq	8(%rsp), %rsi
	callq	_ZN4core3mem7replace17h5e1d35c06e688d0cE
	movq	%rax, (%rsp)
	.loc	10 0 18 is_stmt 0
	movq	(%rsp), %rax
	.loc	10 508 13
	movq	%rax, 48(%rsp)
	movq	$1, 40(%rsp)
.Ltmp650:
.LBB158_7:
	.loc	10 512 6 is_stmt 1
	movq	40(%rsp), %rax
	movq	48(%rsp), %rdx
	addq	$72, %rsp
	.cfi_def_cfa_offset 8
	retq
.Ltmp651:
.Lfunc_end158:
	.size	_ZN4core4iter5range101_$LT$impl$u20$core..iter..traits..iterator..Iterator$u20$for$u20$core..ops..range..Range$LT$A$GT$$GT$4next17h11bd64e246dcd188E, .Lfunc_end158-_ZN4core4iter5range101_$LT$impl$u20$core..iter..traits..iterator..Iterator$u20$for$u20$core..ops..range..Range$LT$A$GT$$GT$4next17h11bd64e246dcd188E
	.cfi_endproc

	.section	.text._ZN4core4sync6atomic10atomic_add17h9eef6b58ab9e10e0E,"ax",@progbits
	.p2align	4, 0x90
	.type	_ZN4core4sync6atomic10atomic_add17h9eef6b58ab9e10e0E,@function
_ZN4core4sync6atomic10atomic_add17h9eef6b58ab9e10e0E:
.Lfunc_begin159:
	.file	24 "/rustc/e1884a8e3c3e813aada8254edfa120e85bf5ffca/library/core/src/sync/atomic.rs"
	.loc	24 2381 0
	.cfi_startproc
	subq	$56, %rsp
	.cfi_def_cfa_offset 64
	movb	%dl, 31(%rsp)
	movq	%rdi, 40(%rsp)
	movq	%rsi, 48(%rsp)
.Ltmp652:
	.loc	24 2385 13 prologue_end
	movzbl	31(%rsp), %eax
	movl	%eax, %ecx
	movq	%rsi, 16(%rsp)
	movq	%rdi, 8(%rsp)
	movq	%rcx, (%rsp)
	.loc	24 0 13 is_stmt 0
	leaq	.LJTI159_0(%rip), %rax
	movq	(%rsp), %rcx
	movslq	(%rax,%rcx,4), %rdx
	addq	%rax, %rdx
	jmpq	*%rdx
.LBB159_1:
	movq	16(%rsp), %rax
	movq	8(%rsp), %rcx
	.loc	24 2389 23 is_stmt 1
	lock		xaddq	%rax, (%rcx)
	movq	%rax, 32(%rsp)
	jmp	.LBB159_11
	.cfi_def_cfa_offset 8
	.loc	24 2384 15
	ud2
.LBB159_3:
	.cfi_def_cfa_offset 64
	.loc	24 0 15 is_stmt 0
	movq	16(%rsp), %rax
	movq	8(%rsp), %rcx
	.loc	24 2385 24 is_stmt 1
	lock		xaddq	%rax, (%rcx)
	movq	%rax, 32(%rsp)
	.loc	24 2384 9
	jmp	.LBB159_12
.LBB159_5:
	.loc	24 0 9 is_stmt 0
	movq	16(%rsp), %rax
	movq	8(%rsp), %rcx
	.loc	24 2386 24 is_stmt 1
	lock		xaddq	%rax, (%rcx)
	movq	%rax, 32(%rsp)
	.loc	24 2384 9
	jmp	.LBB159_12
.LBB159_7:
	.loc	24 0 9 is_stmt 0
	movq	16(%rsp), %rax
	movq	8(%rsp), %rcx
	.loc	24 2387 23 is_stmt 1
	lock		xaddq	%rax, (%rcx)
	movq	%rax, 32(%rsp)
	.loc	24 2384 9
	jmp	.LBB159_12
.LBB159_9:
	.loc	24 0 9 is_stmt 0
	movq	16(%rsp), %rax
	movq	8(%rsp), %rcx
	.loc	24 2388 24 is_stmt 1
	lock		xaddq	%rax, (%rcx)
	movq	%rax, 32(%rsp)
	.loc	24 2384 9
	jmp	.LBB159_12
.LBB159_11:
	jmp	.LBB159_12
.LBB159_12:
	.loc	24 2392 2
	movq	32(%rsp), %rax
	addq	$56, %rsp
	.cfi_def_cfa_offset 8
	retq
.Ltmp653:
.Lfunc_end159:
	.size	_ZN4core4sync6atomic10atomic_add17h9eef6b58ab9e10e0E, .Lfunc_end159-_ZN4core4sync6atomic10atomic_add17h9eef6b58ab9e10e0E
	.cfi_endproc
	.section	.rodata._ZN4core4sync6atomic10atomic_add17h9eef6b58ab9e10e0E,"a",@progbits
	.p2align	2
.LJTI159_0:
	.long	.LBB159_9-.LJTI159_0
	.long	.LBB159_5-.LJTI159_0
	.long	.LBB159_3-.LJTI159_0
	.long	.LBB159_7-.LJTI159_0
	.long	.LBB159_1-.LJTI159_0

	.section	.text._ZN4core4sync6atomic10atomic_add17hde93cc232f4e931fE,"ax",@progbits
	.p2align	4, 0x90
	.type	_ZN4core4sync6atomic10atomic_add17hde93cc232f4e931fE,@function
_ZN4core4sync6atomic10atomic_add17hde93cc232f4e931fE:
.Lfunc_begin160:
	.loc	24 2381 0
	.cfi_startproc
	subq	$56, %rsp
	.cfi_def_cfa_offset 64
	movb	%dl, 31(%rsp)
	movq	%rdi, 40(%rsp)
	movq	%rsi, 48(%rsp)
.Ltmp654:
	.loc	24 2385 13 prologue_end
	movzbl	31(%rsp), %eax
	movl	%eax, %ecx
	movq	%rsi, 16(%rsp)
	movq	%rdi, 8(%rsp)
	movq	%rcx, (%rsp)
	.loc	24 0 13 is_stmt 0
	leaq	.LJTI160_0(%rip), %rax
	movq	(%rsp), %rcx
	movslq	(%rax,%rcx,4), %rdx
	addq	%rax, %rdx
	jmpq	*%rdx
.LBB160_1:
	movq	16(%rsp), %rax
	movq	8(%rsp), %rcx
	.loc	24 2389 23 is_stmt 1
	lock		xaddq	%rax, (%rcx)
	movq	%rax, 32(%rsp)
	jmp	.LBB160_11
	.cfi_def_cfa_offset 8
	.loc	24 2384 15
	ud2
.LBB160_3:
	.cfi_def_cfa_offset 64
	.loc	24 0 15 is_stmt 0
	movq	16(%rsp), %rax
	movq	8(%rsp), %rcx
	.loc	24 2385 24 is_stmt 1
	lock		xaddq	%rax, (%rcx)
	movq	%rax, 32(%rsp)
	.loc	24 2384 9
	jmp	.LBB160_12
.LBB160_5:
	.loc	24 0 9 is_stmt 0
	movq	16(%rsp), %rax
	movq	8(%rsp), %rcx
	.loc	24 2386 24 is_stmt 1
	lock		xaddq	%rax, (%rcx)
	movq	%rax, 32(%rsp)
	.loc	24 2384 9
	jmp	.LBB160_12
.LBB160_7:
	.loc	24 0 9 is_stmt 0
	movq	16(%rsp), %rax
	movq	8(%rsp), %rcx
	.loc	24 2387 23 is_stmt 1
	lock		xaddq	%rax, (%rcx)
	movq	%rax, 32(%rsp)
	.loc	24 2384 9
	jmp	.LBB160_12
.LBB160_9:
	.loc	24 0 9 is_stmt 0
	movq	16(%rsp), %rax
	movq	8(%rsp), %rcx
	.loc	24 2388 24 is_stmt 1
	lock		xaddq	%rax, (%rcx)
	movq	%rax, 32(%rsp)
	.loc	24 2384 9
	jmp	.LBB160_12
.LBB160_11:
	jmp	.LBB160_12
.LBB160_12:
	.loc	24 2392 2
	movq	32(%rsp), %rax
	addq	$56, %rsp
	.cfi_def_cfa_offset 8
	retq
.Ltmp655:
.Lfunc_end160:
	.size	_ZN4core4sync6atomic10atomic_add17hde93cc232f4e931fE, .Lfunc_end160-_ZN4core4sync6atomic10atomic_add17hde93cc232f4e931fE
	.cfi_endproc
	.section	.rodata._ZN4core4sync6atomic10atomic_add17hde93cc232f4e931fE,"a",@progbits
	.p2align	2
.LJTI160_0:
	.long	.LBB160_9-.LJTI160_0
	.long	.LBB160_5-.LJTI160_0
	.long	.LBB160_3-.LJTI160_0
	.long	.LBB160_7-.LJTI160_0
	.long	.LBB160_1-.LJTI160_0

	.section	.text._ZN4core4sync6atomic10atomic_sub17h265a8ab89756142cE,"ax",@progbits
	.p2align	4, 0x90
	.type	_ZN4core4sync6atomic10atomic_sub17h265a8ab89756142cE,@function
_ZN4core4sync6atomic10atomic_sub17h265a8ab89756142cE:
.Lfunc_begin161:
	.loc	24 2397 0
	.cfi_startproc
	subq	$56, %rsp
	.cfi_def_cfa_offset 64
	movb	%dl, 31(%rsp)
	movq	%rdi, 40(%rsp)
	movq	%rsi, 48(%rsp)
.Ltmp656:
	.loc	24 2401 13 prologue_end
	movzbl	31(%rsp), %eax
	movl	%eax, %ecx
	movq	%rsi, 16(%rsp)
	movq	%rdi, 8(%rsp)
	movq	%rcx, (%rsp)
	.loc	24 0 13 is_stmt 0
	leaq	.LJTI161_0(%rip), %rax
	movq	(%rsp), %rcx
	movslq	(%rax,%rcx,4), %rdx
	addq	%rax, %rdx
	jmpq	*%rdx
.LBB161_1:
	movq	16(%rsp), %rax
	.loc	24 2405 23 is_stmt 1
	negq	%rax
	movq	8(%rsp), %rcx
	lock		xaddq	%rax, (%rcx)
	movq	%rax, 32(%rsp)
	jmp	.LBB161_11
	.cfi_def_cfa_offset 8
	.loc	24 2400 15
	ud2
.LBB161_3:
	.cfi_def_cfa_offset 64
	.loc	24 0 15 is_stmt 0
	movq	16(%rsp), %rax
	.loc	24 2401 24 is_stmt 1
	negq	%rax
	movq	8(%rsp), %rcx
	lock		xaddq	%rax, (%rcx)
	movq	%rax, 32(%rsp)
	.loc	24 2400 9
	jmp	.LBB161_12
.LBB161_5:
	.loc	24 0 9 is_stmt 0
	movq	16(%rsp), %rax
	.loc	24 2402 24 is_stmt 1
	negq	%rax
	movq	8(%rsp), %rcx
	lock		xaddq	%rax, (%rcx)
	movq	%rax, 32(%rsp)
	.loc	24 2400 9
	jmp	.LBB161_12
.LBB161_7:
	.loc	24 0 9 is_stmt 0
	movq	16(%rsp), %rax
	.loc	24 2403 23 is_stmt 1
	negq	%rax
	movq	8(%rsp), %rcx
	lock		xaddq	%rax, (%rcx)
	movq	%rax, 32(%rsp)
	.loc	24 2400 9
	jmp	.LBB161_12
.LBB161_9:
	.loc	24 0 9 is_stmt 0
	movq	16(%rsp), %rax
	.loc	24 2404 24 is_stmt 1
	negq	%rax
	movq	8(%rsp), %rcx
	lock		xaddq	%rax, (%rcx)
	movq	%rax, 32(%rsp)
	.loc	24 2400 9
	jmp	.LBB161_12
.LBB161_11:
	jmp	.LBB161_12
.LBB161_12:
	.loc	24 2408 2
	movq	32(%rsp), %rax
	addq	$56, %rsp
	.cfi_def_cfa_offset 8
	retq
.Ltmp657:
.Lfunc_end161:
	.size	_ZN4core4sync6atomic10atomic_sub17h265a8ab89756142cE, .Lfunc_end161-_ZN4core4sync6atomic10atomic_sub17h265a8ab89756142cE
	.cfi_endproc
	.section	.rodata._ZN4core4sync6atomic10atomic_sub17h265a8ab89756142cE,"a",@progbits
	.p2align	2
.LJTI161_0:
	.long	.LBB161_9-.LJTI161_0
	.long	.LBB161_5-.LJTI161_0
	.long	.LBB161_3-.LJTI161_0
	.long	.LBB161_7-.LJTI161_0
	.long	.LBB161_1-.LJTI161_0

	.section	.text._ZN4core4sync6atomic11AtomicUsize3new17hcfdb1e2e6614651dE,"ax",@progbits
	.p2align	4, 0x90
	.type	_ZN4core4sync6atomic11AtomicUsize3new17hcfdb1e2e6614651dE,@function
_ZN4core4sync6atomic11AtomicUsize3new17hcfdb1e2e6614651dE:
.Lfunc_begin162:
	.loc	24 1374 0
	.cfi_startproc
	subq	$24, %rsp
	.cfi_def_cfa_offset 32
	movq	%rdi, 16(%rsp)
.Ltmp658:
	.loc	24 1375 30 prologue_end
	callq	_ZN4core4cell19UnsafeCell$LT$T$GT$3new17h11df2450e78faa11E
	movq	%rax, (%rsp)
	.loc	24 0 30 is_stmt 0
	movq	(%rsp), %rax
	.loc	24 1375 21
	movq	%rax, 8(%rsp)
	.loc	24 1376 18 is_stmt 1
	movq	8(%rsp), %rax
	addq	$24, %rsp
	.cfi_def_cfa_offset 8
	retq
.Ltmp659:
.Lfunc_end162:
	.size	_ZN4core4sync6atomic11AtomicUsize3new17hcfdb1e2e6614651dE, .Lfunc_end162-_ZN4core4sync6atomic11AtomicUsize3new17hcfdb1e2e6614651dE
	.cfi_endproc

	.section	.text._ZN4core4sync6atomic11AtomicUsize9fetch_add17h7694dc7bcc2f2c28E,"ax",@progbits
	.p2align	4, 0x90
	.type	_ZN4core4sync6atomic11AtomicUsize9fetch_add17h7694dc7bcc2f2c28E,@function
_ZN4core4sync6atomic11AtomicUsize9fetch_add17h7694dc7bcc2f2c28E:
.Lfunc_begin163:
	.loc	24 1720 0
	.cfi_startproc
	subq	$56, %rsp
	.cfi_def_cfa_offset 64
	movq	%rdi, 32(%rsp)
	movq	%rsi, 40(%rsp)
	movb	%dl, 55(%rsp)
	movq	%rsi, 24(%rsp)
	movb	%dl, 23(%rsp)
.Ltmp660:
	.loc	24 1722 41 prologue_end
	callq	_ZN4core4cell19UnsafeCell$LT$T$GT$3get17ha658f60d42a1725fE
	movq	%rax, 8(%rsp)
	.loc	24 0 41 is_stmt 0
	movq	8(%rsp), %rdi
	movq	24(%rsp), %rsi
	movb	23(%rsp), %al
	.loc	24 1722 30
	movzbl	%al, %edx
	callq	_ZN4core4sync6atomic10atomic_add17hde93cc232f4e931fE
	movq	%rax, (%rsp)
	.loc	24 0 30
	movq	(%rsp), %rax
	.loc	24 1723 18 is_stmt 1
	addq	$56, %rsp
	.cfi_def_cfa_offset 8
	retq
.Ltmp661:
.Lfunc_end163:
	.size	_ZN4core4sync6atomic11AtomicUsize9fetch_add17h7694dc7bcc2f2c28E, .Lfunc_end163-_ZN4core4sync6atomic11AtomicUsize9fetch_add17h7694dc7bcc2f2c28E
	.cfi_endproc

	.section	.text._ZN4core4sync6atomic11AtomicUsize9fetch_sub17h6937412cea79fd0eE,"ax",@progbits
	.p2align	4, 0x90
	.type	_ZN4core4sync6atomic11AtomicUsize9fetch_sub17h6937412cea79fd0eE,@function
_ZN4core4sync6atomic11AtomicUsize9fetch_sub17h6937412cea79fd0eE:
.Lfunc_begin164:
	.loc	24 1751 0
	.cfi_startproc
	subq	$56, %rsp
	.cfi_def_cfa_offset 64
	movq	%rdi, 32(%rsp)
	movq	%rsi, 40(%rsp)
	movb	%dl, 55(%rsp)
	movq	%rsi, 24(%rsp)
	movb	%dl, 23(%rsp)
.Ltmp662:
	.loc	24 1753 41 prologue_end
	callq	_ZN4core4cell19UnsafeCell$LT$T$GT$3get17ha658f60d42a1725fE
	movq	%rax, 8(%rsp)
	.loc	24 0 41 is_stmt 0
	movq	8(%rsp), %rdi
	movq	24(%rsp), %rsi
	movb	23(%rsp), %al
	.loc	24 1753 30
	movzbl	%al, %edx
	callq	_ZN4core4sync6atomic10atomic_sub17h265a8ab89756142cE
	movq	%rax, (%rsp)
	.loc	24 0 30
	movq	(%rsp), %rax
	.loc	24 1754 18 is_stmt 1
	addq	$56, %rsp
	.cfi_def_cfa_offset 8
	retq
.Ltmp663:
.Lfunc_end164:
	.size	_ZN4core4sync6atomic11AtomicUsize9fetch_sub17h6937412cea79fd0eE, .Lfunc_end164-_ZN4core4sync6atomic11AtomicUsize9fetch_sub17h6937412cea79fd0eE
	.cfi_endproc

	.section	.text._ZN4core4sync6atomic11atomic_load17h8da1f8ab87307570E,"ax",@progbits
	.p2align	4, 0x90
	.type	_ZN4core4sync6atomic11atomic_load17h8da1f8ab87307570E,@function
_ZN4core4sync6atomic11atomic_load17h8da1f8ab87307570E:
.Lfunc_begin165:
	.loc	24 2350 0
	.cfi_startproc
	subq	$40, %rsp
	.cfi_def_cfa_offset 48
	movb	%sil, 23(%rsp)
	movq	%rdi, 32(%rsp)
.Ltmp664:
	.loc	24 2354 13 prologue_end
	movzbl	23(%rsp), %eax
	movl	%eax, %ecx
	movq	%rdi, 8(%rsp)
	movq	%rcx, (%rsp)
	.loc	24 0 13 is_stmt 0
	leaq	.LJTI165_0(%rip), %rax
	movq	(%rsp), %rcx
	movslq	(%rax,%rcx,4), %rdx
	addq	%rax, %rdx
	jmpq	*%rdx
.LBB165_1:
	.loc	24 2358 23 is_stmt 1
	leaq	.L__unnamed_9(%rip), %rdi
	leaq	.L__unnamed_10(%rip), %rdx
	movq	_ZN4core9panicking5panic17h339b30ca166fd852E@GOTPCREL(%rip), %rax
	movl	$49, %esi
	callq	*%rax
	ud2
	.cfi_def_cfa_offset 8
	.loc	24 2353 15
	ud2
.LBB165_3:
	.cfi_def_cfa_offset 48
	.loc	24 0 15 is_stmt 0
	movq	8(%rsp), %rax
	.loc	24 2354 24 is_stmt 1
	movq	(%rax), %rcx
	movq	%rcx, 24(%rsp)
	.loc	24 2353 9
	jmp	.LBB165_10
.LBB165_5:
	.loc	24 0 9 is_stmt 0
	movq	8(%rsp), %rax
	.loc	24 2355 24 is_stmt 1
	movq	(%rax), %rcx
	movq	%rcx, 24(%rsp)
	.loc	24 2353 9
	jmp	.LBB165_10
.LBB165_7:
	.loc	24 0 9 is_stmt 0
	movq	8(%rsp), %rax
	.loc	24 2356 23 is_stmt 1
	movq	(%rax), %rcx
	movq	%rcx, 24(%rsp)
	.loc	24 2353 9
	jmp	.LBB165_10
.LBB165_9:
	.loc	24 2357 24
	leaq	.L__unnamed_11(%rip), %rdi
	leaq	.L__unnamed_12(%rip), %rdx
	movq	_ZN4core9panicking5panic17h339b30ca166fd852E@GOTPCREL(%rip), %rax
	movl	$40, %esi
	callq	*%rax
	ud2
.LBB165_10:
	.loc	24 2361 2
	movq	24(%rsp), %rax
	addq	$40, %rsp
	.cfi_def_cfa_offset 8
	retq
.Ltmp665:
.Lfunc_end165:
	.size	_ZN4core4sync6atomic11atomic_load17h8da1f8ab87307570E, .Lfunc_end165-_ZN4core4sync6atomic11atomic_load17h8da1f8ab87307570E
	.cfi_endproc
	.section	.rodata._ZN4core4sync6atomic11atomic_load17h8da1f8ab87307570E,"a",@progbits
	.p2align	2
.LJTI165_0:
	.long	.LBB165_5-.LJTI165_0
	.long	.LBB165_9-.LJTI165_0
	.long	.LBB165_3-.LJTI165_0
	.long	.LBB165_1-.LJTI165_0
	.long	.LBB165_7-.LJTI165_0

	.section	.text._ZN4core4sync6atomic5fence17h0c70b596c58522f1E,"ax",@progbits
	.p2align	4, 0x90
	.type	_ZN4core4sync6atomic5fence17h0c70b596c58522f1E,@function
_ZN4core4sync6atomic5fence17h0c70b596c58522f1E:
.Lfunc_begin166:
	.loc	24 2664 0
	.cfi_startproc
	subq	$24, %rsp
	.cfi_def_cfa_offset 32
	movb	%dil, 15(%rsp)
.Ltmp666:
	.loc	24 2668 13 prologue_end
	movzbl	15(%rsp), %eax
	movl	%eax, %ecx
	movq	%rcx, (%rsp)
	.loc	24 0 13 is_stmt 0
	leaq	.LJTI166_0(%rip), %rax
	movq	(%rsp), %rcx
	movslq	(%rax,%rcx,4), %rdx
	addq	%rax, %rdx
	jmpq	*%rdx
.LBB166_1:
	.loc	24 2672 24 is_stmt 1
	leaq	.L__unnamed_13(%rip), %rdi
	leaq	.L__unnamed_14(%rip), %rdx
	movq	_ZN4core9panicking5panic17h339b30ca166fd852E@GOTPCREL(%rip), %rax
	movl	$41, %esi
	callq	*%rax
	ud2
	.cfi_def_cfa_offset 8
	.loc	24 2667 15
	ud2
.LBB166_3:
	.cfi_def_cfa_offset 32
	.loc	24 2668 24
	#MEMBARRIER
	jmp	.LBB166_7
.LBB166_4:
	.loc	24 2669 24
	#MEMBARRIER
	jmp	.LBB166_7
.LBB166_5:
	.loc	24 2670 23
	#MEMBARRIER
	jmp	.LBB166_7
.LBB166_6:
	.loc	24 2671 23
	mfence
.LBB166_7:
	.loc	24 2675 2
	addq	$24, %rsp
	.cfi_def_cfa_offset 8
	retq
.Ltmp667:
.Lfunc_end166:
	.size	_ZN4core4sync6atomic5fence17h0c70b596c58522f1E, .Lfunc_end166-_ZN4core4sync6atomic5fence17h0c70b596c58522f1E
	.cfi_endproc
	.section	.rodata._ZN4core4sync6atomic5fence17h0c70b596c58522f1E,"a",@progbits
	.p2align	2
.LJTI166_0:
	.long	.LBB166_1-.LJTI166_0
	.long	.LBB166_4-.LJTI166_0
	.long	.LBB166_3-.LJTI166_0
	.long	.LBB166_5-.LJTI166_0
	.long	.LBB166_6-.LJTI166_0

	.section	.text._ZN4core4sync6atomic9AtomicI643new17h68698a23775a210dE,"ax",@progbits
	.p2align	4, 0x90
	.type	_ZN4core4sync6atomic9AtomicI643new17h68698a23775a210dE,@function
_ZN4core4sync6atomic9AtomicI643new17h68698a23775a210dE:
.Lfunc_begin167:
	.loc	24 1374 0
	.cfi_startproc
	subq	$24, %rsp
	.cfi_def_cfa_offset 32
	movq	%rdi, 16(%rsp)
.Ltmp668:
	.loc	24 1375 30 prologue_end
	callq	_ZN4core4cell19UnsafeCell$LT$T$GT$3new17hab7fad1db9c8eca7E
	movq	%rax, (%rsp)
	.loc	24 0 30 is_stmt 0
	movq	(%rsp), %rax
	.loc	24 1375 21
	movq	%rax, 8(%rsp)
	.loc	24 1376 18 is_stmt 1
	movq	8(%rsp), %rax
	addq	$24, %rsp
	.cfi_def_cfa_offset 8
	retq
.Ltmp669:
.Lfunc_end167:
	.size	_ZN4core4sync6atomic9AtomicI643new17h68698a23775a210dE, .Lfunc_end167-_ZN4core4sync6atomic9AtomicI643new17h68698a23775a210dE
	.cfi_endproc

	.section	.text._ZN4core4sync6atomic9AtomicI644load17h4850f0dabc8bc5efE,"ax",@progbits
	.p2align	4, 0x90
	.type	_ZN4core4sync6atomic9AtomicI644load17h4850f0dabc8bc5efE,@function
_ZN4core4sync6atomic9AtomicI644load17h4850f0dabc8bc5efE:
.Lfunc_begin168:
	.loc	24 1484 0
	.cfi_startproc
	subq	$40, %rsp
	.cfi_def_cfa_offset 48
	movq	%rdi, 24(%rsp)
	movb	%sil, 39(%rsp)
	movb	%sil, 23(%rsp)
.Ltmp670:
	.loc	24 1486 42 prologue_end
	callq	_ZN4core4cell19UnsafeCell$LT$T$GT$3get17hfb5acb011539592aE
	movq	%rax, 8(%rsp)
	.loc	24 0 42 is_stmt 0
	movq	8(%rsp), %rdi
	movb	23(%rsp), %al
	.loc	24 1486 30
	movzbl	%al, %esi
	callq	_ZN4core4sync6atomic11atomic_load17h8da1f8ab87307570E
	movq	%rax, (%rsp)
	.loc	24 0 30
	movq	(%rsp), %rax
	.loc	24 1487 18 is_stmt 1
	addq	$40, %rsp
	.cfi_def_cfa_offset 8
	retq
.Ltmp671:
.Lfunc_end168:
	.size	_ZN4core4sync6atomic9AtomicI644load17h4850f0dabc8bc5efE, .Lfunc_end168-_ZN4core4sync6atomic9AtomicI644load17h4850f0dabc8bc5efE
	.cfi_endproc

	.section	.text._ZN4core4sync6atomic9AtomicI649fetch_add17hb75d87e5a99ce843E,"ax",@progbits
	.p2align	4, 0x90
	.type	_ZN4core4sync6atomic9AtomicI649fetch_add17hb75d87e5a99ce843E,@function
_ZN4core4sync6atomic9AtomicI649fetch_add17hb75d87e5a99ce843E:
.Lfunc_begin169:
	.loc	24 1720 0
	.cfi_startproc
	subq	$56, %rsp
	.cfi_def_cfa_offset 64
	movq	%rdi, 32(%rsp)
	movq	%rsi, 40(%rsp)
	movb	%dl, 55(%rsp)
	movq	%rsi, 24(%rsp)
	movb	%dl, 23(%rsp)
.Ltmp672:
	.loc	24 1722 41 prologue_end
	callq	_ZN4core4cell19UnsafeCell$LT$T$GT$3get17hfb5acb011539592aE
	movq	%rax, 8(%rsp)
	.loc	24 0 41 is_stmt 0
	movq	8(%rsp), %rdi
	movq	24(%rsp), %rsi
	movb	23(%rsp), %al
	.loc	24 1722 30
	movzbl	%al, %edx
	callq	_ZN4core4sync6atomic10atomic_add17h9eef6b58ab9e10e0E
	movq	%rax, (%rsp)
	.loc	24 0 30
	movq	(%rsp), %rax
	.loc	24 1723 18 is_stmt 1
	addq	$56, %rsp
	.cfi_def_cfa_offset 8
	retq
.Ltmp673:
.Lfunc_end169:
	.size	_ZN4core4sync6atomic9AtomicI649fetch_add17hb75d87e5a99ce843E, .Lfunc_end169-_ZN4core4sync6atomic9AtomicI649fetch_add17hb75d87e5a99ce843E
	.cfi_endproc

	.section	.text._ZN4core5alloc6layout6Layout25from_size_align_unchecked17hdba2f2a0344d19b5E,"ax",@progbits
	.p2align	4, 0x90
	.type	_ZN4core5alloc6layout6Layout25from_size_align_unchecked17hdba2f2a0344d19b5E,@function
_ZN4core5alloc6layout6Layout25from_size_align_unchecked17hdba2f2a0344d19b5E:
.Lfunc_begin170:
	.file	25 "/rustc/e1884a8e3c3e813aada8254edfa120e85bf5ffca/library/core/src/alloc/layout.rs"
	.loc	25 92 0
	.cfi_startproc
	subq	$56, %rsp
	.cfi_def_cfa_offset 64
	movq	%rdi, 40(%rsp)
	movq	%rsi, 48(%rsp)
	movq	%rdi, 16(%rsp)
.Ltmp674:
	.loc	25 94 48 prologue_end
	movq	%rsi, %rdi
	callq	_ZN4core3num7nonzero12NonZeroUsize13new_unchecked17hc840211968914537E
	movq	%rax, 8(%rsp)
	.loc	25 0 48 is_stmt 0
	movq	16(%rsp), %rax
	.loc	25 94 9
	movq	%rax, 24(%rsp)
	movq	8(%rsp), %rcx
	movq	%rcx, 32(%rsp)
	.loc	25 95 6 is_stmt 1
	movq	24(%rsp), %rax
	movq	32(%rsp), %rdx
	addq	$56, %rsp
	.cfi_def_cfa_offset 8
	retq
.Ltmp675:
.Lfunc_end170:
	.size	_ZN4core5alloc6layout6Layout25from_size_align_unchecked17hdba2f2a0344d19b5E, .Lfunc_end170-_ZN4core5alloc6layout6Layout25from_size_align_unchecked17hdba2f2a0344d19b5E
	.cfi_endproc

	.section	.text._ZN4core5alloc6layout6Layout4size17h8adfadae00526f6bE,"ax",@progbits
	.p2align	4, 0x90
	.type	_ZN4core5alloc6layout6Layout4size17h8adfadae00526f6bE,@function
_ZN4core5alloc6layout6Layout4size17h8adfadae00526f6bE:
.Lfunc_begin171:
	.loc	25 101 0
	.cfi_startproc
	pushq	%rax
	.cfi_def_cfa_offset 16
	movq	%rdi, (%rsp)
.Ltmp676:
	.loc	25 102 9 prologue_end
	movq	(%rdi), %rax
	.loc	25 103 6
	popq	%rcx
	.cfi_def_cfa_offset 8
	retq
.Ltmp677:
.Lfunc_end171:
	.size	_ZN4core5alloc6layout6Layout4size17h8adfadae00526f6bE, .Lfunc_end171-_ZN4core5alloc6layout6Layout4size17h8adfadae00526f6bE
	.cfi_endproc

	.section	.text._ZN4core5alloc6layout6Layout5align17h4df9fd681053f925E,"ax",@progbits
	.p2align	4, 0x90
	.type	_ZN4core5alloc6layout6Layout5align17h4df9fd681053f925E,@function
_ZN4core5alloc6layout6Layout5align17h4df9fd681053f925E:
.Lfunc_begin172:
	.loc	25 109 0
	.cfi_startproc
	subq	$24, %rsp
	.cfi_def_cfa_offset 32
	movq	%rdi, 16(%rsp)
.Ltmp678:
	.loc	25 110 9 prologue_end
	movq	8(%rdi), %rdi
	callq	_ZN4core3num7nonzero12NonZeroUsize3get17hbb7c27fe040c733bE
	movq	%rax, 8(%rsp)
	.loc	25 0 9 is_stmt 0
	movq	8(%rsp), %rax
	.loc	25 111 6 is_stmt 1
	addq	$24, %rsp
	.cfi_def_cfa_offset 8
	retq
.Ltmp679:
.Lfunc_end172:
	.size	_ZN4core5alloc6layout6Layout5align17h4df9fd681053f925E, .Lfunc_end172-_ZN4core5alloc6layout6Layout5align17h4df9fd681053f925E
	.cfi_endproc

	.section	.text._ZN4core5alloc6layout6Layout8dangling17h9688dd64f6eab552E,"ax",@progbits
	.p2align	4, 0x90
	.type	_ZN4core5alloc6layout6Layout8dangling17h9688dd64f6eab552E,@function
_ZN4core5alloc6layout6Layout8dangling17h9688dd64f6eab552E:
.Lfunc_begin173:
	.loc	25 182 0
	.cfi_startproc
	subq	$24, %rsp
	.cfi_def_cfa_offset 32
	movq	%rdi, 16(%rsp)
.Ltmp680:
	.loc	25 184 41 prologue_end
	callq	_ZN4core5alloc6layout6Layout5align17h4df9fd681053f925E
	movq	%rax, 8(%rsp)
	.loc	25 0 41 is_stmt 0
	movq	8(%rsp), %rdi
	.loc	25 184 18
	callq	_ZN4core3ptr8non_null16NonNull$LT$T$GT$13new_unchecked17hc8b5f2ba1e0b788dE
	movq	%rax, (%rsp)
	.loc	25 0 18
	movq	(%rsp), %rax
	.loc	25 185 6 is_stmt 1
	addq	$24, %rsp
	.cfi_def_cfa_offset 8
	retq
.Ltmp681:
.Lfunc_end173:
	.size	_ZN4core5alloc6layout6Layout8dangling17h9688dd64f6eab552E, .Lfunc_end173-_ZN4core5alloc6layout6Layout8dangling17h9688dd64f6eab552E
	.cfi_endproc

	.section	.text._ZN4core5alloc6layout6Layout9for_value17h03729d12635eac07E,"ax",@progbits
	.p2align	4, 0x90
	.type	_ZN4core5alloc6layout6Layout9for_value17h03729d12635eac07E,@function
_ZN4core5alloc6layout6Layout9for_value17h03729d12635eac07E:
.Lfunc_begin174:
	.loc	25 131 0
	.cfi_startproc
	subq	$88, %rsp
	.cfi_def_cfa_offset 96
	movq	%rdi, 64(%rsp)
	movq	%rdi, 40(%rsp)
.Ltmp682:
	.loc	25 132 30 prologue_end
	callq	_ZN4core3mem11size_of_val17h588240576a9c732dE
	movq	%rax, 32(%rsp)
	.loc	25 0 30 is_stmt 0
	movq	40(%rsp), %rdi
	.loc	25 132 51
	callq	_ZN4core3mem12align_of_val17h2ee4eec1ae021199E
	movq	%rax, 24(%rsp)
	.loc	25 0 51
	movq	32(%rsp), %rax
	.loc	25 132 29
	movq	%rax, 48(%rsp)
	movq	24(%rsp), %rcx
	movq	%rcx, 56(%rsp)
	.loc	25 132 14
	movq	48(%rsp), %rdx
	movq	%rdx, 72(%rsp)
	.loc	25 132 20
	movq	56(%rsp), %rsi
	movq	%rsi, 80(%rsp)
.Ltmp683:
	.loc	25 135 18 is_stmt 1
	movq	%rdx, %rdi
	callq	_ZN4core5alloc6layout6Layout25from_size_align_unchecked17hdba2f2a0344d19b5E
	movq	%rax, 16(%rsp)
	movq	%rdx, 8(%rsp)
.Ltmp684:
	.loc	25 0 18 is_stmt 0
	movq	16(%rsp), %rax
	movq	8(%rsp), %rdx
	.loc	25 136 6 is_stmt 1
	addq	$88, %rsp
	.cfi_def_cfa_offset 8
	retq
.Ltmp685:
.Lfunc_end174:
	.size	_ZN4core5alloc6layout6Layout9for_value17h03729d12635eac07E, .Lfunc_end174-_ZN4core5alloc6layout6Layout9for_value17h03729d12635eac07E
	.cfi_endproc

	.section	.text._ZN4core5alloc6layout6Layout9for_value17h456cabc98d6b79d6E,"ax",@progbits
	.p2align	4, 0x90
	.type	_ZN4core5alloc6layout6Layout9for_value17h456cabc98d6b79d6E,@function
_ZN4core5alloc6layout6Layout9for_value17h456cabc98d6b79d6E:
.Lfunc_begin175:
	.loc	25 131 0
	.cfi_startproc
	subq	$88, %rsp
	.cfi_def_cfa_offset 96
	movq	%rdi, 64(%rsp)
	movq	%rdi, 40(%rsp)
.Ltmp686:
	.loc	25 132 30 prologue_end
	callq	_ZN4core3mem11size_of_val17h59141d5bc94d811eE
	movq	%rax, 32(%rsp)
	.loc	25 0 30 is_stmt 0
	movq	40(%rsp), %rdi
	.loc	25 132 51
	callq	_ZN4core3mem12align_of_val17h62471a841c923c23E
	movq	%rax, 24(%rsp)
	.loc	25 0 51
	movq	32(%rsp), %rax
	.loc	25 132 29
	movq	%rax, 48(%rsp)
	movq	24(%rsp), %rcx
	movq	%rcx, 56(%rsp)
	.loc	25 132 14
	movq	48(%rsp), %rdx
	movq	%rdx, 72(%rsp)
	.loc	25 132 20
	movq	56(%rsp), %rsi
	movq	%rsi, 80(%rsp)
.Ltmp687:
	.loc	25 135 18 is_stmt 1
	movq	%rdx, %rdi
	callq	_ZN4core5alloc6layout6Layout25from_size_align_unchecked17hdba2f2a0344d19b5E
	movq	%rax, 16(%rsp)
	movq	%rdx, 8(%rsp)
.Ltmp688:
	.loc	25 0 18 is_stmt 0
	movq	16(%rsp), %rax
	movq	8(%rsp), %rdx
	.loc	25 136 6 is_stmt 1
	addq	$88, %rsp
	.cfi_def_cfa_offset 8
	retq
.Ltmp689:
.Lfunc_end175:
	.size	_ZN4core5alloc6layout6Layout9for_value17h456cabc98d6b79d6E, .Lfunc_end175-_ZN4core5alloc6layout6Layout9for_value17h456cabc98d6b79d6E
	.cfi_endproc

	.section	.text._ZN4core5alloc6layout6Layout9for_value17hb1b57603e072140aE,"ax",@progbits
	.p2align	4, 0x90
	.type	_ZN4core5alloc6layout6Layout9for_value17hb1b57603e072140aE,@function
_ZN4core5alloc6layout6Layout9for_value17hb1b57603e072140aE:
.Lfunc_begin176:
	.loc	25 131 0
	.cfi_startproc
	subq	$88, %rsp
	.cfi_def_cfa_offset 96
	movq	%rdi, 64(%rsp)
	movq	%rdi, 40(%rsp)
.Ltmp690:
	.loc	25 132 30 prologue_end
	callq	_ZN4core3mem11size_of_val17hdc4601225b2cbd07E
	movq	%rax, 32(%rsp)
	.loc	25 0 30 is_stmt 0
	movq	40(%rsp), %rdi
	.loc	25 132 51
	callq	_ZN4core3mem12align_of_val17h7fec08a6d9f621b4E
	movq	%rax, 24(%rsp)
	.loc	25 0 51
	movq	32(%rsp), %rax
	.loc	25 132 29
	movq	%rax, 48(%rsp)
	movq	24(%rsp), %rcx
	movq	%rcx, 56(%rsp)
	.loc	25 132 14
	movq	48(%rsp), %rdx
	movq	%rdx, 72(%rsp)
	.loc	25 132 20
	movq	56(%rsp), %rsi
	movq	%rsi, 80(%rsp)
.Ltmp691:
	.loc	25 135 18 is_stmt 1
	movq	%rdx, %rdi
	callq	_ZN4core5alloc6layout6Layout25from_size_align_unchecked17hdba2f2a0344d19b5E
	movq	%rax, 16(%rsp)
	movq	%rdx, 8(%rsp)
.Ltmp692:
	.loc	25 0 18 is_stmt 0
	movq	16(%rsp), %rax
	movq	8(%rsp), %rdx
	.loc	25 136 6 is_stmt 1
	addq	$88, %rsp
	.cfi_def_cfa_offset 8
	retq
.Ltmp693:
.Lfunc_end176:
	.size	_ZN4core5alloc6layout6Layout9for_value17hb1b57603e072140aE, .Lfunc_end176-_ZN4core5alloc6layout6Layout9for_value17hb1b57603e072140aE
	.cfi_endproc

	.section	".text._ZN4core5clone5impls52_$LT$impl$u20$core..clone..Clone$u20$for$u20$i64$GT$5clone17h53b8ef8f58a56be4E","ax",@progbits
	.p2align	4, 0x90
	.type	_ZN4core5clone5impls52_$LT$impl$u20$core..clone..Clone$u20$for$u20$i64$GT$5clone17h53b8ef8f58a56be4E,@function
_ZN4core5clone5impls52_$LT$impl$u20$core..clone..Clone$u20$for$u20$i64$GT$5clone17h53b8ef8f58a56be4E:
.Lfunc_begin177:
	.file	26 "/rustc/e1884a8e3c3e813aada8254edfa120e85bf5ffca/library/core/src/clone.rs"
	.loc	26 181 0
	.cfi_startproc
	pushq	%rax
	.cfi_def_cfa_offset 16
	movq	%rdi, (%rsp)
.Ltmp694:
	.loc	26 182 25 prologue_end
	movq	(%rdi), %rax
	.loc	26 183 22
	popq	%rcx
	.cfi_def_cfa_offset 8
	retq
.Ltmp695:
.Lfunc_end177:
	.size	_ZN4core5clone5impls52_$LT$impl$u20$core..clone..Clone$u20$for$u20$i64$GT$5clone17h53b8ef8f58a56be4E, .Lfunc_end177-_ZN4core5clone5impls52_$LT$impl$u20$core..clone..Clone$u20$for$u20$i64$GT$5clone17h53b8ef8f58a56be4E
	.cfi_endproc

	.section	".text._ZN4core5slice29_$LT$impl$u20$$u5b$T$u5d$$GT$17get_unchecked_mut17h1d35db8d171e1499E","ax",@progbits
	.p2align	4, 0x90
	.type	_ZN4core5slice29_$LT$impl$u20$$u5b$T$u5d$$GT$17get_unchecked_mut17h1d35db8d171e1499E,@function
_ZN4core5slice29_$LT$impl$u20$$u5b$T$u5d$$GT$17get_unchecked_mut17h1d35db8d171e1499E:
.Lfunc_begin178:
	.file	27 "/rustc/e1884a8e3c3e813aada8254edfa120e85bf5ffca/library/core/src/slice/mod.rs"
	.loc	27 370 0
	.cfi_startproc
	subq	$56, %rsp
	.cfi_def_cfa_offset 64
	movq	%rdi, 32(%rsp)
	movq	%rsi, 40(%rsp)
	movq	%rdx, 48(%rsp)
	movq	%rdi, 24(%rsp)
.Ltmp696:
	.loc	27 377 24 prologue_end
	movq	%rdx, %rdi
	movq	24(%rsp), %rax
	movq	%rsi, 16(%rsp)
	movq	%rax, %rsi
	movq	16(%rsp), %rdx
	callq	_ZN75_$LT$usize$u20$as$u20$core..slice..index..SliceIndex$LT$$u5b$T$u5d$$GT$$GT$17get_unchecked_mut17h956bc3af70a39693E
	movq	%rax, 8(%rsp)
	.loc	27 0 24 is_stmt 0
	movq	8(%rsp), %rax
	.loc	27 378 6 is_stmt 1
	addq	$56, %rsp
	.cfi_def_cfa_offset 8
	retq
.Ltmp697:
.Lfunc_end178:
	.size	_ZN4core5slice29_$LT$impl$u20$$u5b$T$u5d$$GT$17get_unchecked_mut17h1d35db8d171e1499E, .Lfunc_end178-_ZN4core5slice29_$LT$impl$u20$$u5b$T$u5d$$GT$17get_unchecked_mut17h1d35db8d171e1499E
	.cfi_endproc

	.section	".text._ZN4core6option15Option$LT$T$GT$14unwrap_or_else17he5c7f59bfe67621aE","ax",@progbits
	.p2align	4, 0x90
	.type	_ZN4core6option15Option$LT$T$GT$14unwrap_or_else17he5c7f59bfe67621aE,@function
_ZN4core6option15Option$LT$T$GT$14unwrap_or_else17he5c7f59bfe67621aE:
.Lfunc_begin179:
	.file	28 "/rustc/e1884a8e3c3e813aada8254edfa120e85bf5ffca/library/core/src/option.rs"
	.loc	28 424 0
	.cfi_startproc
	subq	$56, %rsp
	.cfi_def_cfa_offset 64
	movq	%rdi, 8(%rsp)
	movq	%rsi, 16(%rsp)
.Ltmp698:
	.loc	28 426 13 prologue_end
	movb	$0, 39(%rsp)
	movb	$1, 39(%rsp)
	movq	8(%rsp), %rax
	testq	%rax, %rax
	je	.LBB179_1
	jmp	.LBB179_8
.LBB179_8:
	jmp	.LBB179_3
.LBB179_1:
	.loc	28 427 21
	movb	$0, 39(%rsp)
	callq	_ZN4core3ops8function6FnOnce9call_once17h91f66a5e473401aeE
	movq	%rax, 24(%rsp)
	jmp	.LBB179_4
	.cfi_def_cfa_offset 8
	.loc	28 425 15
	ud2
.LBB179_3:
	.cfi_def_cfa_offset 64
	.loc	28 426 18
	movq	16(%rsp), %rax
	movq	%rax, 48(%rsp)
.Ltmp699:
	.loc	28 426 24 is_stmt 0
	movq	%rax, 24(%rsp)
.Ltmp700:
	.loc	28 425 9 is_stmt 1
	jmp	.LBB179_7
.LBB179_4:
	jmp	.LBB179_7
.LBB179_5:
	.loc	28 429 6
	movq	24(%rsp), %rax
	addq	$56, %rsp
	.cfi_def_cfa_offset 8
	retq
.LBB179_6:
	.cfi_def_cfa_offset 64
	.loc	28 429 5 is_stmt 0
	jmp	.LBB179_5
.LBB179_7:
	testb	$1, 39(%rsp)
	jne	.LBB179_6
	jmp	.LBB179_5
.Ltmp701:
.Lfunc_end179:
	.size	_ZN4core6option15Option$LT$T$GT$14unwrap_or_else17he5c7f59bfe67621aE, .Lfunc_end179-_ZN4core6option15Option$LT$T$GT$14unwrap_or_else17he5c7f59bfe67621aE
	.cfi_endproc

	.section	".text._ZN4core6option15Option$LT$T$GT$4take17h00589a3f6d5fc3b9E","ax",@progbits
	.p2align	4, 0x90
	.type	_ZN4core6option15Option$LT$T$GT$4take17h00589a3f6d5fc3b9E,@function
_ZN4core6option15Option$LT$T$GT$4take17h00589a3f6d5fc3b9E:
.Lfunc_begin180:
	.loc	28 901 0 is_stmt 1
	.cfi_startproc
	subq	$24, %rsp
	.cfi_def_cfa_offset 32
	movq	%rdi, 16(%rsp)
.Ltmp702:
	.loc	28 902 9 prologue_end
	callq	_ZN4core3mem4take17h9aa33216fa618eb3E
	movq	%rax, 8(%rsp)
	movq	%rdx, (%rsp)
	.loc	28 0 9 is_stmt 0
	movq	8(%rsp), %rax
	movq	(%rsp), %rdx
	.loc	28 903 6 is_stmt 1
	addq	$24, %rsp
	.cfi_def_cfa_offset 8
	retq
.Ltmp703:
.Lfunc_end180:
	.size	_ZN4core6option15Option$LT$T$GT$4take17h00589a3f6d5fc3b9E, .Lfunc_end180-_ZN4core6option15Option$LT$T$GT$4take17h00589a3f6d5fc3b9E
	.cfi_endproc

	.section	".text._ZN4core6option15Option$LT$T$GT$4take17h4da96a0700aa2811E","ax",@progbits
	.p2align	4, 0x90
	.type	_ZN4core6option15Option$LT$T$GT$4take17h4da96a0700aa2811E,@function
_ZN4core6option15Option$LT$T$GT$4take17h4da96a0700aa2811E:
.Lfunc_begin181:
	.loc	28 901 0
	.cfi_startproc
	subq	$24, %rsp
	.cfi_def_cfa_offset 32
	movq	%rdi, %rax
	movq	%rsi, 16(%rsp)
	movq	%rax, 8(%rsp)
.Ltmp704:
	.loc	28 902 9 prologue_end
	callq	_ZN4core3mem4take17h4346e1b24b5afa1dE
	.loc	28 0 9 is_stmt 0
	movq	8(%rsp), %rax
	.loc	28 903 6 is_stmt 1
	addq	$24, %rsp
	.cfi_def_cfa_offset 8
	retq
.Ltmp705:
.Lfunc_end181:
	.size	_ZN4core6option15Option$LT$T$GT$4take17h4da96a0700aa2811E, .Lfunc_end181-_ZN4core6option15Option$LT$T$GT$4take17h4da96a0700aa2811E
	.cfi_endproc

	.section	".text._ZN4core6option15Option$LT$T$GT$5ok_or17he667e9a505049b65E","ax",@progbits
	.p2align	4, 0x90
	.type	_ZN4core6option15Option$LT$T$GT$5ok_or17he667e9a505049b65E,@function
_ZN4core6option15Option$LT$T$GT$5ok_or17he667e9a505049b65E:
.Lfunc_begin182:
	.loc	28 532 0
	.cfi_startproc
	subq	$40, %rsp
	.cfi_def_cfa_offset 48
	movq	%rdi, (%rsp)
.Ltmp706:
	.loc	28 534 13 prologue_end
	movb	$0, 23(%rsp)
	movb	$1, 23(%rsp)
	movq	(%rsp), %rax
	testq	%rax, %rax
	setne	%cl
	movzbl	%cl, %edx
	movl	%edx, %eax
	je	.LBB182_1
	jmp	.LBB182_7
.LBB182_7:
	jmp	.LBB182_3
.LBB182_1:
	.loc	28 535 25
	movb	$0, 23(%rsp)
	.loc	28 535 21 is_stmt 0
	movq	$0, 8(%rsp)
	.loc	28 533 9 is_stmt 1
	jmp	.LBB182_4
	.cfi_def_cfa_offset 8
	.loc	28 533 15 is_stmt 0
	ud2
.LBB182_3:
	.cfi_def_cfa_offset 48
	.loc	28 534 18 is_stmt 1
	movq	(%rsp), %rax
	movq	%rax, 32(%rsp)
.Ltmp707:
	.loc	28 534 24 is_stmt 0
	movq	%rax, 8(%rsp)
.Ltmp708:
.LBB182_4:
	.loc	28 537 5 is_stmt 1
	testb	$1, 23(%rsp)
	jne	.LBB182_6
.LBB182_5:
	.loc	28 537 6 is_stmt 0
	movq	8(%rsp), %rax
	addq	$40, %rsp
	.cfi_def_cfa_offset 8
	retq
.LBB182_6:
	.cfi_def_cfa_offset 48
	.loc	28 537 5
	jmp	.LBB182_5
.Ltmp709:
.Lfunc_end182:
	.size	_ZN4core6option15Option$LT$T$GT$5ok_or17he667e9a505049b65E, .Lfunc_end182-_ZN4core6option15Option$LT$T$GT$5ok_or17he667e9a505049b65E
	.cfi_endproc

	.section	".text._ZN4core6option15Option$LT$T$GT$6unwrap17h630560bad7128369E","ax",@progbits
	.p2align	4, 0x90
	.type	_ZN4core6option15Option$LT$T$GT$6unwrap17h630560bad7128369E,@function
_ZN4core6option15Option$LT$T$GT$6unwrap17h630560bad7128369E:
.Lfunc_begin183:
	.loc	28 383 0 is_stmt 1
	.cfi_startproc
	subq	$40, %rsp
	.cfi_def_cfa_offset 48
.Ltmp710:
	.loc	28 385 13 prologue_end
	movq	(%rdi), %rax
	testq	%rax, %rax
	movq	%rdi, 16(%rsp)
.Ltmp711:
	.loc	28 0 13 is_stmt 0
	movq	%rsi, 8(%rsp)
	.loc	28 385 13
	je	.LBB183_1
	jmp	.LBB183_4
.Ltmp712:
.LBB183_4:
	jmp	.LBB183_3
.Ltmp713:
.LBB183_1:
	.loc	28 386 21 is_stmt 1
	leaq	.L__unnamed_15(%rip), %rdi
	movq	_ZN4core9panicking5panic17h339b30ca166fd852E@GOTPCREL(%rip), %rax
	movl	$43, %esi
	movq	8(%rsp), %rdx
	callq	*%rax
	ud2
.Ltmp714:
	.cfi_def_cfa_offset 8
	.loc	28 384 15
	ud2
.LBB183_3:
	.cfi_def_cfa_offset 48
.Ltmp715:
	.loc	28 0 15 is_stmt 0
	movq	16(%rsp), %rax
	.loc	28 385 18 is_stmt 1
	movq	8(%rax), %rcx
	movq	16(%rax), %rdx
	movq	%rcx, 24(%rsp)
	movq	%rdx, 32(%rsp)
	.loc	28 388 6
	movq	%rcx, %rax
	addq	$40, %rsp
	.cfi_def_cfa_offset 8
	retq
.Ltmp716:
.Lfunc_end183:
	.size	_ZN4core6option15Option$LT$T$GT$6unwrap17h630560bad7128369E, .Lfunc_end183-_ZN4core6option15Option$LT$T$GT$6unwrap17h630560bad7128369E
	.cfi_endproc

	.section	".text._ZN4core6option15Option$LT$T$GT$6unwrap17ha8b94565fcacb7ecE","ax",@progbits
	.p2align	4, 0x90
	.type	_ZN4core6option15Option$LT$T$GT$6unwrap17ha8b94565fcacb7ecE,@function
_ZN4core6option15Option$LT$T$GT$6unwrap17ha8b94565fcacb7ecE:
.Lfunc_begin184:
	.loc	28 383 0
	.cfi_startproc
	subq	$40, %rsp
	.cfi_def_cfa_offset 48
	movq	%rdi, 16(%rsp)
	movq	%rsi, 24(%rsp)
.Ltmp717:
	.loc	28 385 13 prologue_end
	movq	16(%rsp), %rax
	testq	%rax, %rax
	movq	%rdx, 8(%rsp)
	je	.LBB184_1
	jmp	.LBB184_4
.LBB184_4:
	jmp	.LBB184_3
.LBB184_1:
	.loc	28 386 21
	leaq	.L__unnamed_15(%rip), %rdi
	movq	_ZN4core9panicking5panic17h339b30ca166fd852E@GOTPCREL(%rip), %rax
	movl	$43, %esi
	movq	8(%rsp), %rdx
	callq	*%rax
	ud2
	.cfi_def_cfa_offset 8
	.loc	28 384 15
	ud2
.LBB184_3:
	.cfi_def_cfa_offset 48
	.loc	28 385 18
	movq	24(%rsp), %rax
	movq	%rax, 32(%rsp)
	.loc	28 388 6
	addq	$40, %rsp
	.cfi_def_cfa_offset 8
	retq
.Ltmp718:
.Lfunc_end184:
	.size	_ZN4core6option15Option$LT$T$GT$6unwrap17ha8b94565fcacb7ecE, .Lfunc_end184-_ZN4core6option15Option$LT$T$GT$6unwrap17ha8b94565fcacb7ecE
	.cfi_endproc

	.section	".text._ZN4core6result19Result$LT$T$C$E$GT$6expect17h7decb3972abd9e0cE","ax",@progbits
	.p2align	4, 0x90
	.type	_ZN4core6result19Result$LT$T$C$E$GT$6expect17h7decb3972abd9e0cE,@function
_ZN4core6result19Result$LT$T$C$E$GT$6expect17h7decb3972abd9e0cE:
.Lfunc_begin185:
	.file	29 "/rustc/e1884a8e3c3e813aada8254edfa120e85bf5ffca/library/core/src/result.rs"
	.loc	29 930 0
	.cfi_startproc
	.cfi_personality 155, DW.ref.rust_eh_personality
	.cfi_lsda 27, .Lexception21
	subq	$120, %rsp
	.cfi_def_cfa_offset 128
.Ltmp722:
	movq	%rdi, %rax
	movq	%rdx, 88(%rsp)
	movq	%rcx, 96(%rsp)
.Ltmp723:
	.loc	29 932 13 prologue_end
	movq	(%rsi), %r9
	testq	%r9, %r9
	movq	%r8, 56(%rsp)
	movq	%rcx, 48(%rsp)
	movq	%rdx, 40(%rsp)
	movq	%rsi, 32(%rsp)
.Ltmp724:
	.loc	29 0 13 is_stmt 0
	movq	%rdi, 24(%rsp)
.Ltmp725:
	movq	%rax, 16(%rsp)
	.loc	29 932 13
	je	.LBB185_3
	jmp	.LBB185_8
.Ltmp726:
.LBB185_8:
	.loc	29 0 13
	movq	32(%rsp), %rax
	.loc	29 933 17 is_stmt 1
	movups	8(%rax), %xmm0
	movaps	%xmm0, 64(%rsp)
.Ltmp719:
.Ltmp727:
	.loc	29 933 23 is_stmt 0
	leaq	.L__unnamed_3(%rip), %rcx
	movq	_ZN4core6result13unwrap_failed17h53240067144083fbE@GOTPCREL(%rip), %rdx
	leaq	64(%rsp), %rsi
	movq	40(%rsp), %rdi
	movq	48(%rsp), %r8
	movq	%rsi, 8(%rsp)
	movq	%r8, %rsi
	movq	8(%rsp), %r9
	movq	%rdx, (%rsp)
	movq	%r9, %rdx
	movq	56(%rsp), %r8
	movq	(%rsp), %r10
	callq	*%r10
.Ltmp720:
	jmp	.LBB185_6
.Ltmp728:
	.cfi_def_cfa_offset 8
	.loc	29 931 15 is_stmt 1
	ud2
.LBB185_3:
	.cfi_def_cfa_offset 128
.Ltmp729:
	.loc	29 0 15 is_stmt 0
	movq	32(%rsp), %rax
	.loc	29 932 16 is_stmt 1
	movq	8(%rax), %rcx
	movq	24(%rsp), %rdx
	movq	%rcx, (%rdx)
	movq	16(%rax), %rcx
	movq	%rcx, 8(%rdx)
	movq	24(%rax), %rcx
	movq	%rcx, 16(%rdx)
	movq	32(%rax), %rcx
	movq	%rcx, 24(%rdx)
	movq	16(%rsp), %rax
	.loc	29 935 6
	addq	$120, %rsp
	.cfi_def_cfa_offset 8
	retq
.Ltmp730:
.LBB185_4:
	.cfi_def_cfa_offset 128
	.loc	29 933 44
	leaq	64(%rsp), %rdi
	callq	_ZN4core3ptr13drop_in_place17hb3f8580104547b7cE
.Ltmp731:
	.loc	29 930 5
	movq	104(%rsp), %rdi
	callq	_Unwind_Resume@PLT
	ud2
.Ltmp732:
.LBB185_6:
	.loc	29 0 5 is_stmt 0
	ud2
.Ltmp733:
.LBB185_7:
.Ltmp721:
	movq	%rax, 104(%rsp)
	movl	%edx, 112(%rsp)
	jmp	.LBB185_4
.Lfunc_end185:
	.size	_ZN4core6result19Result$LT$T$C$E$GT$6expect17h7decb3972abd9e0cE, .Lfunc_end185-_ZN4core6result19Result$LT$T$C$E$GT$6expect17h7decb3972abd9e0cE
	.cfi_endproc
	.section	.gcc_except_table,"a",@progbits
	.p2align	2
GCC_except_table185:
.Lexception21:
	.byte	255
	.byte	255
	.byte	1
	.uleb128 .Lcst_end21-.Lcst_begin21
.Lcst_begin21:
	.uleb128 .Ltmp719-.Lfunc_begin185
	.uleb128 .Ltmp720-.Ltmp719
	.uleb128 .Ltmp721-.Lfunc_begin185
	.byte	0
	.uleb128 .Ltmp720-.Lfunc_begin185
	.uleb128 .Lfunc_end185-.Ltmp720
	.byte	0
	.byte	0
.Lcst_end21:
	.p2align	2

	.section	".text._ZN4core6result19Result$LT$T$C$E$GT$6unwrap17hc089386927b4792cE","ax",@progbits
	.p2align	4, 0x90
	.type	_ZN4core6result19Result$LT$T$C$E$GT$6unwrap17hc089386927b4792cE,@function
_ZN4core6result19Result$LT$T$C$E$GT$6unwrap17hc089386927b4792cE:
.Lfunc_begin186:
	.loc	29 970 0 is_stmt 1
	.cfi_startproc
	.cfi_personality 155, DW.ref.rust_eh_personality
	.cfi_lsda 27, .Lexception22
	subq	$72, %rsp
	.cfi_def_cfa_offset 80
	movq	%rdi, 16(%rsp)
	movq	%rsi, 24(%rsp)
.Ltmp737:
	.loc	29 972 13 prologue_end
	movq	16(%rsp), %rax
	testq	%rax, %rax
	setne	%cl
	movzbl	%cl, %r8d
	movl	%r8d, %eax
	movq	%rdx, 8(%rsp)
	je	.LBB186_3
	jmp	.LBB186_8
.LBB186_8:
	.loc	29 973 17
	movq	16(%rsp), %rax
	movq	24(%rsp), %rcx
	movq	%rax, 32(%rsp)
	movq	%rcx, 40(%rsp)
.Ltmp734:
.Ltmp738:
	.loc	29 973 23 is_stmt 0
	leaq	.L__unnamed_16(%rip), %rdi
	leaq	.L__unnamed_4(%rip), %rcx
	movq	_ZN4core6result13unwrap_failed17h53240067144083fbE@GOTPCREL(%rip), %rax
	movl	$43, %esi
	leaq	32(%rsp), %rdx
	movq	8(%rsp), %r8
	callq	*%rax
.Ltmp735:
	jmp	.LBB186_6
.Ltmp739:
	.cfi_def_cfa_offset 8
	.loc	29 971 15 is_stmt 1
	ud2
.LBB186_3:
	.cfi_def_cfa_offset 80
	.loc	29 975 6
	addq	$72, %rsp
	.cfi_def_cfa_offset 8
	retq
.LBB186_4:
	.cfi_def_cfa_offset 80
	.loc	29 973 86
	leaq	32(%rsp), %rdi
	callq	_ZN4core3ptr13drop_in_place17hcbc53ec65842bd95E
	.loc	29 970 5
	movq	56(%rsp), %rdi
	callq	_Unwind_Resume@PLT
	ud2
.Ltmp740:
.LBB186_6:
	.loc	29 0 5 is_stmt 0
	ud2
.LBB186_7:
.Ltmp736:
	movq	%rax, 56(%rsp)
	movl	%edx, 64(%rsp)
	jmp	.LBB186_4
.Lfunc_end186:
	.size	_ZN4core6result19Result$LT$T$C$E$GT$6unwrap17hc089386927b4792cE, .Lfunc_end186-_ZN4core6result19Result$LT$T$C$E$GT$6unwrap17hc089386927b4792cE
	.cfi_endproc
	.section	.gcc_except_table,"a",@progbits
	.p2align	2
GCC_except_table186:
.Lexception22:
	.byte	255
	.byte	255
	.byte	1
	.uleb128 .Lcst_end22-.Lcst_begin22
.Lcst_begin22:
	.uleb128 .Ltmp734-.Lfunc_begin186
	.uleb128 .Ltmp735-.Ltmp734
	.uleb128 .Ltmp736-.Lfunc_begin186
	.byte	0
	.uleb128 .Ltmp735-.Lfunc_begin186
	.uleb128 .Lfunc_end186-.Ltmp735
	.byte	0
	.byte	0
.Lcst_end22:
	.p2align	2

	.section	".text._ZN50_$LT$T$u20$as$u20$core..convert..From$LT$T$GT$$GT$4from17h71ed202d110a5819E","ax",@progbits
	.p2align	4, 0x90
	.type	_ZN50_$LT$T$u20$as$u20$core..convert..From$LT$T$GT$$GT$4from17h71ed202d110a5819E,@function
_ZN50_$LT$T$u20$as$u20$core..convert..From$LT$T$GT$$GT$4from17h71ed202d110a5819E:
.Lfunc_begin187:
	.file	30 "/rustc/e1884a8e3c3e813aada8254edfa120e85bf5ffca/library/core/src/convert/mod.rs"
	.loc	30 553 0 is_stmt 1
	.cfi_startproc
	pushq	%rax
	.cfi_def_cfa_offset 16
.Ltmp741:
	.loc	30 555 6 prologue_end
	popq	%rax
	.cfi_def_cfa_offset 8
	retq
.Ltmp742:
.Lfunc_end187:
	.size	_ZN50_$LT$T$u20$as$u20$core..convert..From$LT$T$GT$$GT$4from17h71ed202d110a5819E, .Lfunc_end187-_ZN50_$LT$T$u20$as$u20$core..convert..From$LT$T$GT$$GT$4from17h71ed202d110a5819E
	.cfi_endproc

	.section	".text._ZN50_$LT$T$u20$as$u20$core..convert..From$LT$T$GT$$GT$4from17h9722341561249735E","ax",@progbits
	.p2align	4, 0x90
	.type	_ZN50_$LT$T$u20$as$u20$core..convert..From$LT$T$GT$$GT$4from17h9722341561249735E,@function
_ZN50_$LT$T$u20$as$u20$core..convert..From$LT$T$GT$$GT$4from17h9722341561249735E:
.Lfunc_begin188:
	.loc	30 553 0
	.cfi_startproc
	subq	$24, %rsp
	.cfi_def_cfa_offset 32
.Ltmp743:
	.loc	30 554 9 prologue_end
	movups	(%rdi), %xmm0
	movaps	%xmm0, (%rsp)
	.loc	30 555 6
	movq	(%rsp), %rax
	movq	8(%rsp), %rdx
	addq	$24, %rsp
	.cfi_def_cfa_offset 8
	retq
.Ltmp744:
.Lfunc_end188:
	.size	_ZN50_$LT$T$u20$as$u20$core..convert..From$LT$T$GT$$GT$4from17h9722341561249735E, .Lfunc_end188-_ZN50_$LT$T$u20$as$u20$core..convert..From$LT$T$GT$$GT$4from17h9722341561249735E
	.cfi_endproc

	.section	".text._ZN50_$LT$T$u20$as$u20$core..convert..Into$LT$U$GT$$GT$4into17h0eda528d9578aa31E","ax",@progbits
	.p2align	4, 0x90
	.type	_ZN50_$LT$T$u20$as$u20$core..convert..Into$LT$U$GT$$GT$4into17h0eda528d9578aa31E,@function
_ZN50_$LT$T$u20$as$u20$core..convert..Into$LT$U$GT$$GT$4into17h0eda528d9578aa31E:
.Lfunc_begin189:
	.loc	30 545 0
	.cfi_startproc
	subq	$24, %rsp
	.cfi_def_cfa_offset 32
	movq	%rdi, 16(%rsp)
.Ltmp745:
	.loc	30 546 9 prologue_end
	callq	_ZN98_$LT$core..ptr..non_null..NonNull$LT$T$GT$$u20$as$u20$core..convert..From$LT$$RF$mut$u20$T$GT$$GT$4from17h11af4061cc62f7b8E
	movq	%rax, 8(%rsp)
	.loc	30 0 9 is_stmt 0
	movq	8(%rsp), %rax
	.loc	30 547 6 is_stmt 1
	addq	$24, %rsp
	.cfi_def_cfa_offset 8
	retq
.Ltmp746:
.Lfunc_end189:
	.size	_ZN50_$LT$T$u20$as$u20$core..convert..Into$LT$U$GT$$GT$4into17h0eda528d9578aa31E, .Lfunc_end189-_ZN50_$LT$T$u20$as$u20$core..convert..Into$LT$U$GT$$GT$4into17h0eda528d9578aa31E
	.cfi_endproc

	.section	".text._ZN50_$LT$T$u20$as$u20$core..convert..Into$LT$U$GT$$GT$4into17h337c87cda6fc8ba4E","ax",@progbits
	.p2align	4, 0x90
	.type	_ZN50_$LT$T$u20$as$u20$core..convert..Into$LT$U$GT$$GT$4into17h337c87cda6fc8ba4E,@function
_ZN50_$LT$T$u20$as$u20$core..convert..Into$LT$U$GT$$GT$4into17h337c87cda6fc8ba4E:
.Lfunc_begin190:
	.loc	30 545 0
	.cfi_startproc
	subq	$24, %rsp
	.cfi_def_cfa_offset 32
	movq	%rdi, 16(%rsp)
.Ltmp747:
	.loc	30 546 9 prologue_end
	callq	_ZN119_$LT$core..ptr..non_null..NonNull$LT$T$GT$$u20$as$u20$core..convert..From$LT$core..ptr..unique..Unique$LT$T$GT$$GT$$GT$4from17h0fd2c43ee22dbf95E
	movq	%rax, 8(%rsp)
	.loc	30 0 9 is_stmt 0
	movq	8(%rsp), %rax
	.loc	30 547 6 is_stmt 1
	addq	$24, %rsp
	.cfi_def_cfa_offset 8
	retq
.Ltmp748:
.Lfunc_end190:
	.size	_ZN50_$LT$T$u20$as$u20$core..convert..Into$LT$U$GT$$GT$4into17h337c87cda6fc8ba4E, .Lfunc_end190-_ZN50_$LT$T$u20$as$u20$core..convert..Into$LT$U$GT$$GT$4into17h337c87cda6fc8ba4E
	.cfi_endproc

	.section	".text._ZN50_$LT$T$u20$as$u20$core..convert..Into$LT$U$GT$$GT$4into17h874eb7ff1aecb223E","ax",@progbits
	.p2align	4, 0x90
	.type	_ZN50_$LT$T$u20$as$u20$core..convert..Into$LT$U$GT$$GT$4into17h874eb7ff1aecb223E,@function
_ZN50_$LT$T$u20$as$u20$core..convert..Into$LT$U$GT$$GT$4into17h874eb7ff1aecb223E:
.Lfunc_begin191:
	.loc	30 545 0
	.cfi_startproc
	subq	$24, %rsp
	.cfi_def_cfa_offset 32
	movq	%rdi, 16(%rsp)
.Ltmp749:
	.loc	30 546 9 prologue_end
	callq	_ZN98_$LT$core..ptr..non_null..NonNull$LT$T$GT$$u20$as$u20$core..convert..From$LT$$RF$mut$u20$T$GT$$GT$4from17h842c05e71dff0421E
	movq	%rax, 8(%rsp)
	.loc	30 0 9 is_stmt 0
	movq	8(%rsp), %rax
	.loc	30 547 6 is_stmt 1
	addq	$24, %rsp
	.cfi_def_cfa_offset 8
	retq
.Ltmp750:
.Lfunc_end191:
	.size	_ZN50_$LT$T$u20$as$u20$core..convert..Into$LT$U$GT$$GT$4into17h874eb7ff1aecb223E, .Lfunc_end191-_ZN50_$LT$T$u20$as$u20$core..convert..Into$LT$U$GT$$GT$4into17h874eb7ff1aecb223E
	.cfi_endproc

	.section	".text._ZN54_$LT$$LP$$RP$$u20$as$u20$std..process..Termination$GT$6report17hd8e9fd97c6f64569E","ax",@progbits
	.p2align	4, 0x90
	.type	_ZN54_$LT$$LP$$RP$$u20$as$u20$std..process..Termination$GT$6report17hd8e9fd97c6f64569E,@function
_ZN54_$LT$$LP$$RP$$u20$as$u20$std..process..Termination$GT$6report17hd8e9fd97c6f64569E:
.Lfunc_begin192:
	.file	31 "/rustc/e1884a8e3c3e813aada8254edfa120e85bf5ffca/library/std/src/process.rs"
	.loc	31 1827 0
	.cfi_startproc
	subq	$24, %rsp
	.cfi_def_cfa_offset 32
	xorl	%edi, %edi
.Ltmp751:
	.loc	31 1828 9 prologue_end
	callq	_ZN68_$LT$std..process..ExitCode$u20$as$u20$std..process..Termination$GT$6report17h619126b34e57699aE
	movl	%eax, 12(%rsp)
	.loc	31 0 9 is_stmt 0
	movl	12(%rsp), %eax
	.loc	31 1829 6 is_stmt 1
	addq	$24, %rsp
	.cfi_def_cfa_offset 8
	retq
.Ltmp752:
.Lfunc_end192:
	.size	_ZN54_$LT$$LP$$RP$$u20$as$u20$std..process..Termination$GT$6report17hd8e9fd97c6f64569E, .Lfunc_end192-_ZN54_$LT$$LP$$RP$$u20$as$u20$std..process..Termination$GT$6report17hd8e9fd97c6f64569E
	.cfi_endproc

	.section	".text._ZN58_$LT$std..thread..Thread$u20$as$u20$core..clone..Clone$GT$5clone17hda2699f47f0855b8E","ax",@progbits
	.p2align	4, 0x90
	.type	_ZN58_$LT$std..thread..Thread$u20$as$u20$core..clone..Clone$GT$5clone17hda2699f47f0855b8E,@function
_ZN58_$LT$std..thread..Thread$u20$as$u20$core..clone..Clone$GT$5clone17hda2699f47f0855b8E:
.Lfunc_begin193:
	.loc	6 1030 0
	.cfi_startproc
	subq	$40, %rsp
	.cfi_def_cfa_offset 48
	movq	%rdi, 24(%rsp)
.Ltmp753:
	.loc	6 1051 5 prologue_end
	movq	%rdi, 32(%rsp)
.Ltmp754:
	.loc	6 1051 5 is_stmt 0
	callq	_ZN64_$LT$alloc..sync..Arc$LT$T$GT$$u20$as$u20$core..clone..Clone$GT$5clone17h5bc1846480d54690E
	movq	%rax, 8(%rsp)
	.loc	6 0 5
	movq	8(%rsp), %rax
	.loc	6 1030 10 is_stmt 1
	movq	%rax, 16(%rsp)
.Ltmp755:
	.loc	6 1030 15 is_stmt 0
	movq	16(%rsp), %rax
	addq	$40, %rsp
	.cfi_def_cfa_offset 8
	retq
.Ltmp756:
.Lfunc_end193:
	.size	_ZN58_$LT$std..thread..Thread$u20$as$u20$core..clone..Clone$GT$5clone17hda2699f47f0855b8E, .Lfunc_end193-_ZN58_$LT$std..thread..Thread$u20$as$u20$core..clone..Clone$GT$5clone17hda2699f47f0855b8E
	.cfi_endproc

	.section	.text._ZN5alloc2rc11is_dangling17h569467032bc688e7E,"ax",@progbits
	.p2align	4, 0x90
	.type	_ZN5alloc2rc11is_dangling17h569467032bc688e7E,@function
_ZN5alloc2rc11is_dangling17h569467032bc688e7E:
.Lfunc_begin194:
	.file	32 "/rustc/e1884a8e3c3e813aada8254edfa120e85bf5ffca/library/alloc/src/rc.rs"
	.loc	32 1740 0 is_stmt 1
	.cfi_startproc
	subq	$24, %rsp
	.cfi_def_cfa_offset 32
	movq	%rdi, 8(%rsp)
.Ltmp757:
	.loc	32 1741 19 prologue_end
	callq	_ZN4core3ptr8non_null16NonNull$LT$T$GT$6as_ptr17h08cf5da251a33e63E
	movq	%rax, (%rsp)
	.loc	32 0 19 is_stmt 0
	movq	(%rsp), %rax
	.loc	32 1741 19
	movq	%rax, 16(%rsp)
.Ltmp758:
	.loc	32 1742 5 is_stmt 1
	cmpq	$-1, %rax
	sete	%cl
.Ltmp759:
	.loc	32 1743 2
	andb	$1, %cl
	movzbl	%cl, %eax
	addq	$24, %rsp
	.cfi_def_cfa_offset 8
	retq
.Ltmp760:
.Lfunc_end194:
	.size	_ZN5alloc2rc11is_dangling17h569467032bc688e7E, .Lfunc_end194-_ZN5alloc2rc11is_dangling17h569467032bc688e7E
	.cfi_endproc

	.section	.text._ZN5alloc2rc11is_dangling17hd0a18df84159d42fE,"ax",@progbits
	.p2align	4, 0x90
	.type	_ZN5alloc2rc11is_dangling17hd0a18df84159d42fE,@function
_ZN5alloc2rc11is_dangling17hd0a18df84159d42fE:
.Lfunc_begin195:
	.loc	32 1740 0
	.cfi_startproc
	subq	$24, %rsp
	.cfi_def_cfa_offset 32
	movq	%rdi, 8(%rsp)
.Ltmp761:
	.loc	32 1741 19 prologue_end
	callq	_ZN4core3ptr8non_null16NonNull$LT$T$GT$6as_ptr17h0d53f001debc5a9dE
	movq	%rax, (%rsp)
	.loc	32 0 19 is_stmt 0
	movq	(%rsp), %rax
	.loc	32 1741 19
	movq	%rax, 16(%rsp)
.Ltmp762:
	.loc	32 1742 5 is_stmt 1
	cmpq	$-1, %rax
	sete	%cl
.Ltmp763:
	.loc	32 1743 2
	andb	$1, %cl
	movzbl	%cl, %eax
	addq	$24, %rsp
	.cfi_def_cfa_offset 8
	retq
.Ltmp764:
.Lfunc_end195:
	.size	_ZN5alloc2rc11is_dangling17hd0a18df84159d42fE, .Lfunc_end195-_ZN5alloc2rc11is_dangling17hd0a18df84159d42fE
	.cfi_endproc

	.section	.text._ZN5alloc2rc11is_dangling17hde2b499bec3502d0E,"ax",@progbits
	.p2align	4, 0x90
	.type	_ZN5alloc2rc11is_dangling17hde2b499bec3502d0E,@function
_ZN5alloc2rc11is_dangling17hde2b499bec3502d0E:
.Lfunc_begin196:
	.loc	32 1740 0
	.cfi_startproc
	subq	$24, %rsp
	.cfi_def_cfa_offset 32
	movq	%rdi, 8(%rsp)
.Ltmp765:
	.loc	32 1741 19 prologue_end
	callq	_ZN4core3ptr8non_null16NonNull$LT$T$GT$6as_ptr17h5ee6587b1dbde73fE
	movq	%rax, (%rsp)
	.loc	32 0 19 is_stmt 0
	movq	(%rsp), %rax
	.loc	32 1741 19
	movq	%rax, 16(%rsp)
.Ltmp766:
	.loc	32 1742 5 is_stmt 1
	cmpq	$-1, %rax
	sete	%cl
.Ltmp767:
	.loc	32 1743 2
	andb	$1, %cl
	movzbl	%cl, %eax
	addq	$24, %rsp
	.cfi_def_cfa_offset 8
	retq
.Ltmp768:
.Lfunc_end196:
	.size	_ZN5alloc2rc11is_dangling17hde2b499bec3502d0E, .Lfunc_end196-_ZN5alloc2rc11is_dangling17hde2b499bec3502d0E
	.cfi_endproc

	.section	".text._ZN5alloc3vec12Vec$LT$T$GT$10as_mut_ptr17hba1a6a0861796284E","ax",@progbits
	.p2align	4, 0x90
	.type	_ZN5alloc3vec12Vec$LT$T$GT$10as_mut_ptr17hba1a6a0861796284E,@function
_ZN5alloc3vec12Vec$LT$T$GT$10as_mut_ptr17hba1a6a0861796284E:
.Lfunc_begin197:
	.file	33 "/rustc/e1884a8e3c3e813aada8254edfa120e85bf5ffca/library/alloc/src/vec.rs"
	.loc	33 856 0
	.cfi_startproc
	subq	$24, %rsp
	.cfi_def_cfa_offset 32
	movq	%rdi, 8(%rsp)
.Ltmp769:
	.loc	33 859 19 prologue_end
	callq	_ZN5alloc7raw_vec19RawVec$LT$T$C$A$GT$3ptr17h06cce67c3c879391E
	movq	%rax, 16(%rsp)
	movq	%rax, (%rsp)
	.loc	33 0 19 is_stmt 0
	movq	(%rsp), %rdi
.Ltmp770:
	.loc	33 861 21 is_stmt 1
	callq	_ZN4core3ptr7mut_ptr31_$LT$impl$u20$$BP$mut$u20$T$GT$7is_null17h11120dedb0340362E
.Ltmp771:
	.loc	33 0 21 is_stmt 0
	movq	(%rsp), %rax
	.loc	33 864 6 is_stmt 1
	addq	$24, %rsp
	.cfi_def_cfa_offset 8
	retq
.Ltmp772:
.Lfunc_end197:
	.size	_ZN5alloc3vec12Vec$LT$T$GT$10as_mut_ptr17hba1a6a0861796284E, .Lfunc_end197-_ZN5alloc3vec12Vec$LT$T$GT$10as_mut_ptr17hba1a6a0861796284E
	.cfi_endproc

	.section	".text._ZN5alloc4sync12Arc$LT$T$GT$10from_inner17h4e4518101f1bb2ffE","ax",@progbits
	.p2align	4, 0x90
	.type	_ZN5alloc4sync12Arc$LT$T$GT$10from_inner17h4e4518101f1bb2ffE,@function
_ZN5alloc4sync12Arc$LT$T$GT$10from_inner17h4e4518101f1bb2ffE:
.Lfunc_begin198:
	.file	34 "/rustc/e1884a8e3c3e813aada8254edfa120e85bf5ffca/library/alloc/src/sync.rs"
	.loc	34 240 0
	.cfi_startproc
	subq	$24, %rsp
	.cfi_def_cfa_offset 32
	movq	%rdi, 16(%rsp)
.Ltmp773:
	.loc	34 241 9 prologue_end
	movq	%rdi, (%rsp)
	.loc	34 242 6
	movq	(%rsp), %rax
	addq	$24, %rsp
	.cfi_def_cfa_offset 8
	retq
.Ltmp774:
.Lfunc_end198:
	.size	_ZN5alloc4sync12Arc$LT$T$GT$10from_inner17h4e4518101f1bb2ffE, .Lfunc_end198-_ZN5alloc4sync12Arc$LT$T$GT$10from_inner17h4e4518101f1bb2ffE
	.cfi_endproc

	.section	".text._ZN5alloc4sync12Arc$LT$T$GT$10from_inner17h9b1ecc5fa4b4c5ebE","ax",@progbits
	.p2align	4, 0x90
	.type	_ZN5alloc4sync12Arc$LT$T$GT$10from_inner17h9b1ecc5fa4b4c5ebE,@function
_ZN5alloc4sync12Arc$LT$T$GT$10from_inner17h9b1ecc5fa4b4c5ebE:
.Lfunc_begin199:
	.loc	34 240 0
	.cfi_startproc
	subq	$24, %rsp
	.cfi_def_cfa_offset 32
	movq	%rdi, 16(%rsp)
.Ltmp775:
	.loc	34 241 9 prologue_end
	movq	%rdi, (%rsp)
	.loc	34 242 6
	movq	(%rsp), %rax
	addq	$24, %rsp
	.cfi_def_cfa_offset 8
	retq
.Ltmp776:
.Lfunc_end199:
	.size	_ZN5alloc4sync12Arc$LT$T$GT$10from_inner17h9b1ecc5fa4b4c5ebE, .Lfunc_end199-_ZN5alloc4sync12Arc$LT$T$GT$10from_inner17h9b1ecc5fa4b4c5ebE
	.cfi_endproc

	.section	".text._ZN5alloc4sync12Arc$LT$T$GT$10from_inner17hb446f576a8f41202E","ax",@progbits
	.p2align	4, 0x90
	.type	_ZN5alloc4sync12Arc$LT$T$GT$10from_inner17hb446f576a8f41202E,@function
_ZN5alloc4sync12Arc$LT$T$GT$10from_inner17hb446f576a8f41202E:
.Lfunc_begin200:
	.loc	34 240 0
	.cfi_startproc
	subq	$24, %rsp
	.cfi_def_cfa_offset 32
	movq	%rdi, 16(%rsp)
.Ltmp777:
	.loc	34 241 9 prologue_end
	movq	%rdi, (%rsp)
	.loc	34 242 6
	movq	(%rsp), %rax
	addq	$24, %rsp
	.cfi_def_cfa_offset 8
	retq
.Ltmp778:
.Lfunc_end200:
	.size	_ZN5alloc4sync12Arc$LT$T$GT$10from_inner17hb446f576a8f41202E, .Lfunc_end200-_ZN5alloc4sync12Arc$LT$T$GT$10from_inner17hb446f576a8f41202E
	.cfi_endproc

	.section	".text._ZN5alloc4sync12Arc$LT$T$GT$17get_mut_unchecked17hab92e3e32cd9203fE","ax",@progbits
	.p2align	4, 0x90
	.type	_ZN5alloc4sync12Arc$LT$T$GT$17get_mut_unchecked17hab92e3e32cd9203fE,@function
_ZN5alloc4sync12Arc$LT$T$GT$17get_mut_unchecked17hab92e3e32cd9203fE:
.Lfunc_begin201:
	.loc	34 1369 0
	.cfi_startproc
	subq	$24, %rsp
	.cfi_def_cfa_offset 32
	movq	%rdi, 16(%rsp)
.Ltmp779:
	.loc	34 1372 25 prologue_end
	movq	(%rdi), %rdi
	callq	_ZN4core3ptr8non_null16NonNull$LT$T$GT$6as_ptr17h5ee6587b1dbde73fE
	movq	%rax, 8(%rsp)
	.loc	34 0 25 is_stmt 0
	movq	8(%rsp), %rax
	.loc	34 1372 18
	addq	$16, %rax
	.loc	34 1373 6 is_stmt 1
	addq	$24, %rsp
	.cfi_def_cfa_offset 8
	retq
.Ltmp780:
.Lfunc_end201:
	.size	_ZN5alloc4sync12Arc$LT$T$GT$17get_mut_unchecked17hab92e3e32cd9203fE, .Lfunc_end201-_ZN5alloc4sync12Arc$LT$T$GT$17get_mut_unchecked17hab92e3e32cd9203fE
	.cfi_endproc

	.section	".text._ZN5alloc4sync12Arc$LT$T$GT$17get_mut_unchecked17hbc84247a9b584c1aE","ax",@progbits
	.p2align	4, 0x90
	.type	_ZN5alloc4sync12Arc$LT$T$GT$17get_mut_unchecked17hbc84247a9b584c1aE,@function
_ZN5alloc4sync12Arc$LT$T$GT$17get_mut_unchecked17hbc84247a9b584c1aE:
.Lfunc_begin202:
	.loc	34 1369 0
	.cfi_startproc
	subq	$24, %rsp
	.cfi_def_cfa_offset 32
	movq	%rdi, 16(%rsp)
.Ltmp781:
	.loc	34 1372 25 prologue_end
	movq	(%rdi), %rdi
	callq	_ZN4core3ptr8non_null16NonNull$LT$T$GT$6as_ptr17h0d53f001debc5a9dE
	movq	%rax, 8(%rsp)
	.loc	34 0 25 is_stmt 0
	movq	8(%rsp), %rax
	.loc	34 1372 18
	addq	$16, %rax
	.loc	34 1373 6 is_stmt 1
	addq	$24, %rsp
	.cfi_def_cfa_offset 8
	retq
.Ltmp782:
.Lfunc_end202:
	.size	_ZN5alloc4sync12Arc$LT$T$GT$17get_mut_unchecked17hbc84247a9b584c1aE, .Lfunc_end202-_ZN5alloc4sync12Arc$LT$T$GT$17get_mut_unchecked17hbc84247a9b584c1aE
	.cfi_endproc

	.section	".text._ZN5alloc4sync12Arc$LT$T$GT$17get_mut_unchecked17he3d783906701ee3eE","ax",@progbits
	.p2align	4, 0x90
	.type	_ZN5alloc4sync12Arc$LT$T$GT$17get_mut_unchecked17he3d783906701ee3eE,@function
_ZN5alloc4sync12Arc$LT$T$GT$17get_mut_unchecked17he3d783906701ee3eE:
.Lfunc_begin203:
	.loc	34 1369 0
	.cfi_startproc
	subq	$24, %rsp
	.cfi_def_cfa_offset 32
	movq	%rdi, 16(%rsp)
.Ltmp783:
	.loc	34 1372 25 prologue_end
	movq	(%rdi), %rdi
	callq	_ZN4core3ptr8non_null16NonNull$LT$T$GT$6as_ptr17h08cf5da251a33e63E
	movq	%rax, 8(%rsp)
	.loc	34 0 25 is_stmt 0
	movq	8(%rsp), %rax
	.loc	34 1372 18
	addq	$16, %rax
	.loc	34 1373 6 is_stmt 1
	addq	$24, %rsp
	.cfi_def_cfa_offset 8
	retq
.Ltmp784:
.Lfunc_end203:
	.size	_ZN5alloc4sync12Arc$LT$T$GT$17get_mut_unchecked17he3d783906701ee3eE, .Lfunc_end203-_ZN5alloc4sync12Arc$LT$T$GT$17get_mut_unchecked17he3d783906701ee3eE
	.cfi_endproc

	.section	".text._ZN5alloc4sync12Arc$LT$T$GT$3new17h12ccfb3a5c1b6f39E","ax",@progbits
	.p2align	4, 0x90
	.type	_ZN5alloc4sync12Arc$LT$T$GT$3new17h12ccfb3a5c1b6f39E,@function
_ZN5alloc4sync12Arc$LT$T$GT$3new17h12ccfb3a5c1b6f39E:
.Lfunc_begin204:
	.loc	34 327 0
	.cfi_startproc
	.cfi_personality 155, DW.ref.rust_eh_personality
	.cfi_lsda 27, .Lexception23
	subq	$136, %rsp
	.cfi_def_cfa_offset 144
	movq	%rdi, 48(%rsp)
	movq	48(%rsp), %rax
	movq	%rax, 40(%rsp)
.Ltmp797:
	.loc	34 330 13 prologue_end
	movb	$0, 95(%rsp)
	movb	$1, 95(%rsp)
	movl	$24, %edi
	movl	$8, %esi
	.loc	34 330 25 is_stmt 0
	callq	_ZN5alloc5alloc15exchange_malloc17h66d0ade9c8d91a7fE
	movq	%rax, 56(%rsp)
.Ltmp785:
	movl	$1, %edi
	.loc	34 331 21 is_stmt 1
	callq	_ZN4core4sync6atomic11AtomicUsize3new17hcfdb1e2e6614651dE
.Ltmp786:
	movq	%rax, 32(%rsp)
	jmp	.LBB204_1
.LBB204_1:
	.loc	34 0 21 is_stmt 0
	movq	32(%rsp), %rax
	.loc	34 331 21
	movq	%rax, 112(%rsp)
	movq	112(%rsp), %rcx
	movq	%rcx, 64(%rsp)
.Ltmp787:
	movl	$1, %edi
	.loc	34 332 19 is_stmt 1
	callq	_ZN4core4sync6atomic11AtomicUsize3new17hcfdb1e2e6614651dE
.Ltmp788:
	movq	%rax, 24(%rsp)
	jmp	.LBB204_2
.LBB204_2:
	.loc	34 0 19 is_stmt 0
	movq	24(%rsp), %rax
	.loc	34 332 19
	movq	%rax, 120(%rsp)
	movq	120(%rsp), %rcx
	movq	%rcx, 72(%rsp)
	.loc	34 333 13 is_stmt 1
	movb	$0, 95(%rsp)
	movq	40(%rsp), %rcx
	movq	%rcx, 80(%rsp)
	.loc	34 330 29
	movq	56(%rsp), %rcx
	movq	64(%rsp), %rdx
	movq	%rdx, (%rcx)
	movq	56(%rsp), %rcx
	movq	72(%rsp), %rdx
	movq	%rdx, 8(%rcx)
	movq	56(%rsp), %rcx
	movq	80(%rsp), %rdx
	movq	%rdx, 16(%rcx)
	.loc	34 330 25 is_stmt 0
	movq	56(%rsp), %rcx
	movq	%rcx, 128(%rsp)
.Ltmp790:
.Ltmp798:
	.loc	34 335 26 is_stmt 1
	movq	%rcx, %rdi
	callq	_ZN5alloc5boxed16Box$LT$T$C$A$GT$4leak17h9dff6be2356fbae6E
.Ltmp791:
	movq	%rax, 16(%rsp)
	jmp	.LBB204_3
.LBB204_3:
.Ltmp792:
	.loc	34 0 26 is_stmt 0
	movq	16(%rsp), %rdi
	.loc	34 335 26
	callq	_ZN50_$LT$T$u20$as$u20$core..convert..Into$LT$U$GT$$GT$4into17h0eda528d9578aa31E
.Ltmp793:
	movq	%rax, 8(%rsp)
	jmp	.LBB204_4
.LBB204_4:
.Ltmp794:
	.loc	34 0 26
	movq	8(%rsp), %rdi
	.loc	34 335 9
	callq	_ZN5alloc4sync12Arc$LT$T$GT$10from_inner17h9b1ecc5fa4b4c5ebE
.Ltmp795:
	movq	%rax, (%rsp)
	jmp	.LBB204_5
.Ltmp799:
.LBB204_5:
	.loc	34 0 9
	movq	(%rsp), %rax
	.loc	34 336 6 is_stmt 1
	addq	$136, %rsp
	.cfi_def_cfa_offset 8
	retq
.LBB204_6:
	.cfi_def_cfa_offset 144
	.loc	34 327 5
	movq	96(%rsp), %rdi
	callq	_Unwind_Resume@PLT
	ud2
.LBB204_7:
	.loc	34 334 9
	movq	56(%rsp), %rdi
	callq	_ZN5alloc5alloc8box_free17hcc2ea96528112a40E
	jmp	.LBB204_9
.LBB204_8:
	.loc	34 336 5
	jmp	.LBB204_6
.LBB204_9:
	testb	$1, 95(%rsp)
	jne	.LBB204_8
	jmp	.LBB204_6
.Ltmp800:
.LBB204_10:
.Ltmp789:
	.loc	34 0 5 is_stmt 0
	movq	%rax, 96(%rsp)
	movl	%edx, 104(%rsp)
	jmp	.LBB204_7
.LBB204_11:
.Ltmp796:
	movq	%rax, 96(%rsp)
	movl	%edx, 104(%rsp)
	jmp	.LBB204_9
.Lfunc_end204:
	.size	_ZN5alloc4sync12Arc$LT$T$GT$3new17h12ccfb3a5c1b6f39E, .Lfunc_end204-_ZN5alloc4sync12Arc$LT$T$GT$3new17h12ccfb3a5c1b6f39E
	.cfi_endproc
	.section	.gcc_except_table,"a",@progbits
	.p2align	2
GCC_except_table204:
.Lexception23:
	.byte	255
	.byte	255
	.byte	1
	.uleb128 .Lcst_end23-.Lcst_begin23
.Lcst_begin23:
	.uleb128 .Lfunc_begin204-.Lfunc_begin204
	.uleb128 .Ltmp785-.Lfunc_begin204
	.byte	0
	.byte	0
	.uleb128 .Ltmp785-.Lfunc_begin204
	.uleb128 .Ltmp788-.Ltmp785
	.uleb128 .Ltmp789-.Lfunc_begin204
	.byte	0
	.uleb128 .Ltmp790-.Lfunc_begin204
	.uleb128 .Ltmp795-.Ltmp790
	.uleb128 .Ltmp796-.Lfunc_begin204
	.byte	0
	.uleb128 .Ltmp795-.Lfunc_begin204
	.uleb128 .Lfunc_end204-.Ltmp795
	.byte	0
	.byte	0
.Lcst_end23:
	.p2align	2

	.section	".text._ZN5alloc4sync12Arc$LT$T$GT$3new17hc0c99a8bd5503f80E","ax",@progbits
	.p2align	4, 0x90
	.type	_ZN5alloc4sync12Arc$LT$T$GT$3new17hc0c99a8bd5503f80E,@function
_ZN5alloc4sync12Arc$LT$T$GT$3new17hc0c99a8bd5503f80E:
.Lfunc_begin205:
	.loc	34 327 0 is_stmt 1
	.cfi_startproc
	.cfi_personality 155, DW.ref.rust_eh_personality
	.cfi_lsda 27, .Lexception24
	subq	$152, %rsp
	.cfi_def_cfa_offset 160
.Ltmp813:
	.loc	34 330 13 prologue_end
	movb	$0, 111(%rsp)
	movb	$1, 111(%rsp)
	movl	$40, %eax
	movl	$8, %esi
	movq	%rdi, 48(%rsp)
.Ltmp814:
	.loc	34 330 25 is_stmt 0
	movq	%rax, %rdi
	callq	_ZN5alloc5alloc15exchange_malloc17h66d0ade9c8d91a7fE
	movq	%rax, 56(%rsp)
.Ltmp801:
	movl	$1, %edi
	.loc	34 331 21 is_stmt 1
	callq	_ZN4core4sync6atomic11AtomicUsize3new17hcfdb1e2e6614651dE
.Ltmp802:
	movq	%rax, 40(%rsp)
	jmp	.LBB205_1
.Ltmp815:
.LBB205_1:
	.loc	34 0 21 is_stmt 0
	movq	40(%rsp), %rax
	.loc	34 331 21
	movq	%rax, 128(%rsp)
	movq	128(%rsp), %rcx
	movq	%rcx, 64(%rsp)
.Ltmp803:
	movl	$1, %edi
	.loc	34 332 19 is_stmt 1
	callq	_ZN4core4sync6atomic11AtomicUsize3new17hcfdb1e2e6614651dE
.Ltmp804:
	movq	%rax, 32(%rsp)
	jmp	.LBB205_2
.Ltmp816:
.LBB205_2:
	.loc	34 0 19 is_stmt 0
	movq	32(%rsp), %rax
	.loc	34 332 19
	movq	%rax, 136(%rsp)
	movq	136(%rsp), %rcx
	movq	%rcx, 72(%rsp)
	.loc	34 333 13 is_stmt 1
	movb	$0, 111(%rsp)
	movq	48(%rsp), %rcx
	movq	16(%rcx), %rdx
	movq	%rdx, 96(%rsp)
	movups	(%rcx), %xmm0
	movaps	%xmm0, 80(%rsp)
	.loc	34 330 29
	movq	56(%rsp), %rdx
	movq	64(%rsp), %rsi
	movq	%rsi, (%rdx)
	movq	56(%rsp), %rdx
	movq	72(%rsp), %rsi
	movq	%rsi, 8(%rdx)
	movq	56(%rsp), %rdx
	movq	96(%rsp), %rsi
	movq	%rsi, 32(%rdx)
	movaps	80(%rsp), %xmm0
	movups	%xmm0, 16(%rdx)
	.loc	34 330 25 is_stmt 0
	movq	56(%rsp), %rdx
	movq	%rdx, 144(%rsp)
.Ltmp806:
.Ltmp817:
	.loc	34 335 26 is_stmt 1
	movq	%rdx, %rdi
	callq	_ZN5alloc5boxed16Box$LT$T$C$A$GT$4leak17h15a9dd267aea2842E
.Ltmp807:
	movq	%rax, 24(%rsp)
	jmp	.LBB205_3
.Ltmp818:
.LBB205_3:
.Ltmp808:
	.loc	34 0 26 is_stmt 0
	movq	24(%rsp), %rdi
	.loc	34 335 26
	callq	_ZN50_$LT$T$u20$as$u20$core..convert..Into$LT$U$GT$$GT$4into17h874eb7ff1aecb223E
.Ltmp809:
	movq	%rax, 16(%rsp)
	jmp	.LBB205_4
.Ltmp819:
.LBB205_4:
.Ltmp810:
	.loc	34 0 26
	movq	16(%rsp), %rdi
	.loc	34 335 9
	callq	_ZN5alloc4sync12Arc$LT$T$GT$10from_inner17h4e4518101f1bb2ffE
.Ltmp811:
	movq	%rax, 8(%rsp)
	jmp	.LBB205_5
.Ltmp820:
.LBB205_5:
	.loc	34 0 9
	movq	8(%rsp), %rax
	.loc	34 336 6 is_stmt 1
	addq	$152, %rsp
	.cfi_def_cfa_offset 8
	retq
.Ltmp821:
.LBB205_6:
	.cfi_def_cfa_offset 160
	.loc	34 327 5
	movq	112(%rsp), %rdi
	callq	_Unwind_Resume@PLT
	ud2
.Ltmp822:
.LBB205_7:
	.loc	34 334 9
	movq	56(%rsp), %rdi
	callq	_ZN5alloc5alloc8box_free17h40c0a607922e21c5E
	jmp	.LBB205_9
.Ltmp823:
.LBB205_8:
	.loc	34 0 9 is_stmt 0
	movq	48(%rsp), %rdi
	.loc	34 336 5 is_stmt 1
	callq	_ZN4core3ptr13drop_in_place17hc7c2571abf49c7e6E
	jmp	.LBB205_6
.Ltmp824:
.LBB205_9:
	testb	$1, 111(%rsp)
	jne	.LBB205_8
	jmp	.LBB205_6
.Ltmp825:
.LBB205_10:
.Ltmp805:
	.loc	34 0 5 is_stmt 0
	movq	%rax, 112(%rsp)
	movl	%edx, 120(%rsp)
	jmp	.LBB205_7
.Ltmp826:
.LBB205_11:
.Ltmp812:
	movq	%rax, 112(%rsp)
	movl	%edx, 120(%rsp)
	jmp	.LBB205_9
.Lfunc_end205:
	.size	_ZN5alloc4sync12Arc$LT$T$GT$3new17hc0c99a8bd5503f80E, .Lfunc_end205-_ZN5alloc4sync12Arc$LT$T$GT$3new17hc0c99a8bd5503f80E
	.cfi_endproc
	.section	.gcc_except_table,"a",@progbits
	.p2align	2
GCC_except_table205:
.Lexception24:
	.byte	255
	.byte	255
	.byte	1
	.uleb128 .Lcst_end24-.Lcst_begin24
.Lcst_begin24:
	.uleb128 .Lfunc_begin205-.Lfunc_begin205
	.uleb128 .Ltmp801-.Lfunc_begin205
	.byte	0
	.byte	0
	.uleb128 .Ltmp801-.Lfunc_begin205
	.uleb128 .Ltmp804-.Ltmp801
	.uleb128 .Ltmp805-.Lfunc_begin205
	.byte	0
	.uleb128 .Ltmp806-.Lfunc_begin205
	.uleb128 .Ltmp811-.Ltmp806
	.uleb128 .Ltmp812-.Lfunc_begin205
	.byte	0
	.uleb128 .Ltmp811-.Lfunc_begin205
	.uleb128 .Lfunc_end205-.Ltmp811
	.byte	0
	.byte	0
.Lcst_end24:
	.p2align	2

	.section	".text._ZN5alloc4sync12Arc$LT$T$GT$5inner17h4324753361503cc5E","ax",@progbits
	.p2align	4, 0x90
	.type	_ZN5alloc4sync12Arc$LT$T$GT$5inner17h4324753361503cc5E,@function
_ZN5alloc4sync12Arc$LT$T$GT$5inner17h4324753361503cc5E:
.Lfunc_begin206:
	.loc	34 937 0 is_stmt 1
	.cfi_startproc
	subq	$24, %rsp
	.cfi_def_cfa_offset 32
	movq	%rdi, 16(%rsp)
.Ltmp827:
	.loc	34 943 18 prologue_end
	callq	_ZN4core3ptr8non_null16NonNull$LT$T$GT$6as_ref17h3d0b9e1f37d79a28E
	movq	%rax, 8(%rsp)
	.loc	34 0 18 is_stmt 0
	movq	8(%rsp), %rax
	.loc	34 944 6 is_stmt 1
	addq	$24, %rsp
	.cfi_def_cfa_offset 8
	retq
.Ltmp828:
.Lfunc_end206:
	.size	_ZN5alloc4sync12Arc$LT$T$GT$5inner17h4324753361503cc5E, .Lfunc_end206-_ZN5alloc4sync12Arc$LT$T$GT$5inner17h4324753361503cc5E
	.cfi_endproc

	.section	".text._ZN5alloc4sync12Arc$LT$T$GT$5inner17habbf9e3e8f0d0af4E","ax",@progbits
	.p2align	4, 0x90
	.type	_ZN5alloc4sync12Arc$LT$T$GT$5inner17habbf9e3e8f0d0af4E,@function
_ZN5alloc4sync12Arc$LT$T$GT$5inner17habbf9e3e8f0d0af4E:
.Lfunc_begin207:
	.loc	34 937 0
	.cfi_startproc
	subq	$24, %rsp
	.cfi_def_cfa_offset 32
	movq	%rdi, 16(%rsp)
.Ltmp829:
	.loc	34 943 18 prologue_end
	callq	_ZN4core3ptr8non_null16NonNull$LT$T$GT$6as_ref17h1edcbfc1637f9191E
	movq	%rax, 8(%rsp)
	.loc	34 0 18 is_stmt 0
	movq	8(%rsp), %rax
	.loc	34 944 6 is_stmt 1
	addq	$24, %rsp
	.cfi_def_cfa_offset 8
	retq
.Ltmp830:
.Lfunc_end207:
	.size	_ZN5alloc4sync12Arc$LT$T$GT$5inner17habbf9e3e8f0d0af4E, .Lfunc_end207-_ZN5alloc4sync12Arc$LT$T$GT$5inner17habbf9e3e8f0d0af4E
	.cfi_endproc

	.section	".text._ZN5alloc4sync12Arc$LT$T$GT$5inner17hffd827cf94a01e48E","ax",@progbits
	.p2align	4, 0x90
	.type	_ZN5alloc4sync12Arc$LT$T$GT$5inner17hffd827cf94a01e48E,@function
_ZN5alloc4sync12Arc$LT$T$GT$5inner17hffd827cf94a01e48E:
.Lfunc_begin208:
	.loc	34 937 0
	.cfi_startproc
	subq	$24, %rsp
	.cfi_def_cfa_offset 32
	movq	%rdi, 16(%rsp)
.Ltmp831:
	.loc	34 943 18 prologue_end
	callq	_ZN4core3ptr8non_null16NonNull$LT$T$GT$6as_ref17hf37455873ed6b352E
	movq	%rax, 8(%rsp)
	.loc	34 0 18 is_stmt 0
	movq	8(%rsp), %rax
	.loc	34 944 6 is_stmt 1
	addq	$24, %rsp
	.cfi_def_cfa_offset 8
	retq
.Ltmp832:
.Lfunc_end208:
	.size	_ZN5alloc4sync12Arc$LT$T$GT$5inner17hffd827cf94a01e48E, .Lfunc_end208-_ZN5alloc4sync12Arc$LT$T$GT$5inner17hffd827cf94a01e48E
	.cfi_endproc

	.section	".text._ZN5alloc4sync12Arc$LT$T$GT$9drop_slow17h0018928384209a2cE","ax",@progbits
	.p2align	4, 0x90
	.type	_ZN5alloc4sync12Arc$LT$T$GT$9drop_slow17h0018928384209a2cE,@function
_ZN5alloc4sync12Arc$LT$T$GT$9drop_slow17h0018928384209a2cE:
.Lfunc_begin209:
	.loc	34 948 0
	.cfi_startproc
	subq	$24, %rsp
	.cfi_def_cfa_offset 32
	movq	%rdi, 16(%rsp)
	movq	%rdi, (%rsp)
.Ltmp833:
	.loc	34 951 37 prologue_end
	callq	_ZN5alloc4sync12Arc$LT$T$GT$17get_mut_unchecked17hab92e3e32cd9203fE
	.loc	34 951 18 is_stmt 0
	jmp	.LBB209_2
.LBB209_2:
	.loc	34 0 18
	movq	(%rsp), %rax
	.loc	34 954 26 is_stmt 1
	movq	(%rax), %rcx
	.loc	34 954 14 is_stmt 0
	movq	%rcx, 8(%rsp)
	.loc	34 954 9
	movq	8(%rsp), %rdi
	callq	_ZN4core3mem4drop17hfbfc7da46c6fcc8eE
	.loc	34 955 6 is_stmt 1
	addq	$24, %rsp
	.cfi_def_cfa_offset 8
	retq
.Ltmp834:
.Lfunc_end209:
	.size	_ZN5alloc4sync12Arc$LT$T$GT$9drop_slow17h0018928384209a2cE, .Lfunc_end209-_ZN5alloc4sync12Arc$LT$T$GT$9drop_slow17h0018928384209a2cE
	.cfi_endproc

	.section	".text._ZN5alloc4sync12Arc$LT$T$GT$9drop_slow17h2d59c58a0282c053E","ax",@progbits
	.p2align	4, 0x90
	.type	_ZN5alloc4sync12Arc$LT$T$GT$9drop_slow17h2d59c58a0282c053E,@function
_ZN5alloc4sync12Arc$LT$T$GT$9drop_slow17h2d59c58a0282c053E:
.Lfunc_begin210:
	.loc	34 948 0
	.cfi_startproc
	subq	$40, %rsp
	.cfi_def_cfa_offset 48
	movq	%rdi, 32(%rsp)
	movq	%rdi, 16(%rsp)
.Ltmp835:
	.loc	34 951 37 prologue_end
	callq	_ZN5alloc4sync12Arc$LT$T$GT$17get_mut_unchecked17hbc84247a9b584c1aE
	movq	%rax, 8(%rsp)
	.loc	34 0 37 is_stmt 0
	movq	8(%rsp), %rdi
	.loc	34 951 18
	callq	_ZN4core3ptr13drop_in_place17hc7c2571abf49c7e6E
	.loc	34 0 18
	movq	16(%rsp), %rax
	.loc	34 954 26 is_stmt 1
	movq	(%rax), %rcx
	.loc	34 954 14 is_stmt 0
	movq	%rcx, 24(%rsp)
	.loc	34 954 9
	movq	24(%rsp), %rdi
	callq	_ZN4core3mem4drop17hb6e8281d1cc9be8fE
	.loc	34 955 6 is_stmt 1
	addq	$40, %rsp
	.cfi_def_cfa_offset 8
	retq
.Ltmp836:
.Lfunc_end210:
	.size	_ZN5alloc4sync12Arc$LT$T$GT$9drop_slow17h2d59c58a0282c053E, .Lfunc_end210-_ZN5alloc4sync12Arc$LT$T$GT$9drop_slow17h2d59c58a0282c053E
	.cfi_endproc

	.section	".text._ZN5alloc4sync12Arc$LT$T$GT$9drop_slow17h9ff19611aa6e4157E","ax",@progbits
	.p2align	4, 0x90
	.type	_ZN5alloc4sync12Arc$LT$T$GT$9drop_slow17h9ff19611aa6e4157E,@function
_ZN5alloc4sync12Arc$LT$T$GT$9drop_slow17h9ff19611aa6e4157E:
.Lfunc_begin211:
	.loc	34 948 0
	.cfi_startproc
	subq	$40, %rsp
	.cfi_def_cfa_offset 48
	movq	%rdi, 32(%rsp)
	movq	%rdi, 16(%rsp)
.Ltmp837:
	.loc	34 951 37 prologue_end
	callq	_ZN5alloc4sync12Arc$LT$T$GT$17get_mut_unchecked17he3d783906701ee3eE
	movq	%rax, 8(%rsp)
	.loc	34 0 37 is_stmt 0
	movq	8(%rsp), %rdi
	.loc	34 951 18
	callq	_ZN4core3ptr13drop_in_place17h11ee47568757b39eE
	.loc	34 0 18
	movq	16(%rsp), %rax
	.loc	34 954 26 is_stmt 1
	movq	(%rax), %rcx
	.loc	34 954 14 is_stmt 0
	movq	%rcx, 24(%rsp)
	.loc	34 954 9
	movq	24(%rsp), %rdi
	callq	_ZN4core3mem4drop17h54591621facf00c0E
	.loc	34 955 6 is_stmt 1
	addq	$40, %rsp
	.cfi_def_cfa_offset 8
	retq
.Ltmp838:
.Lfunc_end211:
	.size	_ZN5alloc4sync12Arc$LT$T$GT$9drop_slow17h9ff19611aa6e4157E, .Lfunc_end211-_ZN5alloc4sync12Arc$LT$T$GT$9drop_slow17h9ff19611aa6e4157E
	.cfi_endproc

	.section	".text._ZN5alloc4sync13Weak$LT$T$GT$5inner17h6888e1b280b1026fE","ax",@progbits
	.p2align	4, 0x90
	.type	_ZN5alloc4sync13Weak$LT$T$GT$5inner17h6888e1b280b1026fE,@function
_ZN5alloc4sync13Weak$LT$T$GT$5inner17h6888e1b280b1026fE:
.Lfunc_begin212:
	.loc	34 1773 0
	.cfi_startproc
	subq	$72, %rsp
	.cfi_def_cfa_offset 80
	movq	%rdi, 56(%rsp)
.Ltmp839:
	.loc	34 1774 24 prologue_end
	movq	(%rdi), %rax
	movq	%rdi, 16(%rsp)
	.loc	34 1774 12 is_stmt 0
	movq	%rax, %rdi
	callq	_ZN5alloc2rc11is_dangling17hde2b499bec3502d0E
	movb	%al, 15(%rsp)
	.loc	34 0 12
	movb	15(%rsp), %al
	.loc	34 1774 9
	testb	$1, %al
	jne	.LBB212_3
	jmp	.LBB212_2
.LBB212_2:
	.loc	34 0 9
	movq	16(%rsp), %rax
	.loc	34 1781 27 is_stmt 1
	movq	(%rax), %rdi
	callq	_ZN4core3ptr8non_null16NonNull$LT$T$GT$6as_ptr17h5ee6587b1dbde73fE
	movq	%rax, 64(%rsp)
	movq	%rax, (%rsp)
	jmp	.LBB212_4
.LBB212_3:
	.loc	34 1775 13
	movq	$0, 24(%rsp)
	.loc	34 1774 9
	jmp	.LBB212_5
.LBB212_4:
	.loc	34 0 9 is_stmt 0
	movq	(%rsp), %rax
	movq	(%rsp), %rcx
.Ltmp840:
	.loc	34 1782 59 is_stmt 1
	addq	$8, %rcx
	.loc	34 1782 17 is_stmt 0
	movq	%rcx, 40(%rsp)
	movq	%rax, 48(%rsp)
.Ltmp841:
	.loc	34 1780 13 is_stmt 1
	movq	40(%rsp), %rax
	movq	48(%rsp), %rcx
	movq	%rax, 24(%rsp)
	movq	%rcx, 32(%rsp)
.LBB212_5:
	.loc	34 1785 6
	movq	24(%rsp), %rax
	movq	32(%rsp), %rdx
	addq	$72, %rsp
	.cfi_def_cfa_offset 8
	retq
.Ltmp842:
.Lfunc_end212:
	.size	_ZN5alloc4sync13Weak$LT$T$GT$5inner17h6888e1b280b1026fE, .Lfunc_end212-_ZN5alloc4sync13Weak$LT$T$GT$5inner17h6888e1b280b1026fE
	.cfi_endproc

	.section	".text._ZN5alloc4sync13Weak$LT$T$GT$5inner17h830dcc7f2377e8aaE","ax",@progbits
	.p2align	4, 0x90
	.type	_ZN5alloc4sync13Weak$LT$T$GT$5inner17h830dcc7f2377e8aaE,@function
_ZN5alloc4sync13Weak$LT$T$GT$5inner17h830dcc7f2377e8aaE:
.Lfunc_begin213:
	.loc	34 1773 0
	.cfi_startproc
	subq	$72, %rsp
	.cfi_def_cfa_offset 80
	movq	%rdi, 56(%rsp)
.Ltmp843:
	.loc	34 1774 24 prologue_end
	movq	(%rdi), %rax
	movq	%rdi, 16(%rsp)
	.loc	34 1774 12 is_stmt 0
	movq	%rax, %rdi
	callq	_ZN5alloc2rc11is_dangling17hd0a18df84159d42fE
	movb	%al, 15(%rsp)
	.loc	34 0 12
	movb	15(%rsp), %al
	.loc	34 1774 9
	testb	$1, %al
	jne	.LBB213_3
	jmp	.LBB213_2
.LBB213_2:
	.loc	34 0 9
	movq	16(%rsp), %rax
	.loc	34 1781 27 is_stmt 1
	movq	(%rax), %rdi
	callq	_ZN4core3ptr8non_null16NonNull$LT$T$GT$6as_ptr17h0d53f001debc5a9dE
	movq	%rax, 64(%rsp)
	movq	%rax, (%rsp)
	jmp	.LBB213_4
.LBB213_3:
	.loc	34 1775 13
	movq	$0, 24(%rsp)
	.loc	34 1774 9
	jmp	.LBB213_5
.LBB213_4:
	.loc	34 0 9 is_stmt 0
	movq	(%rsp), %rax
	movq	(%rsp), %rcx
.Ltmp844:
	.loc	34 1782 59 is_stmt 1
	addq	$8, %rcx
	.loc	34 1782 17 is_stmt 0
	movq	%rcx, 40(%rsp)
	movq	%rax, 48(%rsp)
.Ltmp845:
	.loc	34 1780 13 is_stmt 1
	movq	40(%rsp), %rax
	movq	48(%rsp), %rcx
	movq	%rax, 24(%rsp)
	movq	%rcx, 32(%rsp)
.LBB213_5:
	.loc	34 1785 6
	movq	24(%rsp), %rax
	movq	32(%rsp), %rdx
	addq	$72, %rsp
	.cfi_def_cfa_offset 8
	retq
.Ltmp846:
.Lfunc_end213:
	.size	_ZN5alloc4sync13Weak$LT$T$GT$5inner17h830dcc7f2377e8aaE, .Lfunc_end213-_ZN5alloc4sync13Weak$LT$T$GT$5inner17h830dcc7f2377e8aaE
	.cfi_endproc

	.section	".text._ZN5alloc4sync13Weak$LT$T$GT$5inner17hd4b1259ead2bf012E","ax",@progbits
	.p2align	4, 0x90
	.type	_ZN5alloc4sync13Weak$LT$T$GT$5inner17hd4b1259ead2bf012E,@function
_ZN5alloc4sync13Weak$LT$T$GT$5inner17hd4b1259ead2bf012E:
.Lfunc_begin214:
	.loc	34 1773 0
	.cfi_startproc
	subq	$72, %rsp
	.cfi_def_cfa_offset 80
	movq	%rdi, 56(%rsp)
.Ltmp847:
	.loc	34 1774 24 prologue_end
	movq	(%rdi), %rax
	movq	%rdi, 16(%rsp)
	.loc	34 1774 12 is_stmt 0
	movq	%rax, %rdi
	callq	_ZN5alloc2rc11is_dangling17h569467032bc688e7E
	movb	%al, 15(%rsp)
	.loc	34 0 12
	movb	15(%rsp), %al
	.loc	34 1774 9
	testb	$1, %al
	jne	.LBB214_3
	jmp	.LBB214_2
.LBB214_2:
	.loc	34 0 9
	movq	16(%rsp), %rax
	.loc	34 1781 27 is_stmt 1
	movq	(%rax), %rdi
	callq	_ZN4core3ptr8non_null16NonNull$LT$T$GT$6as_ptr17h08cf5da251a33e63E
	movq	%rax, 64(%rsp)
	movq	%rax, (%rsp)
	jmp	.LBB214_4
.LBB214_3:
	.loc	34 1775 13
	movq	$0, 24(%rsp)
	.loc	34 1774 9
	jmp	.LBB214_5
.LBB214_4:
	.loc	34 0 9 is_stmt 0
	movq	(%rsp), %rax
	movq	(%rsp), %rcx
.Ltmp848:
	.loc	34 1782 59 is_stmt 1
	addq	$8, %rcx
	.loc	34 1782 17 is_stmt 0
	movq	%rcx, 40(%rsp)
	movq	%rax, 48(%rsp)
.Ltmp849:
	.loc	34 1780 13 is_stmt 1
	movq	40(%rsp), %rax
	movq	48(%rsp), %rcx
	movq	%rax, 24(%rsp)
	movq	%rcx, 32(%rsp)
.LBB214_5:
	.loc	34 1785 6
	movq	24(%rsp), %rax
	movq	32(%rsp), %rdx
	addq	$72, %rsp
	.cfi_def_cfa_offset 8
	retq
.Ltmp850:
.Lfunc_end214:
	.size	_ZN5alloc4sync13Weak$LT$T$GT$5inner17hd4b1259ead2bf012E, .Lfunc_end214-_ZN5alloc4sync13Weak$LT$T$GT$5inner17hd4b1259ead2bf012E
	.cfi_endproc

	.section	.text._ZN5alloc5alloc12alloc_zeroed17h40785e8359c9335eE,"ax",@progbits
	.p2align	4, 0x90
	.type	_ZN5alloc5alloc12alloc_zeroed17h40785e8359c9335eE,@function
_ZN5alloc5alloc12alloc_zeroed17h40785e8359c9335eE:
.Lfunc_begin215:
	.file	35 "/rustc/e1884a8e3c3e813aada8254edfa120e85bf5ffca/library/alloc/src/alloc.rs"
	.loc	35 152 0
	.cfi_startproc
	subq	$40, %rsp
	.cfi_def_cfa_offset 48
	movq	%rdi, 24(%rsp)
	movq	%rsi, 32(%rsp)
.Ltmp851:
	.loc	35 153 34 prologue_end
	leaq	24(%rsp), %rdi
.Ltmp852:
	callq	_ZN4core5alloc6layout6Layout4size17h8adfadae00526f6bE
.Ltmp853:
	.loc	35 0 34 is_stmt 0
	movq	%rax, 16(%rsp)
	.loc	35 153 49
	leaq	24(%rsp), %rdi
	callq	_ZN4core5alloc6layout6Layout5align17h4df9fd681053f925E
	movq	%rax, 8(%rsp)
	.loc	35 0 49
	movq	16(%rsp), %rdi
	movq	8(%rsp), %rsi
	.loc	35 153 14
	callq	*__rust_alloc_zeroed@GOTPCREL(%rip)
	movq	%rax, (%rsp)
	.loc	35 0 14
	movq	(%rsp), %rax
	.loc	35 154 2 is_stmt 1
	addq	$40, %rsp
	.cfi_def_cfa_offset 8
	retq
.Ltmp854:
.Lfunc_end215:
	.size	_ZN5alloc5alloc12alloc_zeroed17h40785e8359c9335eE, .Lfunc_end215-_ZN5alloc5alloc12alloc_zeroed17h40785e8359c9335eE
	.cfi_endproc

	.section	.text._ZN5alloc5alloc15exchange_malloc17h66d0ade9c8d91a7fE,"ax",@progbits
	.p2align	4, 0x90
	.type	_ZN5alloc5alloc15exchange_malloc17h66d0ade9c8d91a7fE,@function
_ZN5alloc5alloc15exchange_malloc17h66d0ade9c8d91a7fE:
.Lfunc_begin216:
	.loc	35 312 0
	.cfi_startproc
	subq	$88, %rsp
	.cfi_def_cfa_offset 96
	movq	%rdi, 40(%rsp)
	movq	%rsi, 48(%rsp)
.Ltmp855:
	.loc	35 313 27 prologue_end
	callq	_ZN4core5alloc6layout6Layout25from_size_align_unchecked17hdba2f2a0344d19b5E
	movq	%rax, 56(%rsp)
	movq	%rdx, 64(%rsp)
	movq	%rax, 16(%rsp)
	movq	%rdx, 8(%rsp)
.Ltmp856:
	.loc	35 314 11
	leaq	.L__unnamed_17(%rip), %rdi
	movq	16(%rsp), %rsi
	movq	8(%rsp), %rdx
	callq	_ZN62_$LT$alloc..alloc..Global$u20$as$u20$core..alloc..AllocRef$GT$5alloc17h719f92c29d2de11bE
